TN:
SF:/home/runner/work/beaver/beaver/src/actions/BVPressureAction.C
FN:22,_ZN16BVPressureAction11validParamsEv
FN:36,_ZN16BVPressureActionC2ERK15InputParameters
FN:39,_ZN16BVPressureAction3actEv
FNDA:7,_ZN16BVPressureActionC2ERK15InputParameters
FNDA:9,_ZN16BVPressureAction11validParamsEv
FNDA:7,_ZN16BVPressureAction3actEv
FNF:3
FNH:3
DA:22,9
DA:24,9
DA:25,9
DA:26,18
DA:28,18
DA:31,18
DA:32,18
DA:33,9
DA:34,0
DA:36,7
DA:39,7
DA:41,7
DA:44,14
DA:47,27
DA:50,60
DA:52,20
DA:53,20
DA:54,20
DA:55,20
DA:56,20
DA:58,20
DA:59,20
DA:60,14
LF:23
LH:22
end_of_record
TN:
SF:/home/runner/work/beaver/beaver/src/actions/BVShearTractionAction.C
FN:22,_ZN21BVShearTractionAction11validParamsEv
FN:37,_ZN21BVShearTractionActionC2ERK15InputParameters
FN:40,_ZN21BVShearTractionAction3actEv
FNDA:0,_ZN21BVShearTractionAction3actEv
FNDA:2,_ZN21BVShearTractionAction11validParamsEv
FNDA:0,_ZN21BVShearTractionActionC2ERK15InputParameters
FNF:3
FNH:1
DA:22,2
DA:24,2
DA:25,2
DA:26,4
DA:29,4
DA:32,4
DA:33,4
DA:34,2
DA:35,0
DA:37,0
DA:40,0
DA:42,0
DA:45,0
DA:48,0
DA:51,0
DA:53,0
DA:54,0
DA:55,0
DA:56,0
DA:57,0
DA:59,0
DA:60,0
DA:61,0
LF:23
LH:8
end_of_record
TN:
SF:/home/runner/work/beaver/beaver/src/auxkernels/BVDarcyVelocityAux.C
FN:21,_ZN18BVDarcyVelocityAux11validParamsEv
FN:32,_ZN18BVDarcyVelocityAuxC2ERK15InputParameters
FN:45,_ZN18BVDarcyVelocityAux12computeValueEv
FNDA:41590,_ZN18BVDarcyVelocityAux12computeValueEv
FNDA:8,_ZN18BVDarcyVelocityAuxC2ERK15InputParameters
FNDA:144,_ZN18BVDarcyVelocityAux11validParamsEv
FNF:3
FNH:3
DA:21,144
DA:23,144
DA:24,144
DA:25,288
DA:26,288
DA:28,288
DA:29,144
DA:30,144
DA:32,8
DA:34,8
DA:35,16
DA:36,8
DA:37,8
DA:38,24
DA:40,8
DA:41,0
DA:42,8
DA:45,41590
DA:47,41590
DA:48,41590
DA:50,41590
LF:21
LH:20
end_of_record
TN:
SF:/home/runner/work/beaver/beaver/src/auxkernels/BVEqvStrainAux.C
FN:20,_ZN14BVEqvStrainAux11validParamsEv
FN:27,_ZN14BVEqvStrainAuxC2ERK15InputParameters
FN:33,_ZN14BVEqvStrainAux12computeValueEv
FNDA:2,_ZN14BVEqvStrainAuxC2ERK15InputParameters
FNDA:132,_ZN14BVEqvStrainAux11validParamsEv
FNDA:20480,_ZN14BVEqvStrainAux12computeValueEv
FNF:3
FNH:3
DA:20,132
DA:22,132
DA:23,132
DA:24,132
DA:25,0
DA:27,2
DA:28,2
DA:30,2
DA:33,20480
DA:35,20480
DA:36,20480
LF:11
LH:10
end_of_record
TN:
SF:/home/runner/work/beaver/beaver/src/auxkernels/BVEqvStrainRateAux.C
FN:20,_ZN18BVEqvStrainRateAux11validParamsEv
FN:27,_ZN18BVEqvStrainRateAuxC2ERK15InputParameters
FN:33,_ZN18BVEqvStrainRateAux12computeValueEv
FNDA:2,_ZN18BVEqvStrainRateAuxC2ERK15InputParameters
FNDA:20480,_ZN18BVEqvStrainRateAux12computeValueEv
FNDA:132,_ZN18BVEqvStrainRateAux11validParamsEv
FNF:3
FNH:3
DA:20,132
DA:22,132
DA:23,132
DA:24,132
DA:25,0
DA:27,2
DA:28,2
DA:30,2
DA:33,20480
DA:35,20480
DA:36,20480
LF:11
LH:10
end_of_record
TN:
SF:/home/runner/work/beaver/beaver/src/auxkernels/BVMisesStressAux.C
FN:20,_ZN16BVMisesStressAux11validParamsEv
FN:27,_ZN16BVMisesStressAuxC2ERK15InputParameters
FN:32,_ZN16BVMisesStressAux12computeValueEv
FNDA:134,_ZN16BVMisesStressAux11validParamsEv
FNDA:23552,_ZN16BVMisesStressAux12computeValueEv
FNDA:3,_ZN16BVMisesStressAuxC2ERK15InputParameters
FNF:3
FNH:3
DA:20,134
DA:22,134
DA:23,134
DA:24,134
DA:25,0
DA:27,3
DA:29,3
DA:32,23552
DA:34,23552
DA:35,23552
LF:10
LH:9
end_of_record
TN:
SF:/home/runner/work/beaver/beaver/src/auxkernels/BVPressureAux.C
FN:20,_ZN13BVPressureAux11validParamsEv
FN:27,_ZN13BVPressureAuxC2ERK15InputParameters
FN:30,_ZN13BVPressureAux12computeValueEv
FNDA:1,_ZN13BVPressureAuxC2ERK15InputParameters
FNDA:3072,_ZN13BVPressureAux12computeValueEv
FNDA:130,_ZN13BVPressureAux11validParamsEv
FNF:3
FNH:3
DA:20,130
DA:22,130
DA:23,130
DA:24,130
DA:25,0
DA:27,1
DA:30,3072
DA:32,3072
LF:8
LH:7
end_of_record
TN:
SF:/home/runner/work/beaver/beaver/src/auxkernels/BVStrainAuxBase.C
FN:17,_ZN15BVStrainAuxBase11validParamsEv
FN:24,_ZN15BVStrainAuxBaseC2ERK15InputParameters
FNDA:404,_ZN15BVStrainAuxBase11validParamsEv
FNDA:10,_ZN15BVStrainAuxBaseC2ERK15InputParameters
FNF:2
FNH:2
DA:17,404
DA:19,404
DA:20,404
DA:21,404
DA:22,0
DA:24,10
DA:26,20
DA:28,10
LF:8
LH:7
end_of_record
TN:
SF:/home/runner/work/beaver/beaver/src/auxkernels/BVStrainComponentAux.C
FN:20,_ZN20BVStrainComponentAux11validParamsEv
FN:32,_ZN20BVStrainComponentAuxC2ERK15InputParameters
FN:41,_ZN20BVStrainComponentAux12computeValueEv
FNDA:6,_ZN20BVStrainComponentAuxC2ERK15InputParameters
FNDA:45056,_ZN20BVStrainComponentAux12computeValueEv
FNDA:140,_ZN20BVStrainComponentAux11validParamsEv
FNF:3
FNH:3
DA:20,140
DA:22,140
DA:23,140
DA:24,280
DA:25,280
DA:27,280
DA:29,140
DA:30,140
DA:32,6
DA:34,12
DA:35,12
DA:36,18
DA:38,6
DA:41,45056
DA:43,45056
LF:15
LH:15
end_of_record
TN:
SF:/home/runner/work/beaver/beaver/src/auxkernels/BVStressAuxBase.C
FN:17,_ZN15BVStressAuxBase11validParamsEv
FN:24,_ZN15BVStressAuxBaseC2ERK15InputParameters
FNDA:406,_ZN15BVStressAuxBase11validParamsEv
FNDA:11,_ZN15BVStressAuxBaseC2ERK15InputParameters
FNF:2
FNH:2
DA:17,406
DA:19,406
DA:20,406
DA:21,406
DA:22,0
DA:24,11
DA:25,22
DA:27,11
LF:8
LH:7
end_of_record
TN:
SF:/home/runner/work/beaver/beaver/src/auxkernels/BVStressComponentAux.C
FN:20,_ZN20BVStressComponentAux11validParamsEv
FN:32,_ZN20BVStressComponentAuxC2ERK15InputParameters
FN:40,_ZN20BVStressComponentAux12computeValueEv
FNDA:25112,_ZN20BVStressComponentAux12computeValueEv
FNDA:7,_ZN20BVStressComponentAuxC2ERK15InputParameters
FNDA:142,_ZN20BVStressComponentAux11validParamsEv
FNF:3
FNH:3
DA:20,142
DA:22,142
DA:23,142
DA:24,284
DA:25,284
DA:27,284
DA:29,142
DA:30,142
DA:32,7
DA:34,7
DA:35,21
DA:37,7
DA:40,25112
DA:42,25112
LF:14
LH:14
end_of_record
TN:
SF:/home/runner/work/beaver/beaver/src/base/BeaverApp.C
FN:8,_ZN9BeaverApp11validParamsEv
FN:18,_ZN9BeaverAppC2E15InputParameters
FN:23,_ZN9BeaverAppD2Ev
FN:23,_ZN9BeaverAppD0Ev
FN:26,_ZN9BeaverApp11registerAllER7FactoryR13ActionFactoryR6Syntax
FN:40,_ZN9BeaverApp12registerAppsEv
FN:49,BeaverApp__registerAll
FN:54,BeaverApp__registerApps
FNDA:0,BeaverApp__registerAll
FNDA:0,_ZN9BeaverApp12registerAppsEv
FNDA:0,_ZN9BeaverAppD2Ev
FNDA:0,BeaverApp__registerApps
FNDA:0,_ZN9BeaverAppD0Ev
FNDA:20,_ZN9BeaverApp11registerAllER7FactoryR13ActionFactoryR6Syntax
FNDA:20,_ZN9BeaverApp11validParamsEv
FNDA:0,_ZN9BeaverAppC2E15InputParameters
FNF:8
FNH:2
DA:8,20
DA:10,20
DA:13,20
DA:15,20
DA:16,0
DA:18,0
DA:20,0
DA:21,0
DA:23,0
DA:26,20
DA:29,60
DA:30,60
DA:33,40
DA:34,40
DA:35,40
DA:36,40
DA:37,80
DA:40,0
DA:42,0
DA:43,0
DA:49,0
DA:51,0
DA:52,0
DA:54,0
DA:56,0
DA:57,0
LF:26
LH:12
end_of_record
TN:
SF:/home/runner/work/beaver/beaver/src/bcs/BVPressureBC.C
FN:20,_ZN12BVPressureBC11validParamsEv
FN:31,_ZN12BVPressureBCC2ERK15InputParameters
FN:42,_ZN12BVPressureBC17computeQpResidualEv
FNDA:473088,_ZN12BVPressureBC17computeQpResidualEv
FNDA:168,_ZN12BVPressureBC11validParamsEv
FNDA:20,_ZN12BVPressureBCC2ERK15InputParameters
FNF:3
FNH:3
DA:20,168
DA:22,168
DA:23,168
DA:24,336
DA:25,336
DA:26,336
DA:27,168
DA:28,168
DA:29,0
DA:31,20
DA:33,20
DA:34,40
DA:35,60
DA:37,20
DA:38,0
DA:39,20
DA:42,473088
DA:44,473088
DA:46,473088
DA:47,0
DA:49,473088
LF:21
LH:18
end_of_record
TN:
SF:/home/runner/work/beaver/beaver/src/bcs/BVShearTractionBC.C
FN:20,_ZN17BVShearTractionBC11validParamsEv
FN:31,_ZN17BVShearTractionBCC2ERK15InputParameters
FN:42,_ZN17BVShearTractionBC17computeQpResidualEv
FNDA:0,_ZN17BVShearTractionBC17computeQpResidualEv
FNDA:0,_ZN17BVShearTractionBCC2ERK15InputParameters
FNDA:128,_ZN17BVShearTractionBC11validParamsEv
FNF:3
FNH:1
DA:20,128
DA:22,128
DA:23,128
DA:24,256
DA:25,256
DA:26,256
DA:27,128
DA:28,128
DA:29,0
DA:31,0
DA:33,0
DA:34,0
DA:35,0
DA:37,0
DA:38,0
DA:39,0
DA:42,0
DA:45,0
DA:47,0
DA:49,0
DA:50,0
DA:52,0
LF:22
LH:8
end_of_record
TN:
SF:/home/runner/work/beaver/beaver/src/fvkernels/BVFVMultiPhasePressureDarcy.C
FN:19,_ZN27BVFVMultiPhasePressureDarcy11validParamsEv
FN:28,_ZN27BVFVMultiPhasePressureDarcyC2ERK15InputParameters
FN:39,_ZN27BVFVMultiPhasePressureDarcy17computeQpResidualEv
FNDA:128,_ZN27BVFVMultiPhasePressureDarcy11validParamsEv
FNDA:0,_ZN27BVFVMultiPhasePressureDarcy17computeQpResidualEv
FNDA:0,_ZN27BVFVMultiPhasePressureDarcyC2ERK15InputParameters
FNF:3
FNH:1
DA:19,128
DA:21,128
DA:22,128
DA:24,128
DA:25,128
DA:26,0
DA:28,0
DA:30,0
DA:31,0
DA:33,0
DA:34,0
DA:35,0
DA:36,0
DA:39,0
DA:42,0
DA:44,0
LF:16
LH:5
end_of_record
TN:
SF:/home/runner/work/beaver/beaver/src/fvkernels/BVFVMultiPhasePressureTimeDerivative.C
FN:19,_ZN36BVFVMultiPhasePressureTimeDerivative11validParamsEv
FN:28,_ZN36BVFVMultiPhasePressureTimeDerivativeC2ERK15InputParameters
FN:41,_ZN36BVFVMultiPhasePressureTimeDerivative17computeQpResidualEv
FNDA:128,_ZN36BVFVMultiPhasePressureTimeDerivative11validParamsEv
FNDA:0,_ZN36BVFVMultiPhasePressureTimeDerivativeC2ERK15InputParameters
FNDA:0,_ZN36BVFVMultiPhasePressureTimeDerivative17computeQpResidualEv
FNF:3
FNH:1
DA:19,128
DA:21,128
DA:22,128
DA:23,256
DA:24,256
DA:25,128
DA:26,0
DA:28,0
DA:30,0
DA:31,0
DA:32,0
DA:33,0
DA:34,0
DA:35,0
DA:36,0
DA:38,0
DA:41,0
DA:43,0
DA:44,0
DA:45,0
DA:46,0
LF:21
LH:6
end_of_record
TN:
SF:/home/runner/work/beaver/beaver/src/fvkernels/BVFVMultiPhaseSaturationDarcy.C
FN:19,_ZN29BVFVMultiPhaseSaturationDarcy11validParamsEv
FN:30,_ZN29BVFVMultiPhaseSaturationDarcyC2ERK15InputParameters
FN:49,_ZN29BVFVMultiPhaseSaturationDarcy17computeQpResidualEv
FNDA:0,_ZN29BVFVMultiPhaseSaturationDarcy17computeQpResidualEv
FNDA:128,_ZN29BVFVMultiPhaseSaturationDarcy11validParamsEv
FNDA:0,_ZN29BVFVMultiPhaseSaturationDarcyC2ERK15InputParameters
FNF:3
FNH:1
DA:19,128
DA:21,128
DA:22,128
DA:23,256
DA:24,256
DA:26,256
DA:27,128
DA:28,128
DA:30,0
DA:32,0
DA:33,0
DA:34,0
DA:35,0
DA:36,0
DA:37,0
DA:38,0
DA:39,0
DA:40,0
DA:41,0
DA:43,0
DA:44,0
DA:45,0
DA:46,0
DA:49,0
DA:52,0
DA:56,0
DA:58,0
DA:59,0
DA:60,0
DA:61,0
DA:62,0
DA:63,0
DA:64,0
DA:65,0
DA:69,0
DA:71,0
LF:36
LH:8
end_of_record
TN:
SF:/home/runner/work/beaver/beaver/src/fvkernels/BVFVMultiPhaseSaturationTimeDerivative.C
FN:19,_ZN38BVFVMultiPhaseSaturationTimeDerivative11validParamsEv
FN:29,_ZN38BVFVMultiPhaseSaturationTimeDerivativeC2ERK15InputParameters
FN:40,_ZN38BVFVMultiPhaseSaturationTimeDerivative9phase_extB5cxx11Ev
FN:54,_ZN38BVFVMultiPhaseSaturationTimeDerivative17computeQpResidualEv
FNDA:128,_ZN38BVFVMultiPhaseSaturationTimeDerivative11validParamsEv
FNDA:0,_ZN38BVFVMultiPhaseSaturationTimeDerivative9phase_extB5cxx11Ev
FNDA:0,_ZN38BVFVMultiPhaseSaturationTimeDerivative17computeQpResidualEv
FNDA:0,_ZN38BVFVMultiPhaseSaturationTimeDerivativeC2ERK15InputParameters
FNF:4
FNH:1
DA:19,128
DA:21,128
DA:22,128
DA:23,256
DA:24,256
DA:26,128
DA:27,128
DA:29,0
DA:31,0
DA:32,0
DA:33,0
DA:34,0
DA:35,0
DA:37,0
DA:40,0
DA:42,0
DA:45,0
DA:47,0
DA:48,0
DA:49,0
DA:54,0
DA:56,0
DA:57,0
LF:23
LH:7
end_of_record
TN:
SF:/home/runner/work/beaver/beaver/src/fvkernels/BVFVSinglePhaseDarcy.C
FN:19,_ZN20BVFVSinglePhaseDarcy11validParamsEv
FN:28,_ZN20BVFVSinglePhaseDarcyC2ERK15InputParameters
FN:39,_ZN20BVFVSinglePhaseDarcy17computeQpResidualEv
FNDA:134,_ZN20BVFVSinglePhaseDarcy11validParamsEv
FNDA:27135,_ZN20BVFVSinglePhaseDarcy17computeQpResidualEv
FNDA:3,_ZN20BVFVSinglePhaseDarcyC2ERK15InputParameters
FNF:3
FNH:3
DA:19,134
DA:21,134
DA:22,134
DA:24,134
DA:25,134
DA:26,0
DA:28,3
DA:30,3
DA:31,9
DA:33,3
DA:34,0
DA:35,0
DA:36,3
DA:39,27135
DA:42,27135
DA:43,27135
LF:16
LH:13
end_of_record
TN:
SF:/home/runner/work/beaver/beaver/src/fvkernels/BVFVSinglePhaseSoluteDarcy.C
FN:19,_ZN26BVFVSinglePhaseSoluteDarcy11validParamsEv
FN:28,_ZN26BVFVSinglePhaseSoluteDarcyC2ERK15InputParameters
FN:39,_ZN26BVFVSinglePhaseSoluteDarcy17computeQpResidualEv
FNDA:0,_ZN26BVFVSinglePhaseSoluteDarcy17computeQpResidualEv
FNDA:128,_ZN26BVFVSinglePhaseSoluteDarcy11validParamsEv
FNDA:0,_ZN26BVFVSinglePhaseSoluteDarcyC2ERK15InputParameters
FNF:3
FNH:1
DA:19,128
DA:21,128
DA:22,128
DA:24,256
DA:25,128
DA:26,0
DA:28,0
DA:30,0
DA:31,0
DA:32,0
DA:33,0
DA:34,0
DA:36,0
DA:39,0
DA:43,0
DA:46,0
DA:49,0
DA:51,0
LF:18
LH:5
end_of_record
TN:
SF:/home/runner/work/beaver/beaver/src/fvkernels/BVFVSinglePhaseSoluteTimeDerivative.C
FN:19,_ZN35BVFVSinglePhaseSoluteTimeDerivative11validParamsEv
FN:27,_ZN35BVFVSinglePhaseSoluteTimeDerivativeC2ERK15InputParameters
FN:34,_ZN35BVFVSinglePhaseSoluteTimeDerivative17computeQpResidualEv
FNDA:0,_ZN35BVFVSinglePhaseSoluteTimeDerivative17computeQpResidualEv
FNDA:0,_ZN35BVFVSinglePhaseSoluteTimeDerivativeC2ERK15InputParameters
FNDA:128,_ZN35BVFVSinglePhaseSoluteTimeDerivative11validParamsEv
FNF:3
FNH:1
DA:19,128
DA:21,128
DA:22,128
DA:24,128
DA:25,0
DA:27,0
DA:28,0
DA:29,0
DA:31,0
DA:34,0
DA:36,0
LF:11
LH:4
end_of_record
TN:
SF:/home/runner/work/beaver/beaver/src/fvkernels/BVFVSinglePhaseTimeDerivative.C
FN:19,_ZN29BVFVSinglePhaseTimeDerivative11validParamsEv
FN:26,_ZN29BVFVSinglePhaseTimeDerivativeC2ERK15InputParameters
FN:38,_ZN29BVFVSinglePhaseTimeDerivative17computeQpResidualEv
FNDA:130,_ZN29BVFVSinglePhaseTimeDerivative11validParamsEv
FNDA:1,_ZN29BVFVSinglePhaseTimeDerivativeC2ERK15InputParameters
FNDA:2050,_ZN29BVFVSinglePhaseTimeDerivative17computeQpResidualEv
FNF:3
FNH:3
DA:19,130
DA:21,130
DA:22,130
DA:23,130
DA:24,0
DA:26,1
DA:28,1
DA:29,2
DA:30,2
DA:31,1
DA:32,1
DA:33,2
DA:35,1
DA:38,2050
DA:41,2050
DA:44,2050
DA:45,0
DA:47,2050
LF:18
LH:16
end_of_record
TN:
SF:/home/runner/work/beaver/beaver/src/fvkernels/BVTwoPointFluxApproximationBase.C
FN:17,_ZN31BVTwoPointFluxApproximationBase11validParamsEv
FN:24,_ZN31BVTwoPointFluxApproximationBaseC2ERK15InputParameters
FN:30,_ZNK31BVTwoPointFluxApproximationBase16transmissibilityERKN11MetaPhysicL10DualNumberIdNS0_28SemiDynamicSparseNumberArrayIdmNS0_8NWrapperILm64EEEEELb1EEES8_
FN:58,_ZNK31BVTwoPointFluxApproximationBase13diffusiveFluxERKN11MetaPhysicL10DualNumberIdNS0_28SemiDynamicSparseNumberArrayIdmNS0_8NWrapperILm64EEEEELb1EEES8_RK15MooseVariableFVIdE
FN:68,_ZNK31BVTwoPointFluxApproximationBase21advectiveFluxVariableERKN7libMesh11VectorValueIN11MetaPhysicL10DualNumberIdNS2_28SemiDynamicSparseNumberArrayIdmNS2_8NWrapperILm64EEEEELb1EEEEE
FN:79,_ZNK31BVTwoPointFluxApproximationBase21advectiveFluxMaterialERKN11MetaPhysicL10DualNumberIdNS0_28SemiDynamicSparseNumberArrayIdmNS0_8NWrapperILm64EEEEELb1EEES8_RKN7libMesh11VectorValueIS6_EE
FNDA:27135,_ZNK31BVTwoPointFluxApproximationBase16transmissibilityERKN11MetaPhysicL10DualNumberIdNS0_28SemiDynamicSparseNumberArrayIdmNS0_8NWrapperILm64EEEEELb1EEES8_
FNDA:3,_ZN31BVTwoPointFluxApproximationBaseC2ERK15InputParameters
FNDA:0,_ZNK31BVTwoPointFluxApproximationBase21advectiveFluxMaterialERKN11MetaPhysicL10DualNumberIdNS0_28SemiDynamicSparseNumberArrayIdmNS0_8NWrapperILm64EEEEELb1EEES8_RKN7libMesh11VectorValueIS6_EE
FNDA:27135,_ZNK31BVTwoPointFluxApproximationBase13diffusiveFluxERKN11MetaPhysicL10DualNumberIdNS0_28SemiDynamicSparseNumberArrayIdmNS0_8NWrapperILm64EEEEELb1EEES8_RK15MooseVariableFVIdE
FNDA:518,_ZN31BVTwoPointFluxApproximationBase11validParamsEv
FNDA:0,_ZNK31BVTwoPointFluxApproximationBase21advectiveFluxVariableERKN7libMesh11VectorValueIN11MetaPhysicL10DualNumberIdNS2_28SemiDynamicSparseNumberArrayIdmNS2_8NWrapperILm64EEEEELb1EEEEE
FNF:6
FNH:4
DA:17,518
DA:19,518
DA:20,518
DA:21,518
DA:22,0
DA:24,3
DA:25,3
DA:27,3
DA:30,27135
DA:35,27135
DA:39,26545
DA:40,0
DA:42,26545
DA:46,26545
DA:52,590
DA:54,27135
DA:58,27135
DA:62,27135
DA:64,27135
DA:68,0
DA:70,0
DA:71,0
DA:72,0
DA:73,0
DA:75,0
DA:79,0
DA:85,0
DA:86,0
DA:87,0
DA:89,0
DA:91,0
LF:31
LH:17
end_of_record
TN:
SF:/home/runner/work/beaver/beaver/src/kernels/BVSinglePhaseDarcy.C
FN:19,_ZN18BVSinglePhaseDarcy11validParamsEv
FN:27,_ZN18BVSinglePhaseDarcyC2ERK15InputParameters
FN:33,_ZN18BVSinglePhaseDarcy20precomputeQpResidualEv
FNDA:5,_ZN18BVSinglePhaseDarcyC2ERK15InputParameters
FNDA:431960,_ZN18BVSinglePhaseDarcy20precomputeQpResidualEv
FNDA:138,_ZN18BVSinglePhaseDarcy11validParamsEv
FNF:3
FNH:3
DA:19,138
DA:21,138
DA:22,138
DA:24,138
DA:25,0
DA:27,5
DA:28,10
DA:30,5
DA:33,431960
DA:35,431960
LF:10
LH:9
end_of_record
TN:
SF:/home/runner/work/beaver/beaver/src/kernels/BVSinglePhaseTimeDerivative.C
FN:19,_ZN27BVSinglePhaseTimeDerivative11validParamsEv
FN:26,_ZN27BVSinglePhaseTimeDerivativeC2ERK15InputParameters
FN:38,_ZN27BVSinglePhaseTimeDerivative20precomputeQpResidualEv
FNDA:361400,_ZN27BVSinglePhaseTimeDerivative20precomputeQpResidualEv
FNDA:3,_ZN27BVSinglePhaseTimeDerivativeC2ERK15InputParameters
FNDA:134,_ZN27BVSinglePhaseTimeDerivative11validParamsEv
FNF:3
FNH:3
DA:19,134
DA:21,134
DA:22,134
DA:23,134
DA:24,0
DA:26,3
DA:28,3
DA:29,6
DA:30,6
DA:31,3
DA:32,5
DA:33,8
DA:35,3
DA:38,361400
DA:41,361400
DA:44,361400
DA:45,527600
DA:47,361400
LF:18
LH:17
end_of_record
TN:
SF:/home/runner/work/beaver/beaver/src/kernels/BVStressDivergence.C
FN:19,_ZN18BVStressDivergence11validParamsEv
FN:36,_ZN18BVStressDivergenceC2ERK15InputParameters
FN:49,_ZN18BVStressDivergence17computeQpResidualEv
FNDA:9240896,_ZN18BVStressDivergence17computeQpResidualEv
FNDA:190,_ZN18BVStressDivergence11validParamsEv
FNDA:31,_ZN18BVStressDivergenceC2ERK15InputParameters
FNF:3
FNH:3
DA:19,190
DA:21,190
DA:22,190
DA:23,380
DA:24,190
DA:25,380
DA:26,380
DA:33,190
DA:34,190
DA:36,31
DA:38,31
DA:39,31
DA:40,62
DA:43,62
DA:44,66
DA:46,31
DA:49,9240896
DA:53,9240896
DA:54,9240896
DA:55,4220800
DA:57,9240896
LF:21
LH:21
end_of_record
TN:
SF:/home/runner/work/beaver/beaver/src/main.C
FN:21,main
FNDA:20,main
FNF:1
FNH:1
DA:21,20
DA:24,20
DA:27,20
DA:30,40
DA:33,20
LF:5
LH:5
end_of_record
TN:
SF:/home/runner/work/beaver/beaver/src/materials/BVBurgerModelUpdate.C
FN:19,_ZN19BVBurgerModelUpdate11validParamsEv
FN:30,_ZN19BVBurgerModelUpdateC2ERK15InputParameters
FN:42,_ZN19BVBurgerModelUpdate24initQpStatefulPropertiesEv
FN:48,_ZN19BVBurgerModelUpdate9creepRateERKN11MetaPhysicL10DualNumberIdNS0_28SemiDynamicSparseNumberArrayIdmNS0_8NWrapperILm64EEEEELb1EEE
FN:54,_ZN19BVBurgerModelUpdate16creepRateMaxwellERKN11MetaPhysicL10DualNumberIdNS0_28SemiDynamicSparseNumberArrayIdmNS0_8NWrapperILm64EEEEELb1EEE
FN:60,_ZN19BVBurgerModelUpdate15creepRateKelvinERKN11MetaPhysicL10DualNumberIdNS0_28SemiDynamicSparseNumberArrayIdmNS0_8NWrapperILm64EEEEELb1EEE
FN:68,_ZN19BVBurgerModelUpdate19creepRateDerivativeERKN11MetaPhysicL10DualNumberIdNS0_28SemiDynamicSparseNumberArrayIdmNS0_8NWrapperILm64EEEEELb1EEE
FN:74,_ZN19BVBurgerModelUpdate26creepRateMaxwellDerivativeERKN11MetaPhysicL10DualNumberIdNS0_28SemiDynamicSparseNumberArrayIdmNS0_8NWrapperILm64EEEEELb1EEE
FN:81,_ZN19BVBurgerModelUpdate25creepRateKelvinDerivativeERKN11MetaPhysicL10DualNumberIdNS0_28SemiDynamicSparseNumberArrayIdmNS0_8NWrapperILm64EEEEELb1EEE
FN:94,_ZN19BVBurgerModelUpdate16viscosityMaxwellERKN11MetaPhysicL10DualNumberIdNS0_28SemiDynamicSparseNumberArrayIdmNS0_8NWrapperILm64EEEEELb1EEE
FN:100,_ZN19BVBurgerModelUpdate15viscosityKelvinERKN11MetaPhysicL10DualNumberIdNS0_28SemiDynamicSparseNumberArrayIdmNS0_8NWrapperILm64EEEEELb1EEE
FN:107,_ZN19BVBurgerModelUpdate26viscosityMaxwellDerivativeERKN11MetaPhysicL10DualNumberIdNS0_28SemiDynamicSparseNumberArrayIdmNS0_8NWrapperILm64EEEEELb1EEE
FN:113,_ZN19BVBurgerModelUpdate25viscosityKelvinDerivativeERKN11MetaPhysicL10DualNumberIdNS0_28SemiDynamicSparseNumberArrayIdmNS0_8NWrapperILm64EEEEELb1EEE
FN:119,_ZN19BVBurgerModelUpdate18shearModulusKelvinERKN11MetaPhysicL10DualNumberIdNS0_28SemiDynamicSparseNumberArrayIdmNS0_8NWrapperILm64EEEEELb1EEE
FN:125,_ZN19BVBurgerModelUpdate28shearModulusKelvinDerivativeERKN11MetaPhysicL10DualNumberIdNS0_28SemiDynamicSparseNumberArrayIdmNS0_8NWrapperILm64EEEEELb1EEE
FN:131,_ZN19BVBurgerModelUpdate12preReturnMapEv
FN:137,_ZN19BVBurgerModelUpdate13postReturnMapERKN11MetaPhysicL10DualNumberIdNS0_28SemiDynamicSparseNumberArrayIdmNS0_8NWrapperILm64EEEEELb1EEE
FNDA:181760,_ZN19BVBurgerModelUpdate12preReturnMapEv
FNDA:158720,_ZN19BVBurgerModelUpdate25viscosityKelvinDerivativeERKN11MetaPhysicL10DualNumberIdNS0_28SemiDynamicSparseNumberArrayIdmNS0_8NWrapperILm64EEEEELb1EEE
FNDA:4608,_ZN19BVBurgerModelUpdate24initQpStatefulPropertiesEv
FNDA:264,_ZN19BVBurgerModelUpdate11validParamsEv
FNDA:1080320,_ZN19BVBurgerModelUpdate19creepRateDerivativeERKN11MetaPhysicL10DualNumberIdNS0_28SemiDynamicSparseNumberArrayIdmNS0_8NWrapperILm64EEEEELb1EEE
FNDA:158720,_ZN19BVBurgerModelUpdate28shearModulusKelvinDerivativeERKN11MetaPhysicL10DualNumberIdNS0_28SemiDynamicSparseNumberArrayIdmNS0_8NWrapperILm64EEEEELb1EEE
FNDA:1262080,_ZN19BVBurgerModelUpdate9creepRateERKN11MetaPhysicL10DualNumberIdNS0_28SemiDynamicSparseNumberArrayIdmNS0_8NWrapperILm64EEEEELb1EEE
FNDA:1262080,_ZN19BVBurgerModelUpdate16creepRateMaxwellERKN11MetaPhysicL10DualNumberIdNS0_28SemiDynamicSparseNumberArrayIdmNS0_8NWrapperILm64EEEEELb1EEE
FNDA:1443840,_ZN19BVBurgerModelUpdate15creepRateKelvinERKN11MetaPhysicL10DualNumberIdNS0_28SemiDynamicSparseNumberArrayIdmNS0_8NWrapperILm64EEEEELb1EEE
FNDA:1080320,_ZN19BVBurgerModelUpdate26creepRateMaxwellDerivativeERKN11MetaPhysicL10DualNumberIdNS0_28SemiDynamicSparseNumberArrayIdmNS0_8NWrapperILm64EEEEELb1EEE
FNDA:158720,_ZN19BVBurgerModelUpdate26viscosityMaxwellDerivativeERKN11MetaPhysicL10DualNumberIdNS0_28SemiDynamicSparseNumberArrayIdmNS0_8NWrapperILm64EEEEELb1EEE
FNDA:555520,_ZN19BVBurgerModelUpdate16viscosityMaxwellERKN11MetaPhysicL10DualNumberIdNS0_28SemiDynamicSparseNumberArrayIdmNS0_8NWrapperILm64EEEEELb1EEE
FNDA:1269760,_ZN19BVBurgerModelUpdate18shearModulusKelvinERKN11MetaPhysicL10DualNumberIdNS0_28SemiDynamicSparseNumberArrayIdmNS0_8NWrapperILm64EEEEELb1EEE
FNDA:1745920,_ZN19BVBurgerModelUpdate15viscosityKelvinERKN11MetaPhysicL10DualNumberIdNS0_28SemiDynamicSparseNumberArrayIdmNS0_8NWrapperILm64EEEEELb1EEE
FNDA:181760,_ZN19BVBurgerModelUpdate13postReturnMapERKN11MetaPhysicL10DualNumberIdNS0_28SemiDynamicSparseNumberArrayIdmNS0_8NWrapperILm64EEEEELb1EEE
FNDA:6,_ZN19BVBurgerModelUpdateC2ERK15InputParameters
FNDA:1080320,_ZN19BVBurgerModelUpdate25creepRateKelvinDerivativeERKN11MetaPhysicL10DualNumberIdNS0_28SemiDynamicSparseNumberArrayIdmNS0_8NWrapperILm64EEEEELb1EEE
FNF:17
FNH:17
DA:19,264
DA:21,264
DA:22,264
DA:23,528
DA:24,528
DA:25,528
DA:27,264
DA:28,0
DA:30,6
DA:32,6
DA:33,12
DA:34,12
DA:36,6
DA:37,18
DA:39,6
DA:42,4608
DA:44,4608
DA:45,4608
DA:48,1262080
DA:50,1262080
DA:54,1262080
DA:56,1262080
DA:60,1443840
DA:62,1443840
DA:63,1443840
DA:64,4331520
DA:68,1080320
DA:70,1080320
DA:74,1080320
DA:76,2160640
DA:77,2160640
DA:81,1080320
DA:83,1080320
DA:84,1080320
DA:85,1080320
DA:86,1080320
DA:87,1080320
DA:88,1080320
DA:89,2160640
DA:90,4321280
DA:94,555520
DA:96,555520
DA:100,1745920
DA:102,1745920
DA:107,158720
DA:109,158720
DA:113,158720
DA:115,158720
DA:119,1269760
DA:121,1269760
DA:125,158720
DA:127,158720
DA:131,181760
DA:133,181760
DA:134,181760
DA:137,181760
DA:139,545280
DA:140,181760
LF:58
LH:57
end_of_record
TN:
SF:/home/runner/work/beaver/beaver/src/materials/BVCapillaryPressureBase.C
FN:17,_ZN23BVCapillaryPressureBase11validParamsEv
FN:25,_ZN23BVCapillaryPressureBaseC2ERK15InputParameters
FNDA:0,_ZN23BVCapillaryPressureBaseC2ERK15InputParameters
FNDA:128,_ZN23BVCapillaryPressureBase11validParamsEv
FNF:2
FNH:1
DA:17,128
DA:19,128
DA:20,128
DA:21,256
DA:22,128
DA:23,0
DA:25,0
DA:27,0
DA:28,0
DA:29,0
DA:31,0
LF:11
LH:5
end_of_record
TN:
SF:/home/runner/work/beaver/beaver/src/materials/BVCapillaryPressurePowerLaw.C
FN:19,_ZN27BVCapillaryPressurePowerLaw11validParamsEv
FN:28,_ZN27BVCapillaryPressurePowerLawC2ERK15InputParameters
FN:36,_ZN27BVCapillaryPressurePowerLaw19computeQpPropertiesEv
FNDA:0,_ZN27BVCapillaryPressurePowerLawC2ERK15InputParameters
FNDA:0,_ZN27BVCapillaryPressurePowerLaw19computeQpPropertiesEv
FNDA:128,_ZN27BVCapillaryPressurePowerLaw11validParamsEv
FNF:3
FNH:1
DA:19,128
DA:21,128
DA:22,128
DA:23,256
DA:24,256
DA:25,128
DA:26,0
DA:28,0
DA:30,0
DA:31,0
DA:33,0
DA:36,0
DA:39,0
DA:40,0
DA:41,0
LF:15
LH:6
end_of_record
TN:
SF:/home/runner/work/beaver/beaver/src/materials/BVConstantDispersion.C
FN:19,_ZN20BVConstantDispersion11validParamsEv
FN:28,_ZN20BVConstantDispersionC2ERK15InputParameters
FN:34,_ZN20BVConstantDispersion19computeQpPropertiesEv
FNDA:0,_ZN20BVConstantDispersionC2ERK15InputParameters
FNDA:128,_ZN20BVConstantDispersion11validParamsEv
FNDA:0,_ZN20BVConstantDispersion19computeQpPropertiesEv
FNF:3
FNH:1
DA:19,128
DA:21,128
DA:22,128
DA:23,256
DA:25,128
DA:26,0
DA:28,0
DA:29,0
DA:31,0
DA:34,0
DA:36,0
DA:37,0
LF:12
LH:5
end_of_record
TN:
SF:/home/runner/work/beaver/beaver/src/materials/BVConstantPermeability.C
FN:19,_ZN22BVConstantPermeability11validParamsEv
FN:28,_ZN22BVConstantPermeabilityC2ERK15InputParameters
FN:34,_ZN22BVConstantPermeability19computeQpPropertiesEv
FNDA:168,_ZN22BVConstantPermeability11validParamsEv
FNDA:30,_ZN22BVConstantPermeabilityC2ERK15InputParameters
FNDA:558536,_ZN22BVConstantPermeability19computeQpPropertiesEv
FNF:3
FNH:3
DA:19,168
DA:21,168
DA:22,168
DA:23,336
DA:25,168
DA:26,0
DA:28,30
DA:29,60
DA:31,30
DA:34,558536
DA:36,558536
DA:37,558536
LF:12
LH:11
end_of_record
TN:
SF:/home/runner/work/beaver/beaver/src/materials/BVConstantPorosity.C
FN:19,_ZN18BVConstantPorosity11validParamsEv
FN:28,_ZN18BVConstantPorosityC2ERK15InputParameters
FN:34,_ZN18BVConstantPorosity24initQpStatefulPropertiesEv
FN:40,_ZN18BVConstantPorosity19computeQpPropertiesEv
FNDA:0,_ZN18BVConstantPorosity24initQpStatefulPropertiesEv
FNDA:12,_ZN18BVConstantPorosityC2ERK15InputParameters
FNDA:412606,_ZN18BVConstantPorosity19computeQpPropertiesEv
FNDA:144,_ZN18BVConstantPorosity11validParamsEv
FNF:4
FNH:3
DA:19,144
DA:21,144
DA:22,144
DA:23,288
DA:25,144
DA:26,0
DA:28,12
DA:29,24
DA:31,12
DA:34,0
DA:36,0
DA:37,0
DA:40,412606
DA:42,412606
DA:43,412606
LF:15
LH:11
end_of_record
TN:
SF:/home/runner/work/beaver/beaver/src/materials/BVCreepUpdateBase.C
FN:18,_ZN17BVCreepUpdateBase11validParamsEv
FN:30,_ZN17BVCreepUpdateBaseC2ERK15InputParameters
FN:38,_ZN17BVCreepUpdateBase15inelasticUpdateER18RankTwoTensorTemplIN11MetaPhysicL10DualNumberIdNS1_28SemiDynamicSparseNumberArrayIdmNS1_8NWrapperILm64EEEEELb1EEEERK19RankFourTensorTemplIdE
FN:71,_ZN17BVCreepUpdateBase9returnMapEv
FN:98,_ZN17BVCreepUpdateBase8residualERKN11MetaPhysicL10DualNumberIdNS0_28SemiDynamicSparseNumberArrayIdmNS0_8NWrapperILm64EEEEELb1EEE
FN:104,_ZN17BVCreepUpdateBase8jacobianERKN11MetaPhysicL10DualNumberIdNS0_28SemiDynamicSparseNumberArrayIdmNS0_8NWrapperILm64EEEEELb1EEE
FN:110,_ZN17BVCreepUpdateBase25reformPlasticStrainTensorERKN11MetaPhysicL10DualNumberIdNS0_28SemiDynamicSparseNumberArrayIdmNS0_8NWrapperILm64EEEEELb1EEE
FN:119,_ZN17BVCreepUpdateBase12preReturnMapEv
FN:124,_ZN17BVCreepUpdateBase13postReturnMapERKN11MetaPhysicL10DualNumberIdNS0_28SemiDynamicSparseNumberArrayIdmNS0_8NWrapperILm64EEEEELb1EEE
FNDA:1386496,_ZN17BVCreepUpdateBase8jacobianERKN11MetaPhysicL10DualNumberIdNS0_28SemiDynamicSparseNumberArrayIdmNS0_8NWrapperILm64EEEEELb1EEE
FNDA:12,_ZN17BVCreepUpdateBaseC2ERK15InputParameters
FNDA:528,_ZN17BVCreepUpdateBase11validParamsEv
FNDA:334848,_ZN17BVCreepUpdateBase9returnMapEv
FNDA:1386496,_ZN17BVCreepUpdateBase8residualERKN11MetaPhysicL10DualNumberIdNS0_28SemiDynamicSparseNumberArrayIdmNS0_8NWrapperILm64EEEEELb1EEE
FNDA:334848,_ZN17BVCreepUpdateBase25reformPlasticStrainTensorERKN11MetaPhysicL10DualNumberIdNS0_28SemiDynamicSparseNumberArrayIdmNS0_8NWrapperILm64EEEEELb1EEE
FNDA:73728,_ZN17BVCreepUpdateBase12preReturnMapEv
FNDA:334848,_ZN17BVCreepUpdateBase15inelasticUpdateER18RankTwoTensorTemplIN11MetaPhysicL10DualNumberIdNS1_28SemiDynamicSparseNumberArrayIdmNS1_8NWrapperILm64EEEEELb1EEEERK19RankFourTensorTemplIdE
FNDA:73728,_ZN17BVCreepUpdateBase13postReturnMapERKN11MetaPhysicL10DualNumberIdNS0_28SemiDynamicSparseNumberArrayIdmNS0_8NWrapperILm64EEEEELb1EEE
FNF:9
FNH:9
DA:18,528
DA:20,528
DA:21,528
DA:22,1056
DA:27,528
DA:28,0
DA:30,12
DA:32,12
DA:33,24
DA:35,12
DA:38,334848
DA:49,334848
DA:51,669696
DA:53,334848
DA:56,334848
DA:59,334848
DA:62,334848
DA:65,334848
DA:66,669696
DA:67,334848
DA:68,334848
DA:71,334848
DA:74,334848
DA:77,334848
DA:79,334848
DA:80,334848
DA:83,1051648
DA:85,1051648
DA:87,1051648
DA:88,1051648
DA:91,3202048
DA:92,334848
DA:94,0
DA:98,1386496
DA:100,4159488
DA:104,1386496
DA:106,2772992
DA:110,334848
DA:113,334848
DA:115,669696
DA:119,73728
DA:121,73728
DA:124,73728
DA:126,73728
LF:44
LH:42
end_of_record
TN:
SF:/home/runner/work/beaver/beaver/src/materials/BVDispersionBase.C
FN:17,_ZN16BVDispersionBase11validParamsEv
FN:25,_ZN16BVDispersionBaseC2ERK15InputParameters
FNDA:0,_ZN16BVDispersionBaseC2ERK15InputParameters
FNDA:128,_ZN16BVDispersionBase11validParamsEv
FNF:2
FNH:1
DA:17,128
DA:19,128
DA:20,128
DA:22,128
DA:23,0
DA:25,0
DA:26,0
DA:28,0
LF:8
LH:4
end_of_record
TN:
SF:/home/runner/work/beaver/beaver/src/materials/BVFluidProperties.C
FN:19,_ZN17BVFluidProperties11validParamsEv
FN:34,_ZN17BVFluidPropertiesC2ERK15InputParameters
FN:47,_ZN17BVFluidProperties9phase_extB5cxx11Ev
FN:63,_ZN17BVFluidProperties24initQpStatefulPropertiesEv
FN:70,_ZN17BVFluidProperties19computeQpPropertiesEv
FNDA:3508,_ZN17BVFluidProperties24initQpStatefulPropertiesEv
FNDA:160,_ZN17BVFluidProperties11validParamsEv
FNDA:24,_ZN17BVFluidPropertiesC2ERK15InputParameters
FNDA:558536,_ZN17BVFluidProperties19computeQpPropertiesEv
FNDA:24,_ZN17BVFluidProperties9phase_extB5cxx11Ev
FNF:5
FNH:5
DA:19,160
DA:21,160
DA:22,160
DA:24,320
DA:25,320
DA:26,320
DA:28,320
DA:29,320
DA:31,160
DA:32,160
DA:34,24
DA:36,24
DA:37,24
DA:38,48
DA:39,24
DA:40,24
DA:41,24
DA:42,48
DA:44,24
DA:47,24
DA:49,24
DA:52,0
DA:54,0
DA:56,24
DA:57,0
DA:58,0
DA:63,3508
DA:65,3508
DA:66,3508
DA:67,3508
DA:70,558536
DA:72,558536
DA:73,558536
DA:74,558536
LF:34
LH:30
end_of_record
TN:
SF:/home/runner/work/beaver/beaver/src/materials/BVInelasticUpdateBase.C
FN:17,_ZN21BVInelasticUpdateBase11validParamsEv
FN:41,_ZN21BVInelasticUpdateBaseC2ERK15InputParameters
FN:50,_ZN21BVInelasticUpdateBase5setQpEj
FNDA:334848,_ZN21BVInelasticUpdateBase5setQpEj
FNDA:12,_ZN21BVInelasticUpdateBaseC2ERK15InputParameters
FNDA:528,_ZN21BVInelasticUpdateBase11validParamsEv
FNF:3
FNH:3
DA:17,528
DA:19,528
DA:20,528
DA:22,1584
DA:23,1056
DA:26,1584
DA:27,1056
DA:30,1584
DA:32,1056
DA:36,528
DA:37,528
DA:38,528
DA:39,0
DA:41,12
DA:43,12
DA:44,24
DA:45,36
DA:47,12
DA:50,334848
DA:52,334848
DA:53,334848
LF:21
LH:20
end_of_record
TN:
SF:/home/runner/work/beaver/beaver/src/materials/BVKelvinViscoelasticUpdate.C
FN:19,_ZN26BVKelvinViscoelasticUpdate11validParamsEv
FN:29,_ZN26BVKelvinViscoelasticUpdateC2ERK15InputParameters
FN:40,_ZN26BVKelvinViscoelasticUpdate24initQpStatefulPropertiesEv
FN:46,_ZN26BVKelvinViscoelasticUpdate9creepRateERKN11MetaPhysicL10DualNumberIdNS0_28SemiDynamicSparseNumberArrayIdmNS0_8NWrapperILm64EEEEELb1EEE
FN:54,_ZN26BVKelvinViscoelasticUpdate19creepRateDerivativeERKN11MetaPhysicL10DualNumberIdNS0_28SemiDynamicSparseNumberArrayIdmNS0_8NWrapperILm64EEEEELb1EEE
FN:67,_ZN26BVKelvinViscoelasticUpdate9viscosityERKN11MetaPhysicL10DualNumberIdNS0_28SemiDynamicSparseNumberArrayIdmNS0_8NWrapperILm64EEEEELb1EEE
FN:73,_ZN26BVKelvinViscoelasticUpdate19viscosityDerivativeERKN11MetaPhysicL10DualNumberIdNS0_28SemiDynamicSparseNumberArrayIdmNS0_8NWrapperILm64EEEEELb1EEE
FN:79,_ZN26BVKelvinViscoelasticUpdate12shearModulusERKN11MetaPhysicL10DualNumberIdNS0_28SemiDynamicSparseNumberArrayIdmNS0_8NWrapperILm64EEEEELb1EEE
FN:85,_ZN26BVKelvinViscoelasticUpdate22shearModulusDerivativeERKN11MetaPhysicL10DualNumberIdNS0_28SemiDynamicSparseNumberArrayIdmNS0_8NWrapperILm64EEEEELb1EEE
FN:91,_ZN26BVKelvinViscoelasticUpdate12preReturnMapEv
FN:97,_ZN26BVKelvinViscoelasticUpdate13postReturnMapERKN11MetaPhysicL10DualNumberIdNS0_28SemiDynamicSparseNumberArrayIdmNS0_8NWrapperILm64EEEEELb1EEE
FNDA:158720,_ZN26BVKelvinViscoelasticUpdate19creepRateDerivativeERKN11MetaPhysicL10DualNumberIdNS0_28SemiDynamicSparseNumberArrayIdmNS0_8NWrapperILm64EEEEELb1EEE
FNDA:132,_ZN26BVKelvinViscoelasticUpdate11validParamsEv
FNDA:158720,_ZN26BVKelvinViscoelasticUpdate19viscosityDerivativeERKN11MetaPhysicL10DualNumberIdNS0_28SemiDynamicSparseNumberArrayIdmNS0_8NWrapperILm64EEEEELb1EEE
FNDA:3,_ZN26BVKelvinViscoelasticUpdateC2ERK15InputParameters
FNDA:158720,_ZN26BVKelvinViscoelasticUpdate22shearModulusDerivativeERKN11MetaPhysicL10DualNumberIdNS0_28SemiDynamicSparseNumberArrayIdmNS0_8NWrapperILm64EEEEELb1EEE
FNDA:317440,_ZN26BVKelvinViscoelasticUpdate9creepRateERKN11MetaPhysicL10DualNumberIdNS0_28SemiDynamicSparseNumberArrayIdmNS0_8NWrapperILm64EEEEELb1EEE
FNDA:79360,_ZN26BVKelvinViscoelasticUpdate13postReturnMapERKN11MetaPhysicL10DualNumberIdNS0_28SemiDynamicSparseNumberArrayIdmNS0_8NWrapperILm64EEEEELb1EEE
FNDA:1745920,_ZN26BVKelvinViscoelasticUpdate9viscosityERKN11MetaPhysicL10DualNumberIdNS0_28SemiDynamicSparseNumberArrayIdmNS0_8NWrapperILm64EEEEELb1EEE
FNDA:2304,_ZN26BVKelvinViscoelasticUpdate24initQpStatefulPropertiesEv
FNDA:79360,_ZN26BVKelvinViscoelasticUpdate12preReturnMapEv
FNDA:1269760,_ZN26BVKelvinViscoelasticUpdate12shearModulusERKN11MetaPhysicL10DualNumberIdNS0_28SemiDynamicSparseNumberArrayIdmNS0_8NWrapperILm64EEEEELb1EEE
FNF:11
FNH:11
DA:19,132
DA:21,132
DA:22,132
DA:23,264
DA:24,264
DA:26,132
DA:27,0
DA:29,3
DA:31,3
DA:32,6
DA:34,3
DA:35,9
DA:37,3
DA:40,2304
DA:42,2304
DA:43,2304
DA:46,317440
DA:48,317440
DA:49,317440
DA:50,952320
DA:54,158720
DA:56,158720
DA:57,158720
DA:58,158720
DA:59,158720
DA:60,158720
DA:61,158720
DA:62,317440
DA:63,634880
DA:67,1745920
DA:69,1745920
DA:73,158720
DA:75,158720
DA:79,1269760
DA:81,1269760
DA:85,158720
DA:87,158720
DA:91,79360
DA:93,79360
DA:94,79360
DA:97,79360
DA:99,238080
DA:100,79360
LF:43
LH:42
end_of_record
TN:
SF:/home/runner/work/beaver/beaver/src/materials/BVLubby2ModelUpdate.C
FN:19,_ZN19BVLubby2ModelUpdate11validParamsEv
FN:30,_ZN19BVLubby2ModelUpdateC2ERK15InputParameters
FN:40,_ZN19BVLubby2ModelUpdate16viscosityMaxwellERKN11MetaPhysicL10DualNumberIdNS0_28SemiDynamicSparseNumberArrayIdmNS0_8NWrapperILm64EEEEELb1EEE
FN:46,_ZN19BVLubby2ModelUpdate15viscosityKelvinERKN11MetaPhysicL10DualNumberIdNS0_28SemiDynamicSparseNumberArrayIdmNS0_8NWrapperILm64EEEEELb1EEE
FN:53,_ZN19BVLubby2ModelUpdate26viscosityMaxwellDerivativeERKN11MetaPhysicL10DualNumberIdNS0_28SemiDynamicSparseNumberArrayIdmNS0_8NWrapperILm64EEEEELb1EEE
FN:59,_ZN19BVLubby2ModelUpdate25viscosityKelvinDerivativeERKN11MetaPhysicL10DualNumberIdNS0_28SemiDynamicSparseNumberArrayIdmNS0_8NWrapperILm64EEEEELb1EEE
FN:65,_ZN19BVLubby2ModelUpdate18shearModulusKelvinERKN11MetaPhysicL10DualNumberIdNS0_28SemiDynamicSparseNumberArrayIdmNS0_8NWrapperILm64EEEEELb1EEE
FN:71,_ZN19BVLubby2ModelUpdate28shearModulusKelvinDerivativeERKN11MetaPhysicL10DualNumberIdNS0_28SemiDynamicSparseNumberArrayIdmNS0_8NWrapperILm64EEEEELb1EEE
FNDA:6860800,_ZN19BVLubby2ModelUpdate18shearModulusKelvinERKN11MetaPhysicL10DualNumberIdNS0_28SemiDynamicSparseNumberArrayIdmNS0_8NWrapperILm64EEEEELb1EEE
FNDA:3788800,_ZN19BVLubby2ModelUpdate16viscosityMaxwellERKN11MetaPhysicL10DualNumberIdNS0_28SemiDynamicSparseNumberArrayIdmNS0_8NWrapperILm64EEEEELb1EEE
FNDA:8908800,_ZN19BVLubby2ModelUpdate15viscosityKelvinERKN11MetaPhysicL10DualNumberIdNS0_28SemiDynamicSparseNumberArrayIdmNS0_8NWrapperILm64EEEEELb1EEE
FNDA:132,_ZN19BVLubby2ModelUpdate11validParamsEv
FNDA:921600,_ZN19BVLubby2ModelUpdate26viscosityMaxwellDerivativeERKN11MetaPhysicL10DualNumberIdNS0_28SemiDynamicSparseNumberArrayIdmNS0_8NWrapperILm64EEEEELb1EEE
FNDA:921600,_ZN19BVLubby2ModelUpdate28shearModulusKelvinDerivativeERKN11MetaPhysicL10DualNumberIdNS0_28SemiDynamicSparseNumberArrayIdmNS0_8NWrapperILm64EEEEELb1EEE
FNDA:3,_ZN19BVLubby2ModelUpdateC2ERK15InputParameters
FNDA:921600,_ZN19BVLubby2ModelUpdate25viscosityKelvinDerivativeERKN11MetaPhysicL10DualNumberIdNS0_28SemiDynamicSparseNumberArrayIdmNS0_8NWrapperILm64EEEEELb1EEE
FNF:8
FNH:8
DA:19,132
DA:21,132
DA:22,132
DA:23,264
DA:24,264
DA:25,264
DA:26,264
DA:27,132
DA:28,0
DA:30,3
DA:32,3
DA:33,6
DA:34,6
DA:35,9
DA:37,3
DA:40,3788800
DA:42,7577600
DA:46,8908800
DA:48,17817600
DA:53,921600
DA:55,921600
DA:59,921600
DA:61,921600
DA:65,6860800
DA:67,13721600
DA:71,921600
DA:73,921600
LF:27
LH:26
end_of_record
TN:
SF:/home/runner/work/beaver/beaver/src/materials/BVMaxwellViscoelasticUpdate.C
FN:19,_ZN27BVMaxwellViscoelasticUpdate11validParamsEv
FN:27,_ZN27BVMaxwellViscoelasticUpdateC2ERK15InputParameters
FN:33,_ZN27BVMaxwellViscoelasticUpdate9creepRateERKN11MetaPhysicL10DualNumberIdNS0_28SemiDynamicSparseNumberArrayIdmNS0_8NWrapperILm64EEEEELb1EEE
FN:39,_ZN27BVMaxwellViscoelasticUpdate19creepRateDerivativeERKN11MetaPhysicL10DualNumberIdNS0_28SemiDynamicSparseNumberArrayIdmNS0_8NWrapperILm64EEEEELb1EEE
FN:46,_ZN27BVMaxwellViscoelasticUpdate9viscosityERKN11MetaPhysicL10DualNumberIdNS0_28SemiDynamicSparseNumberArrayIdmNS0_8NWrapperILm64EEEEELb1EEE
FN:52,_ZN27BVMaxwellViscoelasticUpdate19viscosityDerivativeERKN11MetaPhysicL10DualNumberIdNS0_28SemiDynamicSparseNumberArrayIdmNS0_8NWrapperILm64EEEEELb1EEE
FNDA:147456,_ZN27BVMaxwellViscoelasticUpdate19creepRateDerivativeERKN11MetaPhysicL10DualNumberIdNS0_28SemiDynamicSparseNumberArrayIdmNS0_8NWrapperILm64EEEEELb1EEE
FNDA:147456,_ZN27BVMaxwellViscoelasticUpdate19viscosityDerivativeERKN11MetaPhysicL10DualNumberIdNS0_28SemiDynamicSparseNumberArrayIdmNS0_8NWrapperILm64EEEEELb1EEE
FNDA:221184,_ZN27BVMaxwellViscoelasticUpdate9creepRateERKN11MetaPhysicL10DualNumberIdNS0_28SemiDynamicSparseNumberArrayIdmNS0_8NWrapperILm64EEEEELb1EEE
FNDA:3,_ZN27BVMaxwellViscoelasticUpdateC2ERK15InputParameters
FNDA:516096,_ZN27BVMaxwellViscoelasticUpdate9viscosityERKN11MetaPhysicL10DualNumberIdNS0_28SemiDynamicSparseNumberArrayIdmNS0_8NWrapperILm64EEEEELb1EEE
FNDA:132,_ZN27BVMaxwellViscoelasticUpdate11validParamsEv
FNF:6
FNH:6
DA:19,132
DA:21,132
DA:22,132
DA:23,264
DA:24,132
DA:25,0
DA:27,3
DA:28,6
DA:30,3
DA:33,221184
DA:35,221184
DA:39,147456
DA:41,294912
DA:42,294912
DA:46,516096
DA:48,516096
DA:52,147456
DA:54,147456
LF:18
LH:17
end_of_record
TN:
SF:/home/runner/work/beaver/beaver/src/materials/BVMechanicalMaterial.C
FN:20,_ZN20BVMechanicalMaterial11validParamsEv
FN:55,_ZN20BVMechanicalMaterialC2ERK15InputParameters
FN:78,_ZN20BVMechanicalMaterial12initialSetupEv
FN:107,_ZN20BVMechanicalMaterial23elasticModuliInputCheckEv
FN:136,_ZN20BVMechanicalMaterial26displacementIntegrityCheckEv
FN:146,_ZN20BVMechanicalMaterial25initializeInelasticModelsEv
FN:167,_ZN20BVMechanicalMaterial23initializeInitialStressEv
FN:184,_ZN20BVMechanicalMaterial24initQpStatefulPropertiesEv
FN:199,_ZN20BVMechanicalMaterial19computeQpPropertiesEv
FN:207,_ZN20BVMechanicalMaterial24computeQpStrainIncrementEv
FN:228,_ZN20BVMechanicalMaterial20computeQpSmallStrainERK18RankTwoTensorTemplIN11MetaPhysicL10DualNumberIdNS1_28SemiDynamicSparseNumberArrayIdmNS1_8NWrapperILm64EEEEELb1EEEERKS0_IdE
FN:238,_ZN20BVMechanicalMaterial21computeQpFiniteStrainERK18RankTwoTensorTemplIN11MetaPhysicL10DualNumberIdNS1_28SemiDynamicSparseNumberArrayIdmNS1_8NWrapperILm64EEEEELb1EEEERKS0_IdE
FN:255,_ZN20BVMechanicalMaterial25computeQpElasticityTensorEv
FN:265,_ZN20BVMechanicalMaterial15computeQpStressEv
FN:282,_ZN20BVMechanicalMaterial12spinRotationERK18RankTwoTensorTemplIN11MetaPhysicL10DualNumberIdNS1_28SemiDynamicSparseNumberArrayIdmNS1_8NWrapperILm64EEEEELb1EEEE
FNDA:33,_ZN20BVMechanicalMaterialC2ERK15InputParameters
FNDA:31,_ZN20BVMechanicalMaterial12initialSetupEv
FNDA:660484,_ZN20BVMechanicalMaterial24computeQpStrainIncrementEv
FNDA:30,_ZN20BVMechanicalMaterial26displacementIntegrityCheckEv
FNDA:30,_ZN20BVMechanicalMaterial23initializeInitialStressEv
FNDA:660484,_ZN20BVMechanicalMaterial19computeQpPropertiesEv
FNDA:660484,_ZN20BVMechanicalMaterial15computeQpStressEv
FNDA:31,_ZN20BVMechanicalMaterial23elasticModuliInputCheckEv
FNDA:172,_ZN20BVMechanicalMaterial11validParamsEv
FNDA:30,_ZN20BVMechanicalMaterial25initializeInelasticModelsEv
FNDA:15540,_ZN20BVMechanicalMaterial24initQpStatefulPropertiesEv
FNDA:0,_ZN20BVMechanicalMaterial21computeQpFiniteStrainERK18RankTwoTensorTemplIN11MetaPhysicL10DualNumberIdNS1_28SemiDynamicSparseNumberArrayIdmNS1_8NWrapperILm64EEEEELb1EEEERKS0_IdE
FNDA:660484,_ZN20BVMechanicalMaterial25computeQpElasticityTensorEv
FNDA:660484,_ZN20BVMechanicalMaterial20computeQpSmallStrainERK18RankTwoTensorTemplIN11MetaPhysicL10DualNumberIdNS1_28SemiDynamicSparseNumberArrayIdmNS1_8NWrapperILm64EEEEELb1EEEERKS0_IdE
FNDA:660484,_ZN20BVMechanicalMaterial12spinRotationERK18RankTwoTensorTemplIN11MetaPhysicL10DualNumberIdNS1_28SemiDynamicSparseNumberArrayIdmNS1_8NWrapperILm64EEEEELb1EEEE
FNF:15
FNH:14
DA:20,172
DA:22,172
DA:23,172
DA:25,344
DA:29,344
DA:30,344
DA:33,344
DA:35,344
DA:37,344
DA:39,344
DA:42,344
DA:45,344
DA:51,172
DA:52,172
DA:53,172
DA:55,33
DA:58,33
DA:59,33
DA:60,33
DA:62,66
DA:64,33
DA:65,33
DA:67,33
DA:69,33
DA:70,99
DA:72,66
DA:73,0
DA:75,33
DA:78,31
DA:80,31
DA:82,30
DA:84,30
DA:86,30
DA:89,114
DA:91,84
DA:92,84
DA:93,84
DA:95,0
DA:99,36
DA:101,6
DA:102,6
DA:104,30
DA:107,31
DA:109,104
DA:111,36
DA:112,36
DA:114,44
DA:116,18
DA:117,18
DA:119,9
DA:120,9
DA:122,14
DA:124,6
DA:126,6
DA:127,3
DA:130,1
DA:133,30
DA:136,30
DA:139,30
DA:140,0
DA:143,30
DA:146,30
DA:148,90
DA:149,30
DA:150,30
DA:151,30
DA:153,24
DA:156,12
DA:158,12
DA:159,12
DA:161,0
DA:164,30
DA:167,30
DA:169,90
DA:170,30
DA:171,30
DA:172,0
DA:174,30
DA:176,12
DA:178,48
DA:179,36
DA:181,30
DA:184,15540
DA:186,15540
DA:187,15540
DA:188,15540
DA:190,10112
DA:191,40448
DA:192,30336
DA:193,10112
DA:195,15540
DA:196,15540
DA:199,660484
DA:201,660484
DA:202,660484
DA:203,660484
DA:204,660484
DA:207,660484
DA:210,660484
DA:212,660484
DA:214,660484
DA:216,660484
DA:217,660484
DA:219,0
DA:220,0
DA:222,0
DA:223,0
DA:225,660484
DA:228,660484
DA:231,660484
DA:233,1320968
DA:234,1320968
DA:235,660484
DA:238,0
DA:242,0
DA:243,0
DA:244,0
DA:247,0
DA:248,0
DA:250,0
DA:251,0
DA:252,0
DA:255,660484
DA:258,660484
DA:261,660484
DA:262,660484
DA:265,660484
DA:268,1320968
DA:271,660484
DA:273,669696
DA:275,334848
DA:276,334848
DA:279,660484
DA:282,660484
DA:284,660484
DA:285,1320968
LF:136
LH:118
end_of_record
TN:
SF:/home/runner/work/beaver/beaver/src/materials/BVMultiPhaseFlowMaterial.C
FN:19,_ZN24BVMultiPhaseFlowMaterial11validParamsEv
FN:26,_ZN24BVMultiPhaseFlowMaterialC2ERK15InputParameters
FN:42,_ZN24BVMultiPhaseFlowMaterial19computeQpPropertiesEv
FNDA:128,_ZN24BVMultiPhaseFlowMaterial11validParamsEv
FNDA:0,_ZN24BVMultiPhaseFlowMaterialC2ERK15InputParameters
FNDA:0,_ZN24BVMultiPhaseFlowMaterial19computeQpPropertiesEv
FNF:3
FNH:1
DA:19,128
DA:21,128
DA:22,128
DA:23,128
DA:24,0
DA:26,0
DA:28,0
DA:29,0
DA:30,0
DA:31,0
DA:32,0
DA:33,0
DA:34,0
DA:35,0
DA:36,0
DA:37,0
DA:39,0
DA:42,0
DA:45,0
DA:46,0
DA:47,0
DA:50,0
DA:51,0
DA:54,0
DA:55,0
LF:25
LH:4
end_of_record
TN:
SF:/home/runner/work/beaver/beaver/src/materials/BVPermeabilityBase.C
FN:17,_ZN18BVPermeabilityBase11validParamsEv
FN:25,_ZN18BVPermeabilityBaseC2ERK15InputParameters
FNDA:168,_ZN18BVPermeabilityBase11validParamsEv
FNDA:30,_ZN18BVPermeabilityBaseC2ERK15InputParameters
FNF:2
FNH:2
DA:17,168
DA:19,168
DA:20,168
DA:22,168
DA:23,0
DA:25,30
DA:26,30
DA:28,30
LF:8
LH:7
end_of_record
TN:
SF:/home/runner/work/beaver/beaver/src/materials/BVPoroMechanicsMaterial.C
FN:19,_ZN23BVPoroMechanicsMaterial11validParamsEv
FN:32,_ZN23BVPoroMechanicsMaterialC2ERK15InputParameters
FN:50,_ZN23BVPoroMechanicsMaterial19computeQpPropertiesEv
FNDA:284156,_ZN23BVPoroMechanicsMaterial19computeQpPropertiesEv
FNDA:136,_ZN23BVPoroMechanicsMaterial11validParamsEv
FNDA:6,_ZN23BVPoroMechanicsMaterialC2ERK15InputParameters
FNF:3
FNH:3
DA:19,136
DA:21,136
DA:22,136
DA:25,408
DA:26,272
DA:29,136
DA:30,0
DA:32,6
DA:35,6
DA:37,12
DA:39,12
DA:41,12
DA:43,6
DA:44,6
DA:45,12
DA:47,6
DA:50,284156
DA:53,284156
DA:56,284156
DA:59,568312
DA:62,568312
DA:63,284156
LF:22
LH:21
end_of_record
TN:
SF:/home/runner/work/beaver/beaver/src/materials/BVPorosityBase.C
FN:17,_ZN14BVPorosityBase11validParamsEv
FN:25,_ZN14BVPorosityBaseC2ERK15InputParameters
FNDA:12,_ZN14BVPorosityBaseC2ERK15InputParameters
FNDA:144,_ZN14BVPorosityBase11validParamsEv
FNF:2
FNH:2
DA:17,144
DA:19,144
DA:20,144
DA:22,144
DA:23,0
DA:25,12
DA:26,12
DA:28,12
LF:8
LH:7
end_of_record
TN:
SF:/home/runner/work/beaver/beaver/src/materials/BVRelaticePermeabilityBase.C
FN:17,_ZN26BVRelativePermeabilityBase11validParamsEv
FN:25,_ZN26BVRelativePermeabilityBaseC2ERK15InputParameters
FNDA:128,_ZN26BVRelativePermeabilityBase11validParamsEv
FNDA:0,_ZN26BVRelativePermeabilityBaseC2ERK15InputParameters
FNF:2
FNH:1
DA:17,128
DA:19,128
DA:20,128
DA:21,256
DA:22,128
DA:23,0
DA:25,0
DA:27,0
DA:28,0
DA:29,0
DA:33,0
LF:11
LH:5
end_of_record
TN:
SF:/home/runner/work/beaver/beaver/src/materials/BVRelativePermeabilityPowerLaw.C
FN:19,_ZN30BVRelativePermeabilityPowerLaw11validParamsEv
FN:27,_ZN30BVRelativePermeabilityPowerLawC2ERK15InputParameters
FN:34,_ZN30BVRelativePermeabilityPowerLaw19computeQpPropertiesEv
FNDA:0,_ZN30BVRelativePermeabilityPowerLawC2ERK15InputParameters
FNDA:128,_ZN30BVRelativePermeabilityPowerLaw11validParamsEv
FNDA:0,_ZN30BVRelativePermeabilityPowerLaw19computeQpPropertiesEv
FNF:3
FNH:1
DA:19,128
DA:21,128
DA:22,128
DA:23,256
DA:24,128
DA:25,0
DA:27,0
DA:29,0
DA:31,0
DA:34,0
DA:37,0
DA:40,0
DA:42,0
LF:13
LH:5
end_of_record
TN:
SF:/home/runner/work/beaver/beaver/src/materials/BVSinglePhaseFlowMaterial.C
FN:19,_ZN25BVSinglePhaseFlowMaterial11validParamsEv
FN:27,_ZN25BVSinglePhaseFlowMaterialC2ERK15InputParameters
FN:36,_ZN25BVSinglePhaseFlowMaterial19computeQpPropertiesEv
FNDA:558536,_ZN25BVSinglePhaseFlowMaterial19computeQpPropertiesEv
FNDA:160,_ZN25BVSinglePhaseFlowMaterial11validParamsEv
FNDA:24,_ZN25BVSinglePhaseFlowMaterialC2ERK15InputParameters
FNF:3
FNH:3
DA:19,160
DA:21,160
DA:22,160
DA:24,160
DA:25,0
DA:27,24
DA:29,24
DA:30,48
DA:31,48
DA:33,24
DA:36,558536
DA:39,1117072
DA:40,558536
LF:13
LH:12
end_of_record
TN:
SF:/home/runner/work/beaver/beaver/src/materials/BVSinglePhaseFlowSoluteMaterial.C
FN:19,_ZN31BVSinglePhaseFlowSoluteMaterial11validParamsEv
FN:27,_ZN31BVSinglePhaseFlowSoluteMaterialC2ERK15InputParameters
FN:36,_ZN31BVSinglePhaseFlowSoluteMaterial19computeQpPropertiesEv
FNDA:0,_ZN31BVSinglePhaseFlowSoluteMaterialC2ERK15InputParameters
FNDA:0,_ZN31BVSinglePhaseFlowSoluteMaterial19computeQpPropertiesEv
FNDA:128,_ZN31BVSinglePhaseFlowSoluteMaterial11validParamsEv
FNF:3
FNH:1
DA:19,128
DA:21,128
DA:22,128
DA:24,128
DA:25,0
DA:27,0
DA:29,0
DA:30,0
DA:31,0
DA:33,0
DA:36,0
DA:39,0
DA:40,0
LF:13
LH:4
end_of_record
TN:
SF:/usr/share/miniconda3/envs/moose/lib/gcc/x86_64-conda-linux-gnu/12.3.0/include/c++/array
FNF:0
FNH:0
DA:61,0
DA:284,209857008
DA:289,348501712
LF:3
LH:2
end_of_record
TN:
SF:/usr/share/miniconda3/envs/moose/lib/gcc/x86_64-conda-linux-gnu/12.3.0/include/c++/bits/alloc_traits.h
FNF:0
FNH:0
DA:464,11821
DA:496,11606
DA:520,40
DA:635,0
LF:4
LH:3
end_of_record
TN:
SF:/usr/share/miniconda3/envs/moose/lib/gcc/x86_64-conda-linux-gnu/12.3.0/include/c++/bits/allocated_ptr.h
FN:71,_ZNSt15__allocated_ptrISaISt23_Sp_counted_ptr_inplaceI13RegistryEntryI12BVPressureBCESaIvELN9__gnu_cxx12_Lock_policyE2EEEED2Ev
FN:71,_ZNSt15__allocated_ptrISaISt23_Sp_counted_ptr_inplaceI13RegistryEntryI35BVFVSinglePhaseSoluteTimeDerivativeESaIvELN9__gnu_cxx12_Lock_policyE2EEEED2Ev
FN:71,_ZNSt15__allocated_ptrISaISt23_Sp_counted_ptr_inplaceI13RegistryEntryI26BVKelvinViscoelasticUpdateESaIvELN9__gnu_cxx12_Lock_policyE2EEEED2Ev
FN:71,_ZNSt15__allocated_ptrISaISt23_Sp_counted_ptr_inplaceI13RegistryEntryI18BVDarcyVelocityAuxESaIvELN9__gnu_cxx12_Lock_policyE2EEEED2Ev
FN:71,_ZNSt15__allocated_ptrISaISt23_Sp_counted_ptr_inplaceI13RegistryEntryI18BVStressDivergenceESaIvELN9__gnu_cxx12_Lock_policyE2EEEED2Ev
FN:71,_ZNSt15__allocated_ptrISaISt23_Sp_counted_ptr_inplaceI13RegistryEntryI17BVShearTractionBCESaIvELN9__gnu_cxx12_Lock_policyE2EEEED2Ev
FN:71,_ZNSt15__allocated_ptrISaISt23_Sp_counted_ptr_inplaceI21BVShearTractionActionSaIvELN9__gnu_cxx12_Lock_policyE2EEEED2Ev
FN:71,_ZNSt15__allocated_ptrISaISt23_Sp_counted_ptr_inplaceISt5mutexSaIvELN9__gnu_cxx12_Lock_policyE2EEEED2Ev
FN:71,_ZNSt15__allocated_ptrISaISt23_Sp_counted_ptr_inplaceI13RegistryEntryI14BVEqvStrainAuxESaIvELN9__gnu_cxx12_Lock_policyE2EEEED2Ev
FN:71,_ZNSt15__allocated_ptrISaISt23_Sp_counted_ptr_inplaceI13RegistryEntryI16BVMisesStressAuxESaIvELN9__gnu_cxx12_Lock_policyE2EEEED2Ev
FN:71,_ZNSt15__allocated_ptrISaISt23_Sp_counted_ptr_inplaceI13RegistryEntryI26BVFVSinglePhaseSoluteDarcyESaIvELN9__gnu_cxx12_Lock_policyE2EEEED2Ev
FN:71,_ZNSt15__allocated_ptrISaISt23_Sp_counted_ptr_inplaceI13RegistryEntryI23BVPoroMechanicsMaterialESaIvELN9__gnu_cxx12_Lock_policyE2EEEED2Ev
FN:71,_ZNSt15__allocated_ptrISaISt23_Sp_counted_ptr_inplaceI13RegistryEntryI20BVMechanicalMaterialESaIvELN9__gnu_cxx12_Lock_policyE2EEEED2Ev
FN:71,_ZNSt15__allocated_ptrISaISt23_Sp_counted_ptr_inplaceI13RegistryEntryI18BVSinglePhaseDarcyESaIvELN9__gnu_cxx12_Lock_policyE2EEEED2Ev
FN:71,_ZNSt15__allocated_ptrISaISt23_Sp_counted_ptr_inplaceI13RegistryEntryI18BVEqvStrainRateAuxESaIvELN9__gnu_cxx12_Lock_policyE2EEEED2Ev
FN:71,_ZNSt15__allocated_ptrISaISt23_Sp_counted_ptr_inplaceI13RegistryEntryI27BVSinglePhaseTimeDerivativeESaIvELN9__gnu_cxx12_Lock_policyE2EEEED2Ev
FN:71,_ZNSt15__allocated_ptrISaISt23_Sp_counted_ptr_inplaceINSt13__future_base13_State_baseV2ESaIvELN9__gnu_cxx12_Lock_policyE2EEEED2Ev
FN:71,_ZNSt15__allocated_ptrISaISt23_Sp_counted_ptr_inplaceI13RegistryEntryI20BVConstantDispersionESaIvELN9__gnu_cxx12_Lock_policyE2EEEED2Ev
FN:71,_ZNSt15__allocated_ptrISaISt23_Sp_counted_ptr_inplaceI9BeaverAppSaIvELN9__gnu_cxx12_Lock_policyE2EEEED2Ev
FN:71,_ZNSt15__allocated_ptrISaISt23_Sp_counted_ptr_inplaceI13RegistryEntryI25BVSinglePhaseFlowMaterialESaIvELN9__gnu_cxx12_Lock_policyE2EEEED2Ev
FN:71,_ZNSt15__allocated_ptrISaISt23_Sp_counted_ptr_inplaceI13RegistryEntryI20BVStrainComponentAuxESaIvELN9__gnu_cxx12_Lock_policyE2EEEED2Ev
FN:71,_ZNSt15__allocated_ptrISaISt23_Sp_counted_ptr_inplaceI13RegistryEntryI27BVFVMultiPhasePressureDarcyESaIvELN9__gnu_cxx12_Lock_policyE2EEEED2Ev
FN:71,_ZNSt15__allocated_ptrISaISt23_Sp_counted_ptr_inplaceI13RegistryEntryI16BVPressureActionESaIvELN9__gnu_cxx12_Lock_policyE2EEEED2Ev
FN:71,_ZNSt15__allocated_ptrISaISt23_Sp_counted_ptr_inplaceI13RegistryEntryI29BVFVSinglePhaseTimeDerivativeESaIvELN9__gnu_cxx12_Lock_policyE2EEEED2Ev
FN:71,_ZNSt15__allocated_ptrISaISt23_Sp_counted_ptr_inplaceI13RegistryEntryI19BVBurgerModelUpdateESaIvELN9__gnu_cxx12_Lock_policyE2EEEED2Ev
FN:71,_ZNSt15__allocated_ptrISaISt23_Sp_counted_ptr_inplaceI13RegistryEntryI20BVStressComponentAuxESaIvELN9__gnu_cxx12_Lock_policyE2EEEED2Ev
FN:71,_ZNSt15__allocated_ptrISaISt23_Sp_counted_ptr_inplaceI13RegistryEntryI20BVFVSinglePhaseDarcyESaIvELN9__gnu_cxx12_Lock_policyE2EEEED2Ev
FN:71,_ZNSt15__allocated_ptrISaISt23_Sp_counted_ptr_inplaceI13RegistryEntryI22BVConstantPermeabilityESaIvELN9__gnu_cxx12_Lock_policyE2EEEED2Ev
FN:71,_ZNSt15__allocated_ptrISaISt23_Sp_counted_ptr_inplaceI13RegistryEntryI21BVShearTractionActionESaIvELN9__gnu_cxx12_Lock_policyE2EEEED2Ev
FN:71,_ZNSt15__allocated_ptrISaISt23_Sp_counted_ptr_inplaceI13RegistryEntryI31BVSinglePhaseFlowSoluteMaterialESaIvELN9__gnu_cxx12_Lock_policyE2EEEED2Ev
FN:71,_ZNSt15__allocated_ptrISaISt23_Sp_counted_ptr_inplaceI13RegistryEntryI17BVFluidPropertiesESaIvELN9__gnu_cxx12_Lock_policyE2EEEED2Ev
FN:71,_ZNSt15__allocated_ptrISaISt23_Sp_counted_ptr_inplaceI13RegistryEntryI27BVCapillaryPressurePowerLawESaIvELN9__gnu_cxx12_Lock_policyE2EEEED2Ev
FN:71,_ZNSt15__allocated_ptrISaISt23_Sp_counted_ptr_inplaceI13RegistryEntryI30BVRelativePermeabilityPowerLawESaIvELN9__gnu_cxx12_Lock_policyE2EEEED2Ev
FN:71,_ZNSt15__allocated_ptrISaISt23_Sp_counted_ptr_inplaceI13RegistryEntryI38BVFVMultiPhaseSaturationTimeDerivativeESaIvELN9__gnu_cxx12_Lock_policyE2EEEED2Ev
FN:71,_ZNSt15__allocated_ptrISaISt23_Sp_counted_ptr_inplaceI13RegistryEntryI24BVMultiPhaseFlowMaterialESaIvELN9__gnu_cxx12_Lock_policyE2EEEED2Ev
FN:71,_ZNSt15__allocated_ptrISaISt23_Sp_counted_ptr_inplaceI13RegistryEntryI29BVFVMultiPhaseSaturationDarcyESaIvELN9__gnu_cxx12_Lock_policyE2EEEED2Ev
FN:71,_ZNSt15__allocated_ptrISaISt23_Sp_counted_ptr_inplaceI13RegistryEntryI19BVLubby2ModelUpdateESaIvELN9__gnu_cxx12_Lock_policyE2EEEED2Ev
FN:71,_ZNSt15__allocated_ptrISaISt23_Sp_counted_ptr_inplaceI13RegistryEntryI36BVFVMultiPhasePressureTimeDerivativeESaIvELN9__gnu_cxx12_Lock_policyE2EEEED2Ev
FN:71,_ZNSt15__allocated_ptrISaISt23_Sp_counted_ptr_inplaceI13RegistryEntryI27BVMaxwellViscoelasticUpdateESaIvELN9__gnu_cxx12_Lock_policyE2EEEED2Ev
FN:71,_ZNSt15__allocated_ptrISaISt23_Sp_counted_ptr_inplaceI16BVPressureActionSaIvELN9__gnu_cxx12_Lock_policyE2EEEED2Ev
FN:71,_ZNSt15__allocated_ptrISaISt23_Sp_counted_ptr_inplaceI13RegistryEntryI18BVConstantPorosityESaIvELN9__gnu_cxx12_Lock_policyE2EEEED2Ev
FN:71,_ZNSt15__allocated_ptrISaISt23_Sp_counted_ptr_inplaceI13RegistryEntryI13BVPressureAuxESaIvELN9__gnu_cxx12_Lock_policyE2EEEED2Ev
FNDA:20,_ZNSt15__allocated_ptrISaISt23_Sp_counted_ptr_inplaceI13RegistryEntryI23BVPoroMechanicsMaterialESaIvELN9__gnu_cxx12_Lock_policyE2EEEED2Ev
FNDA:20,_ZNSt15__allocated_ptrISaISt23_Sp_counted_ptr_inplaceI13RegistryEntryI26BVFVSinglePhaseSoluteDarcyESaIvELN9__gnu_cxx12_Lock_policyE2EEEED2Ev
FNDA:20,_ZNSt15__allocated_ptrISaISt23_Sp_counted_ptr_inplaceI13RegistryEntryI16BVMisesStressAuxESaIvELN9__gnu_cxx12_Lock_policyE2EEEED2Ev
FNDA:20,_ZNSt15__allocated_ptrISaISt23_Sp_counted_ptr_inplaceI13RegistryEntryI14BVEqvStrainAuxESaIvELN9__gnu_cxx12_Lock_policyE2EEEED2Ev
FNDA:0,_ZNSt15__allocated_ptrISaISt23_Sp_counted_ptr_inplaceISt5mutexSaIvELN9__gnu_cxx12_Lock_policyE2EEEED2Ev
FNDA:0,_ZNSt15__allocated_ptrISaISt23_Sp_counted_ptr_inplaceI21BVShearTractionActionSaIvELN9__gnu_cxx12_Lock_policyE2EEEED2Ev
FNDA:20,_ZNSt15__allocated_ptrISaISt23_Sp_counted_ptr_inplaceI13RegistryEntryI17BVShearTractionBCESaIvELN9__gnu_cxx12_Lock_policyE2EEEED2Ev
FNDA:20,_ZNSt15__allocated_ptrISaISt23_Sp_counted_ptr_inplaceI13RegistryEntryI18BVStressDivergenceESaIvELN9__gnu_cxx12_Lock_policyE2EEEED2Ev
FNDA:20,_ZNSt15__allocated_ptrISaISt23_Sp_counted_ptr_inplaceI13RegistryEntryI26BVKelvinViscoelasticUpdateESaIvELN9__gnu_cxx12_Lock_policyE2EEEED2Ev
FNDA:20,_ZNSt15__allocated_ptrISaISt23_Sp_counted_ptr_inplaceI13RegistryEntryI18BVDarcyVelocityAuxESaIvELN9__gnu_cxx12_Lock_policyE2EEEED2Ev
FNDA:20,_ZNSt15__allocated_ptrISaISt23_Sp_counted_ptr_inplaceI13RegistryEntryI12BVPressureBCESaIvELN9__gnu_cxx12_Lock_policyE2EEEED2Ev
FNDA:20,_ZNSt15__allocated_ptrISaISt23_Sp_counted_ptr_inplaceI13RegistryEntryI35BVFVSinglePhaseSoluteTimeDerivativeESaIvELN9__gnu_cxx12_Lock_policyE2EEEED2Ev
FNDA:20,_ZNSt15__allocated_ptrISaISt23_Sp_counted_ptr_inplaceI13RegistryEntryI27BVFVMultiPhasePressureDarcyESaIvELN9__gnu_cxx12_Lock_policyE2EEEED2Ev
FNDA:20,_ZNSt15__allocated_ptrISaISt23_Sp_counted_ptr_inplaceI13RegistryEntryI20BVStrainComponentAuxESaIvELN9__gnu_cxx12_Lock_policyE2EEEED2Ev
FNDA:20,_ZNSt15__allocated_ptrISaISt23_Sp_counted_ptr_inplaceI13RegistryEntryI25BVSinglePhaseFlowMaterialESaIvELN9__gnu_cxx12_Lock_policyE2EEEED2Ev
FNDA:0,_ZNSt15__allocated_ptrISaISt23_Sp_counted_ptr_inplaceI9BeaverAppSaIvELN9__gnu_cxx12_Lock_policyE2EEEED2Ev
FNDA:20,_ZNSt15__allocated_ptrISaISt23_Sp_counted_ptr_inplaceI13RegistryEntryI18BVEqvStrainRateAuxESaIvELN9__gnu_cxx12_Lock_policyE2EEEED2Ev
FNDA:20,_ZNSt15__allocated_ptrISaISt23_Sp_counted_ptr_inplaceI13RegistryEntryI27BVSinglePhaseTimeDerivativeESaIvELN9__gnu_cxx12_Lock_policyE2EEEED2Ev
FNDA:0,_ZNSt15__allocated_ptrISaISt23_Sp_counted_ptr_inplaceINSt13__future_base13_State_baseV2ESaIvELN9__gnu_cxx12_Lock_policyE2EEEED2Ev
FNDA:20,_ZNSt15__allocated_ptrISaISt23_Sp_counted_ptr_inplaceI13RegistryEntryI20BVConstantDispersionESaIvELN9__gnu_cxx12_Lock_policyE2EEEED2Ev
FNDA:20,_ZNSt15__allocated_ptrISaISt23_Sp_counted_ptr_inplaceI13RegistryEntryI18BVSinglePhaseDarcyESaIvELN9__gnu_cxx12_Lock_policyE2EEEED2Ev
FNDA:20,_ZNSt15__allocated_ptrISaISt23_Sp_counted_ptr_inplaceI13RegistryEntryI20BVMechanicalMaterialESaIvELN9__gnu_cxx12_Lock_policyE2EEEED2Ev
FNDA:20,_ZNSt15__allocated_ptrISaISt23_Sp_counted_ptr_inplaceI13RegistryEntryI27BVCapillaryPressurePowerLawESaIvELN9__gnu_cxx12_Lock_policyE2EEEED2Ev
FNDA:20,_ZNSt15__allocated_ptrISaISt23_Sp_counted_ptr_inplaceI13RegistryEntryI17BVFluidPropertiesESaIvELN9__gnu_cxx12_Lock_policyE2EEEED2Ev
FNDA:20,_ZNSt15__allocated_ptrISaISt23_Sp_counted_ptr_inplaceI13RegistryEntryI31BVSinglePhaseFlowSoluteMaterialESaIvELN9__gnu_cxx12_Lock_policyE2EEEED2Ev
FNDA:20,_ZNSt15__allocated_ptrISaISt23_Sp_counted_ptr_inplaceI13RegistryEntryI21BVShearTractionActionESaIvELN9__gnu_cxx12_Lock_policyE2EEEED2Ev
FNDA:20,_ZNSt15__allocated_ptrISaISt23_Sp_counted_ptr_inplaceI13RegistryEntryI22BVConstantPermeabilityESaIvELN9__gnu_cxx12_Lock_policyE2EEEED2Ev
FNDA:20,_ZNSt15__allocated_ptrISaISt23_Sp_counted_ptr_inplaceI13RegistryEntryI20BVStressComponentAuxESaIvELN9__gnu_cxx12_Lock_policyE2EEEED2Ev
FNDA:20,_ZNSt15__allocated_ptrISaISt23_Sp_counted_ptr_inplaceI13RegistryEntryI20BVFVSinglePhaseDarcyESaIvELN9__gnu_cxx12_Lock_policyE2EEEED2Ev
FNDA:20,_ZNSt15__allocated_ptrISaISt23_Sp_counted_ptr_inplaceI13RegistryEntryI19BVBurgerModelUpdateESaIvELN9__gnu_cxx12_Lock_policyE2EEEED2Ev
FNDA:20,_ZNSt15__allocated_ptrISaISt23_Sp_counted_ptr_inplaceI13RegistryEntryI29BVFVSinglePhaseTimeDerivativeESaIvELN9__gnu_cxx12_Lock_policyE2EEEED2Ev
FNDA:20,_ZNSt15__allocated_ptrISaISt23_Sp_counted_ptr_inplaceI13RegistryEntryI16BVPressureActionESaIvELN9__gnu_cxx12_Lock_policyE2EEEED2Ev
FNDA:20,_ZNSt15__allocated_ptrISaISt23_Sp_counted_ptr_inplaceI13RegistryEntryI13BVPressureAuxESaIvELN9__gnu_cxx12_Lock_policyE2EEEED2Ev
FNDA:20,_ZNSt15__allocated_ptrISaISt23_Sp_counted_ptr_inplaceI13RegistryEntryI18BVConstantPorosityESaIvELN9__gnu_cxx12_Lock_policyE2EEEED2Ev
FNDA:14,_ZNSt15__allocated_ptrISaISt23_Sp_counted_ptr_inplaceI16BVPressureActionSaIvELN9__gnu_cxx12_Lock_policyE2EEEED2Ev
FNDA:20,_ZNSt15__allocated_ptrISaISt23_Sp_counted_ptr_inplaceI13RegistryEntryI27BVMaxwellViscoelasticUpdateESaIvELN9__gnu_cxx12_Lock_policyE2EEEED2Ev
FNDA:20,_ZNSt15__allocated_ptrISaISt23_Sp_counted_ptr_inplaceI13RegistryEntryI19BVLubby2ModelUpdateESaIvELN9__gnu_cxx12_Lock_policyE2EEEED2Ev
FNDA:20,_ZNSt15__allocated_ptrISaISt23_Sp_counted_ptr_inplaceI13RegistryEntryI36BVFVMultiPhasePressureTimeDerivativeESaIvELN9__gnu_cxx12_Lock_policyE2EEEED2Ev
FNDA:20,_ZNSt15__allocated_ptrISaISt23_Sp_counted_ptr_inplaceI13RegistryEntryI24BVMultiPhaseFlowMaterialESaIvELN9__gnu_cxx12_Lock_policyE2EEEED2Ev
FNDA:20,_ZNSt15__allocated_ptrISaISt23_Sp_counted_ptr_inplaceI13RegistryEntryI29BVFVMultiPhaseSaturationDarcyESaIvELN9__gnu_cxx12_Lock_policyE2EEEED2Ev
FNDA:20,_ZNSt15__allocated_ptrISaISt23_Sp_counted_ptr_inplaceI13RegistryEntryI38BVFVMultiPhaseSaturationTimeDerivativeESaIvELN9__gnu_cxx12_Lock_policyE2EEEED2Ev
FNDA:20,_ZNSt15__allocated_ptrISaISt23_Sp_counted_ptr_inplaceI13RegistryEntryI30BVRelativePermeabilityPowerLawESaIvELN9__gnu_cxx12_Lock_policyE2EEEED2Ev
FNF:42
FNH:38
DA:53,7
DA:54,754
DA:71,754
DA:73,754
DA:75,754
DA:81,747
LF:6
LH:6
end_of_record
TN:
SF:/usr/share/miniconda3/envs/moose/lib/gcc/x86_64-conda-linux-gnu/12.3.0/include/c++/bits/basic_ios.h
FNF:0
FNH:0
DA:138,0
LF:1
LH:0
end_of_record
TN:
SF:/usr/share/miniconda3/envs/moose/lib/gcc/x86_64-conda-linux-gnu/12.3.0/include/c++/bits/basic_string.h
FN:642,_ZNSt7__cxx1112basic_stringIcSt11char_traitsIcESaIcEEC2IS3_EEPKcRKS3_
FN:1689,_ZNSt7__cxx1112basic_stringIcSt11char_traitsIcESaIcEE6assignIPcvEERS4_T_S8_
FN:3440,_ZStplIcSt11char_traitsIcESaIcEENSt7__cxx1112basic_stringIT_T0_T1_EERKS8_SA_
FN:3480,_ZStplIcSt11char_traitsIcESaIcEENSt7__cxx1112basic_stringIT_T0_T1_EERKS8_PKS5_
FN:3510,_ZStplIcSt11char_traitsIcESaIcEENSt7__cxx1112basic_stringIT_T0_T1_EEOS8_RKS8_
FN:3524,_ZStplIcSt11char_traitsIcESaIcEENSt7__cxx1112basic_stringIT_T0_T1_EEOS8_S9_
FN:4034,_ZNSt7__cxx119to_stringEj
FNDA:20,_ZStplIcSt11char_traitsIcESaIcEENSt7__cxx1112basic_stringIT_T0_T1_EEOS8_S9_
FNDA:0,_ZNSt7__cxx1112basic_stringIcSt11char_traitsIcESaIcEE6assignIPcvEERS4_T_S8_
FNDA:50,_ZStplIcSt11char_traitsIcESaIcEENSt7__cxx1112basic_stringIT_T0_T1_EERKS8_PKS5_
FNDA:0,_ZStplIcSt11char_traitsIcESaIcEENSt7__cxx1112basic_stringIT_T0_T1_EERKS8_SA_
FNDA:20,_ZStplIcSt11char_traitsIcESaIcEENSt7__cxx1112basic_stringIT_T0_T1_EEOS8_RKS8_
FNDA:45434,_ZNSt7__cxx1112basic_stringIcSt11char_traitsIcESaIcEEC2IS3_EEPKcRKS3_
FNDA:20,_ZNSt7__cxx119to_stringEj
FNF:7
FNH:5
DA:187,0
DA:188,0
DA:199,45434
DA:200,45454
DA:203,740
DA:204,740
DA:224,27429
DA:229,52206
DA:234,7937
DA:241,460
DA:252,20
DA:261,27429
DA:268,51466
DA:275,0
DA:277,0
DA:278,0
DA:479,6032
DA:485,45434
DA:523,740
DA:642,45434
DA:646,45434
DA:647,0
DA:649,45434
DA:650,45434
DA:651,45434
DA:667,20
DA:803,32084
DA:813,1440
DA:974,0
DA:1072,1734
DA:1142,20
DA:1232,0
DA:1348,0
DA:1396,20
DA:1579,2171
DA:1689,0
DA:1690,0
DA:1866,0
DA:3440,0
DA:3443,0
DA:3445,0
DA:3480,50
DA:3483,50
DA:3484,50
DA:3485,50
DA:3510,20
DA:3512,20
DA:3524,20
DA:3537,20
DA:3538,20
DA:3539,0
DA:3541,20
DA:3563,20
DA:3702,9005537
DA:3896,0
DA:4034,20
DA:4039,20
DA:4040,20
DA:4041,20
LF:59
LH:42
end_of_record
TN:
SF:/usr/share/miniconda3/envs/moose/lib/gcc/x86_64-conda-linux-gnu/12.3.0/include/c++/bits/basic_string.tcc
FN:217,_ZNSt7__cxx1112basic_stringIcSt11char_traitsIcESaIcEE12_M_constructIPKcEEvT_S8_St20forward_iterator_tag
FN:217,_ZNSt7__cxx1112basic_stringIcSt11char_traitsIcESaIcEE12_M_constructIPcEEvT_S7_St20forward_iterator_tag
FN:606,_ZStplIcSt11char_traitsIcESaIcEENSt7__cxx1112basic_stringIT_T0_T1_EEPKS5_RKS8_
FNDA:0,_ZStplIcSt11char_traitsIcESaIcEENSt7__cxx1112basic_stringIT_T0_T1_EEPKS5_RKS8_
FNDA:45434,_ZNSt7__cxx1112basic_stringIcSt11char_traitsIcESaIcEE12_M_constructIPKcEEvT_S8_St20forward_iterator_tag
FNDA:6032,_ZNSt7__cxx1112basic_stringIcSt11char_traitsIcESaIcEE12_M_constructIPcEEvT_S7_St20forward_iterator_tag
FNF:3
FNH:2
DA:217,51466
DA:221,51466
DA:223,51466
DA:225,27429
DA:226,27429
DA:247,51466
DA:248,51466
DA:606,0
DA:618,0
DA:619,0
DA:621,0
LF:11
LH:7
end_of_record
TN:
SF:/usr/share/miniconda3/envs/moose/lib/gcc/x86_64-conda-linux-gnu/12.3.0/include/c++/bits/char_traits.h
FNF:0
FNH:0
DA:358,500
DA:376,55
DA:389,55
DA:399,45434
LF:4
LH:4
end_of_record
TN:
SF:/usr/share/miniconda3/envs/moose/lib/gcc/x86_64-conda-linux-gnu/12.3.0/include/c++/bits/charconv.h
FN:47,_ZNSt8__detail14__to_chars_lenIjEEjT_i
FN:72,_ZNSt8__detail18__to_chars_10_implIjEEvPcjT_
FNDA:20,_ZNSt8__detail14__to_chars_lenIjEEjT_i
FNDA:0,_ZNSt8__detail18__to_chars_10_implIjEEvPcjT_
FNF:2
FNH:1
DA:47,20
DA:53,20
DA:54,20
DA:55,20
DA:58,20
DA:59,0
DA:60,0
DA:61,0
DA:62,0
DA:63,0
DA:72,0
DA:83,0
DA:84,0
DA:86,0
DA:87,0
DA:88,0
DA:89,0
DA:90,0
DA:92,0
DA:94,0
DA:95,0
DA:96,0
DA:99,0
DA:100,0
LF:24
LH:5
end_of_record
TN:
SF:/usr/share/miniconda3/envs/moose/lib/gcc/x86_64-conda-linux-gnu/12.3.0/include/c++/bits/exception.h
FNF:0
FNH:0
DA:64,0
LF:1
LH:0
end_of_record
TN:
SF:/usr/share/miniconda3/envs/moose/lib/gcc/x86_64-conda-linux-gnu/12.3.0/include/c++/bits/functional_hash.h
FNF:0
FNH:0
DA:166,0
LF:1
LH:0
end_of_record
TN:
SF:/usr/share/miniconda3/envs/moose/lib/gcc/x86_64-conda-linux-gnu/12.3.0/include/c++/bits/hashtable.h
FN:312,_ZNSt10_HashtableImSt4pairIKmSt6vectorIS2_IS0_IbdESaIS3_EESaIS5_EEESaIS8_ENSt8__detail10_Select1stESt8equal_toImESt4hashImENSA_18_Mod_range_hashingENSA_20_Default_ranged_hashENSA_20_Prime_rehash_policyENSA_17_Hashtable_traitsILb0ELb0ELb1EEEE12_Scoped_nodeD2Ev
FN:312,_ZNSt10_HashtableImSt4pairIKmSt6vectorIS0_IbdESaIS3_EEESaIS6_ENSt8__detail10_Select1stESt8equal_toImESt4hashImENS8_18_Mod_range_hashingENS8_20_Default_ranged_hashENS8_20_Prime_rehash_policyENS8_17_Hashtable_traitsILb0ELb0ELb1EEEE12_Scoped_nodeD2Ev
FN:312,_ZNSt10_HashtableImSt4pairIKmSt6vectorIS2_IS0_IbN11MetaPhysicL10DualNumberIdNS3_28SemiDynamicSparseNumberArrayIdmNS3_8NWrapperILm64EEEEELb1EEEESaISA_EESaISC_EEESaISF_ENSt8__detail10_Select1stESt8equal_toImESt4hashImENSH_18_Mod_range_hashingENSH_20_Default_ranged_hashENSH_20_Prime_rehash_policyENSH_17_Hashtable_traitsILb0ELb0ELb1EEEE12_Scoped_nodeD2Ev
FN:312,_ZNSt10_HashtableImSt4pairIKmSt6vectorIS0_IbN11MetaPhysicL10DualNumberIdNS3_28SemiDynamicSparseNumberArrayIdmNS3_8NWrapperILm64EEEEELb1EEEESaISA_EEESaISD_ENSt8__detail10_Select1stESt8equal_toImESt4hashImENSF_18_Mod_range_hashingENSF_20_Default_ranged_hashENSF_20_Prime_rehash_policyENSF_17_Hashtable_traitsILb0ELb0ELb1EEEE12_Scoped_nodeD2Ev
FN:312,_ZNSt10_HashtableIjjSaIjENSt8__detail9_IdentityESt8equal_toIjESt4hashIjENS1_18_Mod_range_hashingENS1_20_Default_ranged_hashENS1_20_Prime_rehash_policyENS1_17_Hashtable_traitsILb0ELb1ELb1EEEE12_Scoped_nodeD2Ev
FN:456,_ZNSt10_HashtableINSt7__cxx1112basic_stringIcSt11char_traitsIcESaIcEEESt4pairIKS5_St10unique_ptrI10MooseArrayIN7libMesh11VectorValueIN11MetaPhysicL10DualNumberIdNSC_28SemiDynamicSparseNumberArrayIdmNSC_8NWrapperILm64EEEEELb1EEEEEESt14default_deleteISK_EEESaISO_ENSt8__detail10_Select1stESt8equal_toIS5_ESt4hashIS5_ENSQ_18_Mod_range_hashingENSQ_20_Default_ranged_hashENSQ_20_Prime_rehash_policyENSQ_17_Hashtable_traitsILb1ELb0ELb1EEEE21_M_deallocate_bucketsEv
FN:456,_ZNSt10_HashtableIjSt4pairIKjjESaIS2_ENSt8__detail10_Select1stESt8equal_toIjESt4hashIjENS4_18_Mod_range_hashingENS4_20_Default_ranged_hashENS4_20_Prime_rehash_policyENS4_17_Hashtable_traitsILb0ELb0ELb1EEEE21_M_deallocate_bucketsEv
FN:456,_ZNSt10_HashtableImSt4pairIKmSt6vectorIS2_IS0_IbdESaIS3_EESaIS5_EEESaIS8_ENSt8__detail10_Select1stESt8equal_toImESt4hashImENSA_18_Mod_range_hashingENSA_20_Default_ranged_hashENSA_20_Prime_rehash_policyENSA_17_Hashtable_traitsILb0ELb0ELb1EEEE21_M_deallocate_bucketsEv
FN:456,_ZNSt10_HashtableImSt4pairIKmSt6vectorIS0_IbdESaIS3_EEESaIS6_ENSt8__detail10_Select1stESt8equal_toImESt4hashImENS8_18_Mod_range_hashingENS8_20_Default_ranged_hashENS8_20_Prime_rehash_policyENS8_17_Hashtable_traitsILb0ELb0ELb1EEEE21_M_deallocate_bucketsEv
FN:456,_ZNSt10_HashtableINSt7__cxx1112basic_stringIcSt11char_traitsIcESaIcEEESt4pairIKS5_St10unique_ptrI10MooseArrayIN11MetaPhysicL10DualNumberIdNSA_28SemiDynamicSparseNumberArrayIdmNSA_8NWrapperILm64EEEEELb1EEEESt14default_deleteISH_EEESaISL_ENSt8__detail10_Select1stESt8equal_toIS5_ESt4hashIS5_ENSN_18_Mod_range_hashingENSN_20_Default_ranged_hashENSN_20_Prime_rehash_policyENSN_17_Hashtable_traitsILb1ELb0ELb1EEEE21_M_deallocate_bucketsEv
FN:456,_ZNSt10_HashtableImSt4pairIKmSt6vectorIS2_IS0_IbN11MetaPhysicL10DualNumberIdNS3_28SemiDynamicSparseNumberArrayIdmNS3_8NWrapperILm64EEEEELb1EEEESaISA_EESaISC_EEESaISF_ENSt8__detail10_Select1stESt8equal_toImESt4hashImENSH_18_Mod_range_hashingENSH_20_Default_ranged_hashENSH_20_Prime_rehash_policyENSH_17_Hashtable_traitsILb0ELb0ELb1EEEE21_M_deallocate_bucketsEv
FN:456,_ZNSt10_HashtableINSt7__cxx1112basic_stringIcSt11char_traitsIcESaIcEEESt4pairIKS5_St10unique_ptrI10MooseArrayIdESt14default_deleteISA_EEESaISE_ENSt8__detail10_Select1stESt8equal_toIS5_ESt4hashIS5_ENSG_18_Mod_range_hashingENSG_20_Default_ranged_hashENSG_20_Prime_rehash_policyENSG_17_Hashtable_traitsILb1ELb0ELb1EEEE21_M_deallocate_bucketsEv
FN:456,_ZNSt10_HashtableINSt7__cxx1112basic_stringIcSt11char_traitsIcESaIcEEESt4pairIKS5_St6vectorIP22MooseVariableFieldBaseSaISA_EEESaISD_ENSt8__detail10_Select1stESt8equal_toIS5_ESt4hashIS5_ENSF_18_Mod_range_hashingENSF_20_Default_ranged_hashENSF_20_Prime_rehash_policyENSF_17_Hashtable_traitsILb1ELb0ELb1EEEE21_M_deallocate_bucketsEv
FN:456,_ZNSt10_HashtableINSt7__cxx1112basic_stringIcSt11char_traitsIcESaIcEEESt4pairIKS5_S5_ESaIS8_ENSt8__detail10_Select1stESt8equal_toIS5_ESt4hashIS5_ENSA_18_Mod_range_hashingENSA_20_Default_ranged_hashENSA_20_Prime_rehash_policyENSA_17_Hashtable_traitsILb1ELb0ELb1EEEE21_M_deallocate_bucketsEv
FN:456,_ZNSt10_HashtableIssSaIsENSt8__detail9_IdentityESt8equal_toIsESt4hashIsENS1_18_Mod_range_hashingENS1_20_Default_ranged_hashENS1_20_Prime_rehash_policyENS1_17_Hashtable_traitsILb0ELb1ELb1EEEE21_M_deallocate_bucketsEv
FN:456,_ZNSt10_HashtableINSt7__cxx1112basic_stringIcSt11char_traitsIcESaIcEEESt4pairIKS5_St6vectorIjSaIjEEESaISB_ENSt8__detail10_Select1stESt8equal_toIS5_ESt4hashIS5_ENSD_18_Mod_range_hashingENSD_20_Default_ranged_hashENSD_20_Prime_rehash_policyENSD_17_Hashtable_traitsILb1ELb0ELb1EEEE21_M_deallocate_bucketsEv
FN:456,_ZNSt10_HashtableIjjSaIjENSt8__detail9_IdentityESt8equal_toIjESt4hashIjENS1_18_Mod_range_hashingENS1_20_Default_ranged_hashENS1_20_Prime_rehash_policyENS1_17_Hashtable_traitsILb0ELb1ELb1EEEE21_M_deallocate_bucketsEv
FN:456,_ZNSt10_HashtableINSt7__cxx1112basic_stringIcSt11char_traitsIcESaIcEEESt4pairIKS5_St10unique_ptrI10MooseArrayIN5Eigen6MatrixIdLin1ELi1ELi0ELin1ELi1EEEESt14default_deleteISD_EEESaISH_ENSt8__detail10_Select1stESt8equal_toIS5_ESt4hashIS5_ENSJ_18_Mod_range_hashingENSJ_20_Default_ranged_hashENSJ_20_Prime_rehash_policyENSJ_17_Hashtable_traitsILb1ELb0ELb1EEEE21_M_deallocate_bucketsEv
FN:456,_ZNSt10_HashtableImSt4pairIKmSt6vectorIS0_IbN11MetaPhysicL10DualNumberIdNS3_28SemiDynamicSparseNumberArrayIdmNS3_8NWrapperILm64EEEEELb1EEEESaISA_EEESaISD_ENSt8__detail10_Select1stESt8equal_toImESt4hashImENSF_18_Mod_range_hashingENSF_20_Default_ranged_hashENSF_20_Prime_rehash_policyENSF_17_Hashtable_traitsILb0ELb0ELb1EEEE21_M_deallocate_bucketsEv
FN:456,_ZNSt10_HashtableINSt7__cxx1112basic_stringIcSt11char_traitsIcESaIcEEESt4pairIKS5_St10unique_ptrI10MooseArrayIN7libMesh11VectorValueIdEEESt14default_deleteISD_EEESaISH_ENSt8__detail10_Select1stESt8equal_toIS5_ESt4hashIS5_ENSJ_18_Mod_range_hashingENSJ_20_Default_ranged_hashENSJ_20_Prime_rehash_policyENSJ_17_Hashtable_traitsILb1ELb0ELb1EEEE21_M_deallocate_bucketsEv
FN:456,_ZNSt10_HashtableINSt7__cxx1112basic_stringIcSt11char_traitsIcESaIcEEESt4pairIKS5_St6vectorIP19MooseVariableScalarSaISA_EEESaISD_ENSt8__detail10_Select1stESt8equal_toIS5_ESt4hashIS5_ENSF_18_Mod_range_hashingENSF_20_Default_ranged_hashENSF_20_Prime_rehash_policyENSF_17_Hashtable_traitsILb1ELb0ELb1EEEE21_M_deallocate_bucketsEv
FN:456,_ZNSt10_HashtableINSt7__cxx1112basic_stringIcSt11char_traitsIcESaIcEEESt4pairIKS5_St6vectorISt10unique_ptrI10MooseArrayIdESt14default_deleteISB_EESaISE_EEESaISH_ENSt8__detail10_Select1stESt8equal_toIS5_ESt4hashIS5_ENSJ_18_Mod_range_hashingENSJ_20_Default_ranged_hashENSJ_20_Prime_rehash_policyENSJ_17_Hashtable_traitsILb1ELb0ELb1EEEE21_M_deallocate_bucketsEv
FN:1924,_ZNKSt10_HashtableImSt4pairIKmSt6vectorIS0_IbdESaIS3_EEESaIS6_ENSt8__detail10_Select1stESt8equal_toImESt4hashImENS8_18_Mod_range_hashingENS8_20_Default_ranged_hashENS8_20_Prime_rehash_policyENS8_17_Hashtable_traitsILb0ELb0ELb1EEEE19_M_find_before_nodeEmRS1_m
FN:1924,_ZNKSt10_HashtableImSt4pairIKmSt6vectorIS2_IS0_IbN11MetaPhysicL10DualNumberIdNS3_28SemiDynamicSparseNumberArrayIdmNS3_8NWrapperILm64EEEEELb1EEEESaISA_EESaISC_EEESaISF_ENSt8__detail10_Select1stESt8equal_toImESt4hashImENSH_18_Mod_range_hashingENSH_20_Default_ranged_hashENSH_20_Prime_rehash_policyENSH_17_Hashtable_traitsILb0ELb0ELb1EEEE19_M_find_before_nodeEmRS1_m
FN:1924,_ZNKSt10_HashtableImSt4pairIKmSt6vectorIS2_IS0_IbdESaIS3_EESaIS5_EEESaIS8_ENSt8__detail10_Select1stESt8equal_toImESt4hashImENSA_18_Mod_range_hashingENSA_20_Default_ranged_hashENSA_20_Prime_rehash_policyENSA_17_Hashtable_traitsILb0ELb0ELb1EEEE19_M_find_before_nodeEmRS1_m
FN:1924,_ZNKSt10_HashtableImSt4pairIKmSt6vectorIS0_IbN11MetaPhysicL10DualNumberIdNS3_28SemiDynamicSparseNumberArrayIdmNS3_8NWrapperILm64EEEEELb1EEEESaISA_EEESaISD_ENSt8__detail10_Select1stESt8equal_toImESt4hashImENSF_18_Mod_range_hashingENSF_20_Default_ranged_hashENSF_20_Prime_rehash_policyENSF_17_Hashtable_traitsILb0ELb0ELb1EEEE19_M_find_before_nodeEmRS1_m
FN:1954,_ZNKSt10_HashtableIjjSaIjENSt8__detail9_IdentityESt8equal_toIjESt4hashIjENS1_18_Mod_range_hashingENS1_20_Default_ranged_hashENS1_20_Prime_rehash_policyENS1_17_Hashtable_traitsILb0ELb1ELb1EEEE22_M_find_before_node_trIjEEPNS1_15_Hash_node_baseEmRKT_m
FN:1983,_ZNSt10_HashtableIjjSaIjENSt8__detail9_IdentityESt8equal_toIjESt4hashIjENS1_18_Mod_range_hashingENS1_20_Default_ranged_hashENS1_20_Prime_rehash_policyENS1_17_Hashtable_traitsILb0ELb1ELb1EEEE22_M_insert_bucket_beginEmPNS1_10_Hash_nodeIjLb0EEE
FN:1983,_ZNSt10_HashtableImSt4pairIKmSt6vectorIS0_IbN11MetaPhysicL10DualNumberIdNS3_28SemiDynamicSparseNumberArrayIdmNS3_8NWrapperILm64EEEEELb1EEEESaISA_EEESaISD_ENSt8__detail10_Select1stESt8equal_toImESt4hashImENSF_18_Mod_range_hashingENSF_20_Default_ranged_hashENSF_20_Prime_rehash_policyENSF_17_Hashtable_traitsILb0ELb0ELb1EEEE22_M_insert_bucket_beginEmPNSF_10_Hash_nodeISD_Lb0EEE
FN:1983,_ZNSt10_HashtableImSt4pairIKmSt6vectorIS2_IS0_IbdESaIS3_EESaIS5_EEESaIS8_ENSt8__detail10_Select1stESt8equal_toImESt4hashImENSA_18_Mod_range_hashingENSA_20_Default_ranged_hashENSA_20_Prime_rehash_policyENSA_17_Hashtable_traitsILb0ELb0ELb1EEEE22_M_insert_bucket_beginEmPNSA_10_Hash_nodeIS8_Lb0EEE
FN:1983,_ZNSt10_HashtableImSt4pairIKmSt6vectorIS0_IbdESaIS3_EEESaIS6_ENSt8__detail10_Select1stESt8equal_toImESt4hashImENS8_18_Mod_range_hashingENS8_20_Default_ranged_hashENS8_20_Prime_rehash_policyENS8_17_Hashtable_traitsILb0ELb0ELb1EEEE22_M_insert_bucket_beginEmPNS8_10_Hash_nodeIS6_Lb0EEE
FN:1983,_ZNSt10_HashtableImSt4pairIKmSt6vectorIS2_IS0_IbN11MetaPhysicL10DualNumberIdNS3_28SemiDynamicSparseNumberArrayIdmNS3_8NWrapperILm64EEEEELb1EEEESaISA_EESaISC_EEESaISF_ENSt8__detail10_Select1stESt8equal_toImESt4hashImENSH_18_Mod_range_hashingENSH_20_Default_ranged_hashENSH_20_Prime_rehash_policyENSH_17_Hashtable_traitsILb0ELb0ELb1EEEE22_M_insert_bucket_beginEmPNSH_10_Hash_nodeISF_Lb0EEE
FN:2142,_ZNSt10_HashtableIjjSaIjENSt8__detail9_IdentityESt8equal_toIjESt4hashIjENS1_18_Mod_range_hashingENS1_20_Default_ranged_hashENS1_20_Prime_rehash_policyENS1_17_Hashtable_traitsILb0ELb1ELb1EEEE21_M_insert_unique_nodeEmmPNS1_10_Hash_nodeIjLb0EEEm
FN:2142,_ZNSt10_HashtableImSt4pairIKmSt6vectorIS2_IS0_IbdESaIS3_EESaIS5_EEESaIS8_ENSt8__detail10_Select1stESt8equal_toImESt4hashImENSA_18_Mod_range_hashingENSA_20_Default_ranged_hashENSA_20_Prime_rehash_policyENSA_17_Hashtable_traitsILb0ELb0ELb1EEEE21_M_insert_unique_nodeEmmPNSA_10_Hash_nodeIS8_Lb0EEEm
FN:2142,_ZNSt10_HashtableImSt4pairIKmSt6vectorIS2_IS0_IbN11MetaPhysicL10DualNumberIdNS3_28SemiDynamicSparseNumberArrayIdmNS3_8NWrapperILm64EEEEELb1EEEESaISA_EESaISC_EEESaISF_ENSt8__detail10_Select1stESt8equal_toImESt4hashImENSH_18_Mod_range_hashingENSH_20_Default_ranged_hashENSH_20_Prime_rehash_policyENSH_17_Hashtable_traitsILb0ELb0ELb1EEEE21_M_insert_unique_nodeEmmPNSH_10_Hash_nodeISF_Lb0EEEm
FN:2142,_ZNSt10_HashtableImSt4pairIKmSt6vectorIS0_IbN11MetaPhysicL10DualNumberIdNS3_28SemiDynamicSparseNumberArrayIdmNS3_8NWrapperILm64EEEEELb1EEEESaISA_EEESaISD_ENSt8__detail10_Select1stESt8equal_toImESt4hashImENSF_18_Mod_range_hashingENSF_20_Default_ranged_hashENSF_20_Prime_rehash_policyENSF_17_Hashtable_traitsILb0ELb0ELb1EEEE21_M_insert_unique_nodeEmmPNSF_10_Hash_nodeISD_Lb0EEEm
FN:2142,_ZNSt10_HashtableImSt4pairIKmSt6vectorIS0_IbdESaIS3_EEESaIS6_ENSt8__detail10_Select1stESt8equal_toImESt4hashImENS8_18_Mod_range_hashingENS8_20_Default_ranged_hashENS8_20_Prime_rehash_policyENS8_17_Hashtable_traitsILb0ELb0ELb1EEEE21_M_insert_unique_nodeEmmPNS8_10_Hash_nodeIS6_Lb0EEEm
FN:2229,_ZNSt10_HashtableIjjSaIjENSt8__detail9_IdentityESt8equal_toIjESt4hashIjENS1_18_Mod_range_hashingENS1_20_Default_ranged_hashENS1_20_Prime_rehash_policyENS1_17_Hashtable_traitsILb0ELb1ELb1EEEE16_M_insert_uniqueIjjNS1_10_AllocNodeISaINS1_10_Hash_nodeIjLb0EEEEEEEESt4pairINS1_14_Node_iteratorIjLb1ELb0EEEbEOT_OT0_RKT1_
FN:2496,_ZNSt10_HashtableINSt7__cxx1112basic_stringIcSt11char_traitsIcESaIcEEESt4pairIKS5_St6vectorIP22MooseVariableFieldBaseSaISA_EEESaISD_ENSt8__detail10_Select1stESt8equal_toIS5_ESt4hashIS5_ENSF_18_Mod_range_hashingENSF_20_Default_ranged_hashENSF_20_Prime_rehash_policyENSF_17_Hashtable_traitsILb1ELb0ELb1EEEE5clearEv
FN:2496,_ZNSt10_HashtableIjjSaIjENSt8__detail9_IdentityESt8equal_toIjESt4hashIjENS1_18_Mod_range_hashingENS1_20_Default_ranged_hashENS1_20_Prime_rehash_policyENS1_17_Hashtable_traitsILb0ELb1ELb1EEEE5clearEv
FN:2496,_ZNSt10_HashtableINSt7__cxx1112basic_stringIcSt11char_traitsIcESaIcEEESt4pairIKS5_St6vectorISt10unique_ptrI10MooseArrayIdESt14default_deleteISB_EESaISE_EEESaISH_ENSt8__detail10_Select1stESt8equal_toIS5_ESt4hashIS5_ENSJ_18_Mod_range_hashingENSJ_20_Default_ranged_hashENSJ_20_Prime_rehash_policyENSJ_17_Hashtable_traitsILb1ELb0ELb1EEEE5clearEv
FN:2496,_ZNSt10_HashtableINSt7__cxx1112basic_stringIcSt11char_traitsIcESaIcEEESt4pairIKS5_St6vectorIP19MooseVariableScalarSaISA_EEESaISD_ENSt8__detail10_Select1stESt8equal_toIS5_ESt4hashIS5_ENSF_18_Mod_range_hashingENSF_20_Default_ranged_hashENSF_20_Prime_rehash_policyENSF_17_Hashtable_traitsILb1ELb0ELb1EEEE5clearEv
FN:2496,_ZNSt10_HashtableImSt4pairIKmSt6vectorIS0_IbdESaIS3_EEESaIS6_ENSt8__detail10_Select1stESt8equal_toImESt4hashImENS8_18_Mod_range_hashingENS8_20_Default_ranged_hashENS8_20_Prime_rehash_policyENS8_17_Hashtable_traitsILb0ELb0ELb1EEEE5clearEv
FN:2496,_ZNSt10_HashtableINSt7__cxx1112basic_stringIcSt11char_traitsIcESaIcEEESt4pairIKS5_S5_ESaIS8_ENSt8__detail10_Select1stESt8equal_toIS5_ESt4hashIS5_ENSA_18_Mod_range_hashingENSA_20_Default_ranged_hashENSA_20_Prime_rehash_policyENSA_17_Hashtable_traitsILb1ELb0ELb1EEEE5clearEv
FN:2496,_ZNSt10_HashtableINSt7__cxx1112basic_stringIcSt11char_traitsIcESaIcEEESt4pairIKS5_St10unique_ptrI10MooseArrayIN7libMesh11VectorValueIdEEESt14default_deleteISD_EEESaISH_ENSt8__detail10_Select1stESt8equal_toIS5_ESt4hashIS5_ENSJ_18_Mod_range_hashingENSJ_20_Default_ranged_hashENSJ_20_Prime_rehash_policyENSJ_17_Hashtable_traitsILb1ELb0ELb1EEEE5clearEv
FN:2496,_ZNSt10_HashtableINSt7__cxx1112basic_stringIcSt11char_traitsIcESaIcEEESt4pairIKS5_St10unique_ptrI10MooseArrayIdESt14default_deleteISA_EEESaISE_ENSt8__detail10_Select1stESt8equal_toIS5_ESt4hashIS5_ENSG_18_Mod_range_hashingENSG_20_Default_ranged_hashENSG_20_Prime_rehash_policyENSG_17_Hashtable_traitsILb1ELb0ELb1EEEE5clearEv
FN:2496,_ZNSt10_HashtableImSt4pairIKmSt6vectorIS2_IS0_IbdESaIS3_EESaIS5_EEESaIS8_ENSt8__detail10_Select1stESt8equal_toImESt4hashImENSA_18_Mod_range_hashingENSA_20_Default_ranged_hashENSA_20_Prime_rehash_policyENSA_17_Hashtable_traitsILb0ELb0ELb1EEEE5clearEv
FN:2496,_ZNSt10_HashtableINSt7__cxx1112basic_stringIcSt11char_traitsIcESaIcEEESt4pairIKS5_St10unique_ptrI10MooseArrayIN7libMesh11VectorValueIN11MetaPhysicL10DualNumberIdNSC_28SemiDynamicSparseNumberArrayIdmNSC_8NWrapperILm64EEEEELb1EEEEEESt14default_deleteISK_EEESaISO_ENSt8__detail10_Select1stESt8equal_toIS5_ESt4hashIS5_ENSQ_18_Mod_range_hashingENSQ_20_Default_ranged_hashENSQ_20_Prime_rehash_policyENSQ_17_Hashtable_traitsILb1ELb0ELb1EEEE5clearEv
FN:2496,_ZNSt10_HashtableIjSt4pairIKjjESaIS2_ENSt8__detail10_Select1stESt8equal_toIjESt4hashIjENS4_18_Mod_range_hashingENS4_20_Default_ranged_hashENS4_20_Prime_rehash_policyENS4_17_Hashtable_traitsILb0ELb0ELb1EEEE5clearEv
FN:2496,_ZNSt10_HashtableImSt4pairIKmSt6vectorIS2_IS0_IbN11MetaPhysicL10DualNumberIdNS3_28SemiDynamicSparseNumberArrayIdmNS3_8NWrapperILm64EEEEELb1EEEESaISA_EESaISC_EEESaISF_ENSt8__detail10_Select1stESt8equal_toImESt4hashImENSH_18_Mod_range_hashingENSH_20_Default_ranged_hashENSH_20_Prime_rehash_policyENSH_17_Hashtable_traitsILb0ELb0ELb1EEEE5clearEv
FN:2496,_ZNSt10_HashtableImSt4pairIKmSt6vectorIS0_IbN11MetaPhysicL10DualNumberIdNS3_28SemiDynamicSparseNumberArrayIdmNS3_8NWrapperILm64EEEEELb1EEEESaISA_EEESaISD_ENSt8__detail10_Select1stESt8equal_toImESt4hashImENSF_18_Mod_range_hashingENSF_20_Default_ranged_hashENSF_20_Prime_rehash_policyENSF_17_Hashtable_traitsILb0ELb0ELb1EEEE5clearEv
FN:2496,_ZNSt10_HashtableINSt7__cxx1112basic_stringIcSt11char_traitsIcESaIcEEESt4pairIKS5_St6vectorIjSaIjEEESaISB_ENSt8__detail10_Select1stESt8equal_toIS5_ESt4hashIS5_ENSD_18_Mod_range_hashingENSD_20_Default_ranged_hashENSD_20_Prime_rehash_policyENSD_17_Hashtable_traitsILb1ELb0ELb1EEEE5clearEv
FN:2496,_ZNSt10_HashtableINSt7__cxx1112basic_stringIcSt11char_traitsIcESaIcEEESt4pairIKS5_St10unique_ptrI10MooseArrayIN11MetaPhysicL10DualNumberIdNSA_28SemiDynamicSparseNumberArrayIdmNSA_8NWrapperILm64EEEEELb1EEEESt14default_deleteISH_EEESaISL_ENSt8__detail10_Select1stESt8equal_toIS5_ESt4hashIS5_ENSN_18_Mod_range_hashingENSN_20_Default_ranged_hashENSN_20_Prime_rehash_policyENSN_17_Hashtable_traitsILb1ELb0ELb1EEEE5clearEv
FN:2496,_ZNSt10_HashtableINSt7__cxx1112basic_stringIcSt11char_traitsIcESaIcEEESt4pairIKS5_St10unique_ptrI10MooseArrayIN5Eigen6MatrixIdLin1ELi1ELi0ELin1ELi1EEEESt14default_deleteISD_EEESaISH_ENSt8__detail10_Select1stESt8equal_toIS5_ESt4hashIS5_ENSJ_18_Mod_range_hashingENSJ_20_Default_ranged_hashENSJ_20_Prime_rehash_policyENSJ_17_Hashtable_traitsILb1ELb0ELb1EEEE5clearEv
FN:2496,_ZNSt10_HashtableIssSaIsENSt8__detail9_IdentityESt8equal_toIsESt4hashIsENS1_18_Mod_range_hashingENS1_20_Default_ranged_hashENS1_20_Prime_rehash_policyENS1_17_Hashtable_traitsILb0ELb1ELb1EEEE5clearEv
FN:2535,_ZNSt10_HashtableImSt4pairIKmSt6vectorIS2_IS0_IbdESaIS3_EESaIS5_EEESaIS8_ENSt8__detail10_Select1stESt8equal_toImESt4hashImENSA_18_Mod_range_hashingENSA_20_Default_ranged_hashENSA_20_Prime_rehash_policyENSA_17_Hashtable_traitsILb0ELb0ELb1EEEE9_M_rehashEmRS1_
FN:2535,_ZNSt10_HashtableImSt4pairIKmSt6vectorIS2_IS0_IbN11MetaPhysicL10DualNumberIdNS3_28SemiDynamicSparseNumberArrayIdmNS3_8NWrapperILm64EEEEELb1EEEESaISA_EESaISC_EEESaISF_ENSt8__detail10_Select1stESt8equal_toImESt4hashImENSH_18_Mod_range_hashingENSH_20_Default_ranged_hashENSH_20_Prime_rehash_policyENSH_17_Hashtable_traitsILb0ELb0ELb1EEEE9_M_rehashEmRS1_
FN:2535,_ZNSt10_HashtableImSt4pairIKmSt6vectorIS0_IbdESaIS3_EEESaIS6_ENSt8__detail10_Select1stESt8equal_toImESt4hashImENS8_18_Mod_range_hashingENS8_20_Default_ranged_hashENS8_20_Prime_rehash_policyENS8_17_Hashtable_traitsILb0ELb0ELb1EEEE9_M_rehashEmRS1_
FN:2535,_ZNSt10_HashtableIjjSaIjENSt8__detail9_IdentityESt8equal_toIjESt4hashIjENS1_18_Mod_range_hashingENS1_20_Default_ranged_hashENS1_20_Prime_rehash_policyENS1_17_Hashtable_traitsILb0ELb1ELb1EEEE9_M_rehashEmRKm
FN:2535,_ZNSt10_HashtableImSt4pairIKmSt6vectorIS0_IbN11MetaPhysicL10DualNumberIdNS3_28SemiDynamicSparseNumberArrayIdmNS3_8NWrapperILm64EEEEELb1EEEESaISA_EEESaISD_ENSt8__detail10_Select1stESt8equal_toImESt4hashImENSF_18_Mod_range_hashingENSF_20_Default_ranged_hashENSF_20_Prime_rehash_policyENSF_17_Hashtable_traitsILb0ELb0ELb1EEEE9_M_rehashEmRS1_
FN:2558,_ZNSt10_HashtableImSt4pairIKmSt6vectorIS0_IbN11MetaPhysicL10DualNumberIdNS3_28SemiDynamicSparseNumberArrayIdmNS3_8NWrapperILm64EEEEELb1EEEESaISA_EEESaISD_ENSt8__detail10_Select1stESt8equal_toImESt4hashImENSF_18_Mod_range_hashingENSF_20_Default_ranged_hashENSF_20_Prime_rehash_policyENSF_17_Hashtable_traitsILb0ELb0ELb1EEEE13_M_rehash_auxEmSt17integral_constantIbLb1EE
FN:2558,_ZNSt10_HashtableIjjSaIjENSt8__detail9_IdentityESt8equal_toIjESt4hashIjENS1_18_Mod_range_hashingENS1_20_Default_ranged_hashENS1_20_Prime_rehash_policyENS1_17_Hashtable_traitsILb0ELb1ELb1EEEE13_M_rehash_auxEmSt17integral_constantIbLb1EE
FN:2558,_ZNSt10_HashtableImSt4pairIKmSt6vectorIS0_IbdESaIS3_EEESaIS6_ENSt8__detail10_Select1stESt8equal_toImESt4hashImENS8_18_Mod_range_hashingENS8_20_Default_ranged_hashENS8_20_Prime_rehash_policyENS8_17_Hashtable_traitsILb0ELb0ELb1EEEE13_M_rehash_auxEmSt17integral_constantIbLb1EE
FN:2558,_ZNSt10_HashtableImSt4pairIKmSt6vectorIS2_IS0_IbdESaIS3_EESaIS5_EEESaIS8_ENSt8__detail10_Select1stESt8equal_toImESt4hashImENSA_18_Mod_range_hashingENSA_20_Default_ranged_hashENSA_20_Prime_rehash_policyENSA_17_Hashtable_traitsILb0ELb0ELb1EEEE13_M_rehash_auxEmSt17integral_constantIbLb1EE
FN:2558,_ZNSt10_HashtableImSt4pairIKmSt6vectorIS2_IS0_IbN11MetaPhysicL10DualNumberIdNS3_28SemiDynamicSparseNumberArrayIdmNS3_8NWrapperILm64EEEEELb1EEEESaISA_EESaISC_EEESaISF_ENSt8__detail10_Select1stESt8equal_toImESt4hashImENSH_18_Mod_range_hashingENSH_20_Default_ranged_hashENSH_20_Prime_rehash_policyENSH_17_Hashtable_traitsILb0ELb0ELb1EEEE13_M_rehash_auxEmSt17integral_constantIbLb1EE
FNDA:0,_ZNKSt10_HashtableImSt4pairIKmSt6vectorIS2_IS0_IbN11MetaPhysicL10DualNumberIdNS3_28SemiDynamicSparseNumberArrayIdmNS3_8NWrapperILm64EEEEELb1EEEESaISA_EESaISC_EEESaISF_ENSt8__detail10_Select1stESt8equal_toImESt4hashImENSH_18_Mod_range_hashingENSH_20_Default_ranged_hashENSH_20_Prime_rehash_policyENSH_17_Hashtable_traitsILb0ELb0ELb1EEEE19_M_find_before_nodeEmRS1_m
FNDA:138,_ZNSt10_HashtableIjSt4pairIKjjESaIS2_ENSt8__detail10_Select1stESt8equal_toIjESt4hashIjENS4_18_Mod_range_hashingENS4_20_Default_ranged_hashENS4_20_Prime_rehash_policyENS4_17_Hashtable_traitsILb0ELb0ELb1EEEE5clearEv
FNDA:0,_ZNSt10_HashtableIjjSaIjENSt8__detail9_IdentityESt8equal_toIjESt4hashIjENS1_18_Mod_range_hashingENS1_20_Default_ranged_hashENS1_20_Prime_rehash_policyENS1_17_Hashtable_traitsILb0ELb1ELb1EEEE9_M_rehashEmRKm
FNDA:0,_ZNSt10_HashtableImSt4pairIKmSt6vectorIS2_IS0_IbdESaIS3_EESaIS5_EEESaIS8_ENSt8__detail10_Select1stESt8equal_toImESt4hashImENSA_18_Mod_range_hashingENSA_20_Default_ranged_hashENSA_20_Prime_rehash_policyENSA_17_Hashtable_traitsILb0ELb0ELb1EEEE21_M_insert_unique_nodeEmmPNSA_10_Hash_nodeIS8_Lb0EEEm
FNDA:0,_ZNSt10_HashtableINSt7__cxx1112basic_stringIcSt11char_traitsIcESaIcEEESt4pairIKS5_St10unique_ptrI10MooseArrayIN7libMesh11VectorValueIN11MetaPhysicL10DualNumberIdNSC_28SemiDynamicSparseNumberArrayIdmNSC_8NWrapperILm64EEEEELb1EEEEEESt14default_deleteISK_EEESaISO_ENSt8__detail10_Select1stESt8equal_toIS5_ESt4hashIS5_ENSQ_18_Mod_range_hashingENSQ_20_Default_ranged_hashENSQ_20_Prime_rehash_policyENSQ_17_Hashtable_traitsILb1ELb0ELb1EEEE5clearEv
FNDA:226,_ZNSt10_HashtableINSt7__cxx1112basic_stringIcSt11char_traitsIcESaIcEEESt4pairIKS5_St6vectorIjSaIjEEESaISB_ENSt8__detail10_Select1stESt8equal_toIS5_ESt4hashIS5_ENSD_18_Mod_range_hashingENSD_20_Default_ranged_hashENSD_20_Prime_rehash_policyENSD_17_Hashtable_traitsILb1ELb0ELb1EEEE21_M_deallocate_bucketsEv
FNDA:364,_ZNSt10_HashtableIjjSaIjENSt8__detail9_IdentityESt8equal_toIjESt4hashIjENS1_18_Mod_range_hashingENS1_20_Default_ranged_hashENS1_20_Prime_rehash_policyENS1_17_Hashtable_traitsILb0ELb1ELb1EEEE21_M_deallocate_bucketsEv
FNDA:0,_ZNSt10_HashtableImSt4pairIKmSt6vectorIS0_IbN11MetaPhysicL10DualNumberIdNS3_28SemiDynamicSparseNumberArrayIdmNS3_8NWrapperILm64EEEEELb1EEEESaISA_EEESaISD_ENSt8__detail10_Select1stESt8equal_toImESt4hashImENSF_18_Mod_range_hashingENSF_20_Default_ranged_hashENSF_20_Prime_rehash_policyENSF_17_Hashtable_traitsILb0ELb0ELb1EEEE5clearEv
FNDA:226,_ZNSt10_HashtableINSt7__cxx1112basic_stringIcSt11char_traitsIcESaIcEEESt4pairIKS5_St10unique_ptrI10MooseArrayIN5Eigen6MatrixIdLin1ELi1ELi0ELin1ELi1EEEESt14default_deleteISD_EEESaISH_ENSt8__detail10_Select1stESt8equal_toIS5_ESt4hashIS5_ENSJ_18_Mod_range_hashingENSJ_20_Default_ranged_hashENSJ_20_Prime_rehash_policyENSJ_17_Hashtable_traitsILb1ELb0ELb1EEEE21_M_deallocate_bucketsEv
FNDA:0,_ZNSt10_HashtableImSt4pairIKmSt6vectorIS0_IbN11MetaPhysicL10DualNumberIdNS3_28SemiDynamicSparseNumberArrayIdmNS3_8NWrapperILm64EEEEELb1EEEESaISA_EEESaISD_ENSt8__detail10_Select1stESt8equal_toImESt4hashImENSF_18_Mod_range_hashingENSF_20_Default_ranged_hashENSF_20_Prime_rehash_policyENSF_17_Hashtable_traitsILb0ELb0ELb1EEEE21_M_deallocate_bucketsEv
FNDA:0,_ZNSt10_HashtableImSt4pairIKmSt6vectorIS2_IS0_IbN11MetaPhysicL10DualNumberIdNS3_28SemiDynamicSparseNumberArrayIdmNS3_8NWrapperILm64EEEEELb1EEEESaISA_EESaISC_EEESaISF_ENSt8__detail10_Select1stESt8equal_toImESt4hashImENSH_18_Mod_range_hashingENSH_20_Default_ranged_hashENSH_20_Prime_rehash_policyENSH_17_Hashtable_traitsILb0ELb0ELb1EEEE5clearEv
FNDA:0,_ZNSt10_HashtableImSt4pairIKmSt6vectorIS2_IS0_IbN11MetaPhysicL10DualNumberIdNS3_28SemiDynamicSparseNumberArrayIdmNS3_8NWrapperILm64EEEEELb1EEEESaISA_EESaISC_EEESaISF_ENSt8__detail10_Select1stESt8equal_toImESt4hashImENSH_18_Mod_range_hashingENSH_20_Default_ranged_hashENSH_20_Prime_rehash_policyENSH_17_Hashtable_traitsILb0ELb0ELb1EEEE21_M_insert_unique_nodeEmmPNSH_10_Hash_nodeISF_Lb0EEEm
FNDA:6,_ZNSt10_HashtableIssSaIsENSt8__detail9_IdentityESt8equal_toIsESt4hashIsENS1_18_Mod_range_hashingENS1_20_Default_ranged_hashENS1_20_Prime_rehash_policyENS1_17_Hashtable_traitsILb0ELb1ELb1EEEE21_M_deallocate_bucketsEv
FNDA:0,_ZNSt10_HashtableImSt4pairIKmSt6vectorIS0_IbdESaIS3_EEESaIS6_ENSt8__detail10_Select1stESt8equal_toImESt4hashImENS8_18_Mod_range_hashingENS8_20_Default_ranged_hashENS8_20_Prime_rehash_policyENS8_17_Hashtable_traitsILb0ELb0ELb1EEEE22_M_insert_bucket_beginEmPNS8_10_Hash_nodeIS6_Lb0EEE
FNDA:0,_ZNSt10_HashtableImSt4pairIKmSt6vectorIS0_IbN11MetaPhysicL10DualNumberIdNS3_28SemiDynamicSparseNumberArrayIdmNS3_8NWrapperILm64EEEEELb1EEEESaISA_EEESaISD_ENSt8__detail10_Select1stESt8equal_toImESt4hashImENSF_18_Mod_range_hashingENSF_20_Default_ranged_hashENSF_20_Prime_rehash_policyENSF_17_Hashtable_traitsILb0ELb0ELb1EEEE9_M_rehashEmRS1_
FNDA:226,_ZNSt10_HashtableINSt7__cxx1112basic_stringIcSt11char_traitsIcESaIcEEESt4pairIKS5_St10unique_ptrI10MooseArrayIN7libMesh11VectorValueIdEEESt14default_deleteISD_EEESaISH_ENSt8__detail10_Select1stESt8equal_toIS5_ESt4hashIS5_ENSJ_18_Mod_range_hashingENSJ_20_Default_ranged_hashENSJ_20_Prime_rehash_policyENSJ_17_Hashtable_traitsILb1ELb0ELb1EEEE21_M_deallocate_bucketsEv
FNDA:0,_ZNSt10_HashtableImSt4pairIKmSt6vectorIS2_IS0_IbN11MetaPhysicL10DualNumberIdNS3_28SemiDynamicSparseNumberArrayIdmNS3_8NWrapperILm64EEEEELb1EEEESaISA_EESaISC_EEESaISF_ENSt8__detail10_Select1stESt8equal_toImESt4hashImENSH_18_Mod_range_hashingENSH_20_Default_ranged_hashENSH_20_Prime_rehash_policyENSH_17_Hashtable_traitsILb0ELb0ELb1EEEE22_M_insert_bucket_beginEmPNSH_10_Hash_nodeISF_Lb0EEE
FNDA:0,_ZNSt10_HashtableIjjSaIjENSt8__detail9_IdentityESt8equal_toIjESt4hashIjENS1_18_Mod_range_hashingENS1_20_Default_ranged_hashENS1_20_Prime_rehash_policyENS1_17_Hashtable_traitsILb0ELb1ELb1EEEE16_M_insert_uniqueIjjNS1_10_AllocNodeISaINS1_10_Hash_nodeIjLb0EEEEEEEESt4pairINS1_14_Node_iteratorIjLb1ELb0EEEbEOT_OT0_RKT1_
FNDA:452,_ZNSt10_HashtableINSt7__cxx1112basic_stringIcSt11char_traitsIcESaIcEEESt4pairIKS5_St6vectorIP19MooseVariableScalarSaISA_EEESaISD_ENSt8__detail10_Select1stESt8equal_toIS5_ESt4hashIS5_ENSF_18_Mod_range_hashingENSF_20_Default_ranged_hashENSF_20_Prime_rehash_policyENSF_17_Hashtable_traitsILb1ELb0ELb1EEEE21_M_deallocate_bucketsEv
FNDA:0,_ZNSt10_HashtableImSt4pairIKmSt6vectorIS2_IS0_IbN11MetaPhysicL10DualNumberIdNS3_28SemiDynamicSparseNumberArrayIdmNS3_8NWrapperILm64EEEEELb1EEEESaISA_EESaISC_EEESaISF_ENSt8__detail10_Select1stESt8equal_toImESt4hashImENSH_18_Mod_range_hashingENSH_20_Default_ranged_hashENSH_20_Prime_rehash_policyENSH_17_Hashtable_traitsILb0ELb0ELb1EEEE12_Scoped_nodeD2Ev
FNDA:0,_ZNSt10_HashtableImSt4pairIKmSt6vectorIS0_IbN11MetaPhysicL10DualNumberIdNS3_28SemiDynamicSparseNumberArrayIdmNS3_8NWrapperILm64EEEEELb1EEEESaISA_EEESaISD_ENSt8__detail10_Select1stESt8equal_toImESt4hashImENSF_18_Mod_range_hashingENSF_20_Default_ranged_hashENSF_20_Prime_rehash_policyENSF_17_Hashtable_traitsILb0ELb0ELb1EEEE22_M_insert_bucket_beginEmPNSF_10_Hash_nodeISD_Lb0EEE
FNDA:0,_ZNSt10_HashtableImSt4pairIKmSt6vectorIS2_IS0_IbdESaIS3_EESaIS5_EEESaIS8_ENSt8__detail10_Select1stESt8equal_toImESt4hashImENSA_18_Mod_range_hashingENSA_20_Default_ranged_hashENSA_20_Prime_rehash_policyENSA_17_Hashtable_traitsILb0ELb0ELb1EEEE13_M_rehash_auxEmSt17integral_constantIbLb1EE
FNDA:0,_ZNSt10_HashtableImSt4pairIKmSt6vectorIS2_IS0_IbdESaIS3_EESaIS5_EEESaIS8_ENSt8__detail10_Select1stESt8equal_toImESt4hashImENSA_18_Mod_range_hashingENSA_20_Default_ranged_hashENSA_20_Prime_rehash_policyENSA_17_Hashtable_traitsILb0ELb0ELb1EEEE22_M_insert_bucket_beginEmPNSA_10_Hash_nodeIS8_Lb0EEE
FNDA:0,_ZNSt10_HashtableImSt4pairIKmSt6vectorIS2_IS0_IbN11MetaPhysicL10DualNumberIdNS3_28SemiDynamicSparseNumberArrayIdmNS3_8NWrapperILm64EEEEELb1EEEESaISA_EESaISC_EEESaISF_ENSt8__detail10_Select1stESt8equal_toImESt4hashImENSH_18_Mod_range_hashingENSH_20_Default_ranged_hashENSH_20_Prime_rehash_policyENSH_17_Hashtable_traitsILb0ELb0ELb1EEEE13_M_rehash_auxEmSt17integral_constantIbLb1EE
FNDA:0,_ZNSt10_HashtableINSt7__cxx1112basic_stringIcSt11char_traitsIcESaIcEEESt4pairIKS5_St6vectorIjSaIjEEESaISB_ENSt8__detail10_Select1stESt8equal_toIS5_ESt4hashIS5_ENSD_18_Mod_range_hashingENSD_20_Default_ranged_hashENSD_20_Prime_rehash_policyENSD_17_Hashtable_traitsILb1ELb0ELb1EEEE5clearEv
FNDA:0,_ZNSt10_HashtableINSt7__cxx1112basic_stringIcSt11char_traitsIcESaIcEEESt4pairIKS5_St10unique_ptrI10MooseArrayIN11MetaPhysicL10DualNumberIdNSA_28SemiDynamicSparseNumberArrayIdmNSA_8NWrapperILm64EEEEELb1EEEESt14default_deleteISH_EEESaISL_ENSt8__detail10_Select1stESt8equal_toIS5_ESt4hashIS5_ENSN_18_Mod_range_hashingENSN_20_Default_ranged_hashENSN_20_Prime_rehash_policyENSN_17_Hashtable_traitsILb1ELb0ELb1EEEE5clearEv
FNDA:0,_ZNSt10_HashtableImSt4pairIKmSt6vectorIS0_IbN11MetaPhysicL10DualNumberIdNS3_28SemiDynamicSparseNumberArrayIdmNS3_8NWrapperILm64EEEEELb1EEEESaISA_EEESaISD_ENSt8__detail10_Select1stESt8equal_toImESt4hashImENSF_18_Mod_range_hashingENSF_20_Default_ranged_hashENSF_20_Prime_rehash_policyENSF_17_Hashtable_traitsILb0ELb0ELb1EEEE21_M_insert_unique_nodeEmmPNSF_10_Hash_nodeISD_Lb0EEEm
FNDA:0,_ZNSt10_HashtableINSt7__cxx1112basic_stringIcSt11char_traitsIcESaIcEEESt4pairIKS5_St10unique_ptrI10MooseArrayIN5Eigen6MatrixIdLin1ELi1ELi0ELin1ELi1EEEESt14default_deleteISD_EEESaISH_ENSt8__detail10_Select1stESt8equal_toIS5_ESt4hashIS5_ENSJ_18_Mod_range_hashingENSJ_20_Default_ranged_hashENSJ_20_Prime_rehash_policyENSJ_17_Hashtable_traitsILb1ELb0ELb1EEEE5clearEv
FNDA:0,_ZNSt10_HashtableIssSaIsENSt8__detail9_IdentityESt8equal_toIsESt4hashIsENS1_18_Mod_range_hashingENS1_20_Default_ranged_hashENS1_20_Prime_rehash_policyENS1_17_Hashtable_traitsILb0ELb1ELb1EEEE5clearEv
FNDA:0,_ZNSt10_HashtableImSt4pairIKmSt6vectorIS0_IbdESaIS3_EEESaIS6_ENSt8__detail10_Select1stESt8equal_toImESt4hashImENS8_18_Mod_range_hashingENS8_20_Default_ranged_hashENS8_20_Prime_rehash_policyENS8_17_Hashtable_traitsILb0ELb0ELb1EEEE21_M_insert_unique_nodeEmmPNS8_10_Hash_nodeIS6_Lb0EEEm
FNDA:226,_ZNSt10_HashtableINSt7__cxx1112basic_stringIcSt11char_traitsIcESaIcEEESt4pairIKS5_St6vectorISt10unique_ptrI10MooseArrayIdESt14default_deleteISB_EESaISE_EEESaISH_ENSt8__detail10_Select1stESt8equal_toIS5_ESt4hashIS5_ENSJ_18_Mod_range_hashingENSJ_20_Default_ranged_hashENSJ_20_Prime_rehash_policyENSJ_17_Hashtable_traitsILb1ELb0ELb1EEEE21_M_deallocate_bucketsEv
FNDA:0,_ZNSt10_HashtableImSt4pairIKmSt6vectorIS0_IbN11MetaPhysicL10DualNumberIdNS3_28SemiDynamicSparseNumberArrayIdmNS3_8NWrapperILm64EEEEELb1EEEESaISA_EEESaISD_ENSt8__detail10_Select1stESt8equal_toImESt4hashImENSF_18_Mod_range_hashingENSF_20_Default_ranged_hashENSF_20_Prime_rehash_policyENSF_17_Hashtable_traitsILb0ELb0ELb1EEEE12_Scoped_nodeD2Ev
FNDA:0,_ZNKSt10_HashtableImSt4pairIKmSt6vectorIS2_IS0_IbdESaIS3_EESaIS5_EEESaIS8_ENSt8__detail10_Select1stESt8equal_toImESt4hashImENSA_18_Mod_range_hashingENSA_20_Default_ranged_hashENSA_20_Prime_rehash_policyENSA_17_Hashtable_traitsILb0ELb0ELb1EEEE19_M_find_before_nodeEmRS1_m
FNDA:0,_ZNKSt10_HashtableImSt4pairIKmSt6vectorIS0_IbN11MetaPhysicL10DualNumberIdNS3_28SemiDynamicSparseNumberArrayIdmNS3_8NWrapperILm64EEEEELb1EEEESaISA_EEESaISD_ENSt8__detail10_Select1stESt8equal_toImESt4hashImENSF_18_Mod_range_hashingENSF_20_Default_ranged_hashENSF_20_Prime_rehash_policyENSF_17_Hashtable_traitsILb0ELb0ELb1EEEE19_M_find_before_nodeEmRS1_m
FNDA:0,_ZNSt10_HashtableIjjSaIjENSt8__detail9_IdentityESt8equal_toIjESt4hashIjENS1_18_Mod_range_hashingENS1_20_Default_ranged_hashENS1_20_Prime_rehash_policyENS1_17_Hashtable_traitsILb0ELb1ELb1EEEE12_Scoped_nodeD2Ev
FNDA:0,_ZNSt10_HashtableINSt7__cxx1112basic_stringIcSt11char_traitsIcESaIcEEESt4pairIKS5_St6vectorIP22MooseVariableFieldBaseSaISA_EEESaISD_ENSt8__detail10_Select1stESt8equal_toIS5_ESt4hashIS5_ENSF_18_Mod_range_hashingENSF_20_Default_ranged_hashENSF_20_Prime_rehash_policyENSF_17_Hashtable_traitsILb1ELb0ELb1EEEE5clearEv
FNDA:226,_ZNSt10_HashtableINSt7__cxx1112basic_stringIcSt11char_traitsIcESaIcEEESt4pairIKS5_St10unique_ptrI10MooseArrayIN7libMesh11VectorValueIN11MetaPhysicL10DualNumberIdNSC_28SemiDynamicSparseNumberArrayIdmNSC_8NWrapperILm64EEEEELb1EEEEEESt14default_deleteISK_EEESaISO_ENSt8__detail10_Select1stESt8equal_toIS5_ESt4hashIS5_ENSQ_18_Mod_range_hashingENSQ_20_Default_ranged_hashENSQ_20_Prime_rehash_policyENSQ_17_Hashtable_traitsILb1ELb0ELb1EEEE21_M_deallocate_bucketsEv
FNDA:0,_ZNKSt10_HashtableImSt4pairIKmSt6vectorIS0_IbdESaIS3_EEESaIS6_ENSt8__detail10_Select1stESt8equal_toImESt4hashImENS8_18_Mod_range_hashingENS8_20_Default_ranged_hashENS8_20_Prime_rehash_policyENS8_17_Hashtable_traitsILb0ELb0ELb1EEEE19_M_find_before_nodeEmRS1_m
FNDA:0,_ZNSt10_HashtableImSt4pairIKmSt6vectorIS2_IS0_IbdESaIS3_EESaIS5_EEESaIS8_ENSt8__detail10_Select1stESt8equal_toImESt4hashImENSA_18_Mod_range_hashingENSA_20_Default_ranged_hashENSA_20_Prime_rehash_policyENSA_17_Hashtable_traitsILb0ELb0ELb1EEEE12_Scoped_nodeD2Ev
FNDA:0,_ZNSt10_HashtableImSt4pairIKmSt6vectorIS2_IS0_IbdESaIS3_EESaIS5_EEESaIS8_ENSt8__detail10_Select1stESt8equal_toImESt4hashImENSA_18_Mod_range_hashingENSA_20_Default_ranged_hashENSA_20_Prime_rehash_policyENSA_17_Hashtable_traitsILb0ELb0ELb1EEEE9_M_rehashEmRS1_
FNDA:0,_ZNKSt10_HashtableIjjSaIjENSt8__detail9_IdentityESt8equal_toIjESt4hashIjENS1_18_Mod_range_hashingENS1_20_Default_ranged_hashENS1_20_Prime_rehash_policyENS1_17_Hashtable_traitsILb0ELb1ELb1EEEE22_M_find_before_node_trIjEEPNS1_15_Hash_node_baseEmRKT_m
FNDA:0,_ZNSt10_HashtableIjjSaIjENSt8__detail9_IdentityESt8equal_toIjESt4hashIjENS1_18_Mod_range_hashingENS1_20_Default_ranged_hashENS1_20_Prime_rehash_policyENS1_17_Hashtable_traitsILb0ELb1ELb1EEEE21_M_insert_unique_nodeEmmPNS1_10_Hash_nodeIjLb0EEEm
FNDA:0,_ZNSt10_HashtableImSt4pairIKmSt6vectorIS2_IS0_IbdESaIS3_EESaIS5_EEESaIS8_ENSt8__detail10_Select1stESt8equal_toImESt4hashImENSA_18_Mod_range_hashingENSA_20_Default_ranged_hashENSA_20_Prime_rehash_policyENSA_17_Hashtable_traitsILb0ELb0ELb1EEEE21_M_deallocate_bucketsEv
FNDA:0,_ZNSt10_HashtableINSt7__cxx1112basic_stringIcSt11char_traitsIcESaIcEEESt4pairIKS5_St6vectorISt10unique_ptrI10MooseArrayIdESt14default_deleteISB_EESaISE_EEESaISH_ENSt8__detail10_Select1stESt8equal_toIS5_ESt4hashIS5_ENSJ_18_Mod_range_hashingENSJ_20_Default_ranged_hashENSJ_20_Prime_rehash_policyENSJ_17_Hashtable_traitsILb1ELb0ELb1EEEE5clearEv
FNDA:0,_ZNSt10_HashtableImSt4pairIKmSt6vectorIS0_IbdESaIS3_EEESaIS6_ENSt8__detail10_Select1stESt8equal_toImESt4hashImENS8_18_Mod_range_hashingENS8_20_Default_ranged_hashENS8_20_Prime_rehash_policyENS8_17_Hashtable_traitsILb0ELb0ELb1EEEE21_M_deallocate_bucketsEv
FNDA:0,_ZNSt10_HashtableINSt7__cxx1112basic_stringIcSt11char_traitsIcESaIcEEESt4pairIKS5_St6vectorIP19MooseVariableScalarSaISA_EEESaISD_ENSt8__detail10_Select1stESt8equal_toIS5_ESt4hashIS5_ENSF_18_Mod_range_hashingENSF_20_Default_ranged_hashENSF_20_Prime_rehash_policyENSF_17_Hashtable_traitsILb1ELb0ELb1EEEE5clearEv
FNDA:0,_ZNSt10_HashtableIjjSaIjENSt8__detail9_IdentityESt8equal_toIjESt4hashIjENS1_18_Mod_range_hashingENS1_20_Default_ranged_hashENS1_20_Prime_rehash_policyENS1_17_Hashtable_traitsILb0ELb1ELb1EEEE22_M_insert_bucket_beginEmPNS1_10_Hash_nodeIjLb0EEE
FNDA:0,_ZNSt10_HashtableImSt4pairIKmSt6vectorIS0_IbN11MetaPhysicL10DualNumberIdNS3_28SemiDynamicSparseNumberArrayIdmNS3_8NWrapperILm64EEEEELb1EEEESaISA_EEESaISD_ENSt8__detail10_Select1stESt8equal_toImESt4hashImENSF_18_Mod_range_hashingENSF_20_Default_ranged_hashENSF_20_Prime_rehash_policyENSF_17_Hashtable_traitsILb0ELb0ELb1EEEE13_M_rehash_auxEmSt17integral_constantIbLb1EE
FNDA:138,_ZNSt10_HashtableIjSt4pairIKjjESaIS2_ENSt8__detail10_Select1stESt8equal_toIjESt4hashIjENS4_18_Mod_range_hashingENS4_20_Default_ranged_hashENS4_20_Prime_rehash_policyENS4_17_Hashtable_traitsILb0ELb0ELb1EEEE21_M_deallocate_bucketsEv
FNDA:226,_ZNSt10_HashtableIjjSaIjENSt8__detail9_IdentityESt8equal_toIjESt4hashIjENS1_18_Mod_range_hashingENS1_20_Default_ranged_hashENS1_20_Prime_rehash_policyENS1_17_Hashtable_traitsILb0ELb1ELb1EEEE5clearEv
FNDA:0,_ZNSt10_HashtableImSt4pairIKmSt6vectorIS0_IbdESaIS3_EEESaIS6_ENSt8__detail10_Select1stESt8equal_toImESt4hashImENS8_18_Mod_range_hashingENS8_20_Default_ranged_hashENS8_20_Prime_rehash_policyENS8_17_Hashtable_traitsILb0ELb0ELb1EEEE12_Scoped_nodeD2Ev
FNDA:0,_ZNSt10_HashtableImSt4pairIKmSt6vectorIS2_IS0_IbN11MetaPhysicL10DualNumberIdNS3_28SemiDynamicSparseNumberArrayIdmNS3_8NWrapperILm64EEEEELb1EEEESaISA_EESaISC_EEESaISF_ENSt8__detail10_Select1stESt8equal_toImESt4hashImENSH_18_Mod_range_hashingENSH_20_Default_ranged_hashENSH_20_Prime_rehash_policyENSH_17_Hashtable_traitsILb0ELb0ELb1EEEE21_M_deallocate_bucketsEv
FNDA:0,_ZNSt10_HashtableImSt4pairIKmSt6vectorIS2_IS0_IbN11MetaPhysicL10DualNumberIdNS3_28SemiDynamicSparseNumberArrayIdmNS3_8NWrapperILm64EEEEELb1EEEESaISA_EESaISC_EEESaISF_ENSt8__detail10_Select1stESt8equal_toImESt4hashImENSH_18_Mod_range_hashingENSH_20_Default_ranged_hashENSH_20_Prime_rehash_policyENSH_17_Hashtable_traitsILb0ELb0ELb1EEEE9_M_rehashEmRS1_
FNDA:0,_ZNSt10_HashtableIjjSaIjENSt8__detail9_IdentityESt8equal_toIjESt4hashIjENS1_18_Mod_range_hashingENS1_20_Default_ranged_hashENS1_20_Prime_rehash_policyENS1_17_Hashtable_traitsILb0ELb1ELb1EEEE13_M_rehash_auxEmSt17integral_constantIbLb1EE
FNDA:0,_ZNSt10_HashtableINSt7__cxx1112basic_stringIcSt11char_traitsIcESaIcEEESt4pairIKS5_S5_ESaIS8_ENSt8__detail10_Select1stESt8equal_toIS5_ESt4hashIS5_ENSA_18_Mod_range_hashingENSA_20_Default_ranged_hashENSA_20_Prime_rehash_policyENSA_17_Hashtable_traitsILb1ELb0ELb1EEEE5clearEv
FNDA:0,_ZNSt10_HashtableImSt4pairIKmSt6vectorIS0_IbdESaIS3_EEESaIS6_ENSt8__detail10_Select1stESt8equal_toImESt4hashImENS8_18_Mod_range_hashingENS8_20_Default_ranged_hashENS8_20_Prime_rehash_policyENS8_17_Hashtable_traitsILb0ELb0ELb1EEEE13_M_rehash_auxEmSt17integral_constantIbLb1EE
FNDA:226,_ZNSt10_HashtableINSt7__cxx1112basic_stringIcSt11char_traitsIcESaIcEEESt4pairIKS5_St10unique_ptrI10MooseArrayIdESt14default_deleteISA_EEESaISE_ENSt8__detail10_Select1stESt8equal_toIS5_ESt4hashIS5_ENSG_18_Mod_range_hashingENSG_20_Default_ranged_hashENSG_20_Prime_rehash_policyENSG_17_Hashtable_traitsILb1ELb0ELb1EEEE21_M_deallocate_bucketsEv
FNDA:452,_ZNSt10_HashtableINSt7__cxx1112basic_stringIcSt11char_traitsIcESaIcEEESt4pairIKS5_St6vectorIP22MooseVariableFieldBaseSaISA_EEESaISD_ENSt8__detail10_Select1stESt8equal_toIS5_ESt4hashIS5_ENSF_18_Mod_range_hashingENSF_20_Default_ranged_hashENSF_20_Prime_rehash_policyENSF_17_Hashtable_traitsILb1ELb0ELb1EEEE21_M_deallocate_bucketsEv
FNDA:0,_ZNSt10_HashtableINSt7__cxx1112basic_stringIcSt11char_traitsIcESaIcEEESt4pairIKS5_St10unique_ptrI10MooseArrayIN7libMesh11VectorValueIdEEESt14default_deleteISD_EEESaISH_ENSt8__detail10_Select1stESt8equal_toIS5_ESt4hashIS5_ENSJ_18_Mod_range_hashingENSJ_20_Default_ranged_hashENSJ_20_Prime_rehash_policyENSJ_17_Hashtable_traitsILb1ELb0ELb1EEEE5clearEv
FNDA:0,_ZNSt10_HashtableImSt4pairIKmSt6vectorIS0_IbdESaIS3_EEESaIS6_ENSt8__detail10_Select1stESt8equal_toImESt4hashImENS8_18_Mod_range_hashingENS8_20_Default_ranged_hashENS8_20_Prime_rehash_policyENS8_17_Hashtable_traitsILb0ELb0ELb1EEEE5clearEv
FNDA:452,_ZNSt10_HashtableINSt7__cxx1112basic_stringIcSt11char_traitsIcESaIcEEESt4pairIKS5_St10unique_ptrI10MooseArrayIN11MetaPhysicL10DualNumberIdNSA_28SemiDynamicSparseNumberArrayIdmNSA_8NWrapperILm64EEEEELb1EEEESt14default_deleteISH_EEESaISL_ENSt8__detail10_Select1stESt8equal_toIS5_ESt4hashIS5_ENSN_18_Mod_range_hashingENSN_20_Default_ranged_hashENSN_20_Prime_rehash_policyENSN_17_Hashtable_traitsILb1ELb0ELb1EEEE21_M_deallocate_bucketsEv
FNDA:0,_ZNSt10_HashtableINSt7__cxx1112basic_stringIcSt11char_traitsIcESaIcEEESt4pairIKS5_St10unique_ptrI10MooseArrayIdESt14default_deleteISA_EEESaISE_ENSt8__detail10_Select1stESt8equal_toIS5_ESt4hashIS5_ENSG_18_Mod_range_hashingENSG_20_Default_ranged_hashENSG_20_Prime_rehash_policyENSG_17_Hashtable_traitsILb1ELb0ELb1EEEE5clearEv
FNDA:20,_ZNSt10_HashtableINSt7__cxx1112basic_stringIcSt11char_traitsIcESaIcEEESt4pairIKS5_S5_ESaIS8_ENSt8__detail10_Select1stESt8equal_toIS5_ESt4hashIS5_ENSA_18_Mod_range_hashingENSA_20_Default_ranged_hashENSA_20_Prime_rehash_policyENSA_17_Hashtable_traitsILb1ELb0ELb1EEEE21_M_deallocate_bucketsEv
FNDA:0,_ZNSt10_HashtableImSt4pairIKmSt6vectorIS0_IbdESaIS3_EEESaIS6_ENSt8__detail10_Select1stESt8equal_toImESt4hashImENS8_18_Mod_range_hashingENS8_20_Default_ranged_hashENS8_20_Prime_rehash_policyENS8_17_Hashtable_traitsILb0ELb0ELb1EEEE9_M_rehashEmRS1_
FNDA:0,_ZNSt10_HashtableImSt4pairIKmSt6vectorIS2_IS0_IbdESaIS3_EESaIS5_EEESaIS8_ENSt8__detail10_Select1stESt8equal_toImESt4hashImENSA_18_Mod_range_hashingENSA_20_Default_ranged_hashENSA_20_Prime_rehash_policyENSA_17_Hashtable_traitsILb0ELb0ELb1EEEE5clearEv
FNF:65
FNH:15
DA:301,0
DA:302,0
DA:306,0
DA:307,0
DA:308,0
DA:312,0
DA:418,3240
DA:437,0
DA:439,0
DA:440,0
DA:443,0
DA:449,3240
DA:456,3240
DA:457,3240
DA:466,0
DA:649,0
DA:794,0
DA:798,0
DA:816,0
DA:817,0
DA:818,0
DA:827,0
DA:828,0
DA:829,0
DA:906,0
DA:1584,20
DA:1585,20
DA:1924,0
DA:1930,0
DA:1931,0
DA:1934,0
DA:1938,0
DA:1940,0
DA:1954,0
DA:1960,0
DA:1961,0
DA:1964,0
DA:1968,0
DA:1970,0
DA:1983,0
DA:1987,0
DA:1991,0
DA:1992,0
DA:1999,0
DA:2000,0
DA:2002,0
DA:2005,0
DA:2007,0
DA:2009,0
DA:2142,0
DA:2148,0
DA:2150,0
DA:2153,0
DA:2155,0
DA:2162,0
DA:2163,0
DA:2164,0
DA:2229,0
DA:2235,0
DA:2236,0
DA:2237,0
DA:2238,0
DA:2243,0
DA:2244,0
DA:2245,0
DA:2254,0
DA:2255,0
DA:2256,0
DA:2257,0
DA:2496,364
DA:2500,0
DA:2501,364
DA:2502,364
DA:2503,364
DA:2504,364
DA:2505,364
DA:2535,0
DA:2541,0
DA:2543,0
DA:2547,0
DA:2548,0
DA:2550,0
DA:2558,0
DA:2564,0
DA:2566,0
DA:2571,0
DA:2573,0
DA:2574,0
DA:2575,0
DA:2576,0
DA:2577,0
DA:2582,0
DA:2583,0
DA:2589,0
DA:2590,0
DA:2591,0
DA:2592,0
LF:97
LH:12
end_of_record
TN:
SF:/usr/share/miniconda3/envs/moose/lib/gcc/x86_64-conda-linux-gnu/12.3.0/include/c++/bits/hashtable_policy.h
FN:767,_ZNSt8__detail9_Map_baseImSt4pairIKmSt6vectorIS1_IbN11MetaPhysicL10DualNumberIdNS4_28SemiDynamicSparseNumberArrayIdmNS4_8NWrapperILm64EEEEELb1EEEESaISB_EEESaISE_ENS_10_Select1stESt8equal_toImESt4hashImENS_18_Mod_range_hashingENS_20_Default_ranged_hashENS_20_Prime_rehash_policyENS_17_Hashtable_traitsILb0ELb0ELb1EEELb1EEixERS2_
FN:767,_ZNSt8__detail9_Map_baseImSt4pairIKmSt6vectorIS3_IS1_IbdESaIS4_EESaIS6_EEESaIS9_ENS_10_Select1stESt8equal_toImESt4hashImENS_18_Mod_range_hashingENS_20_Default_ranged_hashENS_20_Prime_rehash_policyENS_17_Hashtable_traitsILb0ELb0ELb1EEELb1EEixERS2_
FN:767,_ZNSt8__detail9_Map_baseImSt4pairIKmSt6vectorIS3_IS1_IbN11MetaPhysicL10DualNumberIdNS4_28SemiDynamicSparseNumberArrayIdmNS4_8NWrapperILm64EEEEELb1EEEESaISB_EESaISD_EEESaISG_ENS_10_Select1stESt8equal_toImESt4hashImENS_18_Mod_range_hashingENS_20_Default_ranged_hashENS_20_Prime_rehash_policyENS_17_Hashtable_traitsILb0ELb0ELb1EEELb1EEixERS2_
FN:767,_ZNSt8__detail9_Map_baseImSt4pairIKmSt6vectorIS1_IbdESaIS4_EEESaIS7_ENS_10_Select1stESt8equal_toImESt4hashImENS_18_Mod_range_hashingENS_20_Default_ranged_hashENS_20_Prime_rehash_policyENS_17_Hashtable_traitsILb0ELb0ELb1EEELb1EEixERS2_
FN:1031,_ZNSt8__detail7_InsertIjjSaIjENS_9_IdentityESt8equal_toIjESt4hashIjENS_18_Mod_range_hashingENS_20_Default_ranged_hashENS_20_Prime_rehash_policyENS_17_Hashtable_traitsILb0ELb1ELb1EEELb1EE6insertEOj
FN:1960,_ZNSt8__detail16_Hashtable_allocISaINS_10_Hash_nodeIjLb0EEEEE16_M_allocate_nodeIJjEEEPS2_DpOT_
FN:1960,_ZNSt8__detail16_Hashtable_allocISaINS_10_Hash_nodeISt4pairIKmSt6vectorIS2_IbN11MetaPhysicL10DualNumberIdNS5_28SemiDynamicSparseNumberArrayIdmNS5_8NWrapperILm64EEEEELb1EEEESaISC_EEELb0EEEEE16_M_allocate_nodeIJRKSt21piecewise_construct_tSt5tupleIJRS3_EESN_IJEEEEEPSG_DpOT_
FN:1960,_ZNSt8__detail16_Hashtable_allocISaINS_10_Hash_nodeISt4pairIKmSt6vectorIS4_IS2_IbdESaIS5_EESaIS7_EEELb0EEEEE16_M_allocate_nodeIJRKSt21piecewise_construct_tSt5tupleIJRS3_EESI_IJEEEEEPSB_DpOT_
FN:1960,_ZNSt8__detail16_Hashtable_allocISaINS_10_Hash_nodeISt4pairIKmSt6vectorIS2_IbdESaIS5_EEELb0EEEEE16_M_allocate_nodeIJRKSt21piecewise_construct_tSt5tupleIJRS3_EESG_IJEEEEEPS9_DpOT_
FN:1960,_ZNSt8__detail16_Hashtable_allocISaINS_10_Hash_nodeISt4pairIKmSt6vectorIS4_IS2_IbN11MetaPhysicL10DualNumberIdNS5_28SemiDynamicSparseNumberArrayIdmNS5_8NWrapperILm64EEEEELb1EEEESaISC_EESaISE_EEELb0EEEEE16_M_allocate_nodeIJRKSt21piecewise_construct_tSt5tupleIJRS3_EESP_IJEEEEEPSI_DpOT_
FN:1982,_ZNSt8__detail16_Hashtable_allocISaINS_10_Hash_nodeISt4pairIKNSt7__cxx1112basic_stringIcSt11char_traitsIcESaIcEEESt10unique_ptrI10MooseArrayIN7libMesh11VectorValueIdEEESt14default_deleteISF_EEELb1EEEEE18_M_deallocate_nodeEPSK_
FN:1982,_ZNSt8__detail16_Hashtable_allocISaINS_10_Hash_nodeISt4pairIKNSt7__cxx1112basic_stringIcSt11char_traitsIcESaIcEEESt10unique_ptrI10MooseArrayIN7libMesh11VectorValueIN11MetaPhysicL10DualNumberIdNSE_28SemiDynamicSparseNumberArrayIdmNSE_8NWrapperILm64EEEEELb1EEEEEESt14default_deleteISM_EEELb1EEEEE18_M_deallocate_nodeEPSR_
FN:1982,_ZNSt8__detail16_Hashtable_allocISaINS_10_Hash_nodeISt4pairIKNSt7__cxx1112basic_stringIcSt11char_traitsIcESaIcEEESt6vectorIjSaIjEEELb1EEEEE18_M_deallocate_nodeEPSE_
FN:1982,_ZNSt8__detail16_Hashtable_allocISaINS_10_Hash_nodeISt4pairIKNSt7__cxx1112basic_stringIcSt11char_traitsIcESaIcEEESt10unique_ptrI10MooseArrayIN11MetaPhysicL10DualNumberIdNSC_28SemiDynamicSparseNumberArrayIdmNSC_8NWrapperILm64EEEEELb1EEEESt14default_deleteISJ_EEELb1EEEEE18_M_deallocate_nodeEPSO_
FN:1982,_ZNSt8__detail16_Hashtable_allocISaINS_10_Hash_nodeISt4pairIKNSt7__cxx1112basic_stringIcSt11char_traitsIcESaIcEEESt6vectorIP19MooseVariableScalarSaISC_EEELb1EEEEE18_M_deallocate_nodeEPSG_
FN:1982,_ZNSt8__detail16_Hashtable_allocISaINS_10_Hash_nodeISt4pairIKNSt7__cxx1112basic_stringIcSt11char_traitsIcESaIcEEESt6vectorIP22MooseVariableFieldBaseSaISC_EEELb1EEEEE18_M_deallocate_nodeEPSG_
FN:1982,_ZNSt8__detail16_Hashtable_allocISaINS_10_Hash_nodeISt4pairIKNSt7__cxx1112basic_stringIcSt11char_traitsIcESaIcEEESt10unique_ptrI10MooseArrayIN5Eigen6MatrixIdLin1ELi1ELi0ELin1ELi1EEEESt14default_deleteISF_EEELb1EEEEE18_M_deallocate_nodeEPSK_
FN:1982,_ZNSt8__detail16_Hashtable_allocISaINS_10_Hash_nodeISt4pairIKNSt7__cxx1112basic_stringIcSt11char_traitsIcESaIcEEES8_ELb1EEEEE18_M_deallocate_nodeEPSB_
FN:1982,_ZNSt8__detail16_Hashtable_allocISaINS_10_Hash_nodeISt4pairIKNSt7__cxx1112basic_stringIcSt11char_traitsIcESaIcEEESt10unique_ptrI10MooseArrayIdESt14default_deleteISC_EEELb1EEEEE18_M_deallocate_nodeEPSH_
FN:1982,_ZNSt8__detail16_Hashtable_allocISaINS_10_Hash_nodeISt4pairIKNSt7__cxx1112basic_stringIcSt11char_traitsIcESaIcEEESt6vectorISt10unique_ptrI10MooseArrayIdESt14default_deleteISD_EESaISG_EEELb1EEEEE18_M_deallocate_nodeEPSK_
FN:2000,_ZNSt8__detail16_Hashtable_allocISaINS_10_Hash_nodeISt4pairIKmSt6vectorIS2_IbN11MetaPhysicL10DualNumberIdNS5_28SemiDynamicSparseNumberArrayIdmNS5_8NWrapperILm64EEEEELb1EEEESaISC_EEELb0EEEEE19_M_deallocate_nodesEPSG_
FN:2000,_ZNSt8__detail16_Hashtable_allocISaINS_10_Hash_nodeISt4pairIKmSt6vectorIS2_IbdESaIS5_EEELb0EEEEE19_M_deallocate_nodesEPS9_
FN:2000,_ZNSt8__detail16_Hashtable_allocISaINS_10_Hash_nodeISt4pairIKmSt6vectorIS4_IS2_IbN11MetaPhysicL10DualNumberIdNS5_28SemiDynamicSparseNumberArrayIdmNS5_8NWrapperILm64EEEEELb1EEEESaISC_EESaISE_EEELb0EEEEE19_M_deallocate_nodesEPSI_
FN:2000,_ZNSt8__detail16_Hashtable_allocISaINS_10_Hash_nodeISt4pairIKmSt6vectorIS4_IS2_IbdESaIS5_EESaIS7_EEELb0EEEEE19_M_deallocate_nodesEPSB_
FN:2012,_ZNSt8__detail16_Hashtable_allocISaINS_10_Hash_nodeISt4pairIKmSt6vectorIS4_IS2_IbdESaIS5_EESaIS7_EEELb0EEEEE19_M_allocate_bucketsEm
FN:2012,_ZNSt8__detail16_Hashtable_allocISaINS_10_Hash_nodeISt4pairIKmSt6vectorIS4_IS2_IbN11MetaPhysicL10DualNumberIdNS5_28SemiDynamicSparseNumberArrayIdmNS5_8NWrapperILm64EEEEELb1EEEESaISC_EESaISE_EEELb0EEEEE19_M_allocate_bucketsEm
FN:2012,_ZNSt8__detail16_Hashtable_allocISaINS_10_Hash_nodeISt4pairIKmSt6vectorIS2_IbdESaIS5_EEELb0EEEEE19_M_allocate_bucketsEm
FN:2012,_ZNSt8__detail16_Hashtable_allocISaINS_10_Hash_nodeIjLb0EEEEE19_M_allocate_bucketsEm
FN:2012,_ZNSt8__detail16_Hashtable_allocISaINS_10_Hash_nodeISt4pairIKmSt6vectorIS2_IbN11MetaPhysicL10DualNumberIdNS5_28SemiDynamicSparseNumberArrayIdmNS5_8NWrapperILm64EEEEELb1EEEESaISC_EEELb0EEEEE19_M_allocate_bucketsEm
FNDA:0,_ZNSt8__detail16_Hashtable_allocISaINS_10_Hash_nodeISt4pairIKmSt6vectorIS4_IS2_IbN11MetaPhysicL10DualNumberIdNS5_28SemiDynamicSparseNumberArrayIdmNS5_8NWrapperILm64EEEEELb1EEEESaISC_EESaISE_EEELb0EEEEE19_M_deallocate_nodesEPSI_
FNDA:0,_ZNSt8__detail7_InsertIjjSaIjENS_9_IdentityESt8equal_toIjESt4hashIjENS_18_Mod_range_hashingENS_20_Default_ranged_hashENS_20_Prime_rehash_policyENS_17_Hashtable_traitsILb0ELb1ELb1EEELb1EE6insertEOj
FNDA:0,_ZNSt8__detail16_Hashtable_allocISaINS_10_Hash_nodeISt4pairIKNSt7__cxx1112basic_stringIcSt11char_traitsIcESaIcEEESt6vectorIjSaIjEEELb1EEEEE18_M_deallocate_nodeEPSE_
FNDA:0,_ZNSt8__detail9_Map_baseImSt4pairIKmSt6vectorIS3_IS1_IbdESaIS4_EESaIS6_EEESaIS9_ENS_10_Select1stESt8equal_toImESt4hashImENS_18_Mod_range_hashingENS_20_Default_ranged_hashENS_20_Prime_rehash_policyENS_17_Hashtable_traitsILb0ELb0ELb1EEELb1EEixERS2_
FNDA:0,_ZNSt8__detail16_Hashtable_allocISaINS_10_Hash_nodeISt4pairIKmSt6vectorIS2_IbN11MetaPhysicL10DualNumberIdNS5_28SemiDynamicSparseNumberArrayIdmNS5_8NWrapperILm64EEEEELb1EEEESaISC_EEELb0EEEEE16_M_allocate_nodeIJRKSt21piecewise_construct_tSt5tupleIJRS3_EESN_IJEEEEEPSG_DpOT_
FNDA:0,_ZNSt8__detail16_Hashtable_allocISaINS_10_Hash_nodeISt4pairIKmSt6vectorIS4_IS2_IbdESaIS5_EESaIS7_EEELb0EEEEE16_M_allocate_nodeIJRKSt21piecewise_construct_tSt5tupleIJRS3_EESI_IJEEEEEPSB_DpOT_
FNDA:0,_ZNSt8__detail16_Hashtable_allocISaINS_10_Hash_nodeISt4pairIKNSt7__cxx1112basic_stringIcSt11char_traitsIcESaIcEEESt10unique_ptrI10MooseArrayIN7libMesh11VectorValueIN11MetaPhysicL10DualNumberIdNSE_28SemiDynamicSparseNumberArrayIdmNSE_8NWrapperILm64EEEEELb1EEEEEESt14default_deleteISM_EEELb1EEEEE18_M_deallocate_nodeEPSR_
FNDA:0,_ZNSt8__detail16_Hashtable_allocISaINS_10_Hash_nodeISt4pairIKmSt6vectorIS2_IbdESaIS5_EEELb0EEEEE19_M_deallocate_nodesEPS9_
FNDA:0,_ZNSt8__detail16_Hashtable_allocISaINS_10_Hash_nodeISt4pairIKNSt7__cxx1112basic_stringIcSt11char_traitsIcESaIcEEESt10unique_ptrI10MooseArrayIN7libMesh11VectorValueIdEEESt14default_deleteISF_EEELb1EEEEE18_M_deallocate_nodeEPSK_
FNDA:0,_ZNSt8__detail16_Hashtable_allocISaINS_10_Hash_nodeIjLb0EEEEE16_M_allocate_nodeIJjEEEPS2_DpOT_
FNDA:0,_ZNSt8__detail9_Map_baseImSt4pairIKmSt6vectorIS1_IbN11MetaPhysicL10DualNumberIdNS4_28SemiDynamicSparseNumberArrayIdmNS4_8NWrapperILm64EEEEELb1EEEESaISB_EEESaISE_ENS_10_Select1stESt8equal_toImESt4hashImENS_18_Mod_range_hashingENS_20_Default_ranged_hashENS_20_Prime_rehash_policyENS_17_Hashtable_traitsILb0ELb0ELb1EEELb1EEixERS2_
FNDA:0,_ZNSt8__detail16_Hashtable_allocISaINS_10_Hash_nodeISt4pairIKmSt6vectorIS2_IbN11MetaPhysicL10DualNumberIdNS5_28SemiDynamicSparseNumberArrayIdmNS5_8NWrapperILm64EEEEELb1EEEESaISC_EEELb0EEEEE19_M_deallocate_nodesEPSG_
FNDA:0,_ZNSt8__detail16_Hashtable_allocISaINS_10_Hash_nodeISt4pairIKmSt6vectorIS4_IS2_IbN11MetaPhysicL10DualNumberIdNS5_28SemiDynamicSparseNumberArrayIdmNS5_8NWrapperILm64EEEEELb1EEEESaISC_EESaISE_EEELb0EEEEE16_M_allocate_nodeIJRKSt21piecewise_construct_tSt5tupleIJRS3_EESP_IJEEEEEPSI_DpOT_
FNDA:0,_ZNSt8__detail16_Hashtable_allocISaINS_10_Hash_nodeISt4pairIKNSt7__cxx1112basic_stringIcSt11char_traitsIcESaIcEEESt10unique_ptrI10MooseArrayIdESt14default_deleteISC_EEELb1EEEEE18_M_deallocate_nodeEPSH_
FNDA:0,_ZNSt8__detail16_Hashtable_allocISaINS_10_Hash_nodeISt4pairIKNSt7__cxx1112basic_stringIcSt11char_traitsIcESaIcEEESt6vectorISt10unique_ptrI10MooseArrayIdESt14default_deleteISD_EESaISG_EEELb1EEEEE18_M_deallocate_nodeEPSK_
FNDA:0,_ZNSt8__detail16_Hashtable_allocISaINS_10_Hash_nodeISt4pairIKNSt7__cxx1112basic_stringIcSt11char_traitsIcESaIcEEES8_ELb1EEEEE18_M_deallocate_nodeEPSB_
FNDA:0,_ZNSt8__detail16_Hashtable_allocISaINS_10_Hash_nodeIjLb0EEEEE19_M_allocate_bucketsEm
FNDA:0,_ZNSt8__detail16_Hashtable_allocISaINS_10_Hash_nodeISt4pairIKmSt6vectorIS2_IbN11MetaPhysicL10DualNumberIdNS5_28SemiDynamicSparseNumberArrayIdmNS5_8NWrapperILm64EEEEELb1EEEESaISC_EEELb0EEEEE19_M_allocate_bucketsEm
FNDA:0,_ZNSt8__detail16_Hashtable_allocISaINS_10_Hash_nodeISt4pairIKmSt6vectorIS4_IS2_IbdESaIS5_EESaIS7_EEELb0EEEEE19_M_deallocate_nodesEPSB_
FNDA:0,_ZNSt8__detail16_Hashtable_allocISaINS_10_Hash_nodeISt4pairIKmSt6vectorIS2_IbdESaIS5_EEELb0EEEEE19_M_allocate_bucketsEm
FNDA:0,_ZNSt8__detail16_Hashtable_allocISaINS_10_Hash_nodeISt4pairIKNSt7__cxx1112basic_stringIcSt11char_traitsIcESaIcEEESt10unique_ptrI10MooseArrayIN5Eigen6MatrixIdLin1ELi1ELi0ELin1ELi1EEEESt14default_deleteISF_EEELb1EEEEE18_M_deallocate_nodeEPSK_
FNDA:0,_ZNSt8__detail16_Hashtable_allocISaINS_10_Hash_nodeISt4pairIKmSt6vectorIS4_IS2_IbN11MetaPhysicL10DualNumberIdNS5_28SemiDynamicSparseNumberArrayIdmNS5_8NWrapperILm64EEEEELb1EEEESaISC_EESaISE_EEELb0EEEEE19_M_allocate_bucketsEm
FNDA:0,_ZNSt8__detail16_Hashtable_allocISaINS_10_Hash_nodeISt4pairIKmSt6vectorIS2_IbdESaIS5_EEELb0EEEEE16_M_allocate_nodeIJRKSt21piecewise_construct_tSt5tupleIJRS3_EESG_IJEEEEEPS9_DpOT_
FNDA:0,_ZNSt8__detail16_Hashtable_allocISaINS_10_Hash_nodeISt4pairIKNSt7__cxx1112basic_stringIcSt11char_traitsIcESaIcEEESt6vectorIP22MooseVariableFieldBaseSaISC_EEELb1EEEEE18_M_deallocate_nodeEPSG_
FNDA:0,_ZNSt8__detail16_Hashtable_allocISaINS_10_Hash_nodeISt4pairIKNSt7__cxx1112basic_stringIcSt11char_traitsIcESaIcEEESt10unique_ptrI10MooseArrayIN11MetaPhysicL10DualNumberIdNSC_28SemiDynamicSparseNumberArrayIdmNSC_8NWrapperILm64EEEEELb1EEEESt14default_deleteISJ_EEELb1EEEEE18_M_deallocate_nodeEPSO_
FNDA:0,_ZNSt8__detail16_Hashtable_allocISaINS_10_Hash_nodeISt4pairIKNSt7__cxx1112basic_stringIcSt11char_traitsIcESaIcEEESt6vectorIP19MooseVariableScalarSaISC_EEELb1EEEEE18_M_deallocate_nodeEPSG_
FNDA:0,_ZNSt8__detail9_Map_baseImSt4pairIKmSt6vectorIS1_IbdESaIS4_EEESaIS7_ENS_10_Select1stESt8equal_toImESt4hashImENS_18_Mod_range_hashingENS_20_Default_ranged_hashENS_20_Prime_rehash_policyENS_17_Hashtable_traitsILb0ELb0ELb1EEELb1EEixERS2_
FNDA:0,_ZNSt8__detail16_Hashtable_allocISaINS_10_Hash_nodeISt4pairIKmSt6vectorIS4_IS2_IbdESaIS5_EESaIS7_EEELb0EEEEE19_M_allocate_bucketsEm
FNDA:0,_ZNSt8__detail9_Map_baseImSt4pairIKmSt6vectorIS3_IS1_IbN11MetaPhysicL10DualNumberIdNS4_28SemiDynamicSparseNumberArrayIdmNS4_8NWrapperILm64EEEEELb1EEEESaISB_EESaISD_EEESaISG_ENS_10_Select1stESt8equal_toImESt4hashImENS_18_Mod_range_hashingENS_20_Default_ranged_hashENS_20_Prime_rehash_policyENS_17_Hashtable_traitsILb0ELb0ELb1EEELb1EEixERS2_
FNF:29
FNH:0
DA:206,0
DA:207,0
DA:212,0
DA:277,0
DA:341,0
DA:405,0
DA:411,0
DA:488,0
DA:532,0
DA:540,0
DA:767,0
DA:775,0
DA:776,0
DA:781,0
DA:782,0
DA:785,0
DA:786,0
DA:787,0
DA:788,0
DA:1031,0
DA:1035,0
DA:1270,0
DA:1279,0
DA:1707,0
DA:1714,0
DA:1960,0
DA:1971,0
DA:1982,0
DA:1986,458
DA:1994,458
DA:2000,0
DA:2002,822
DA:2006,0
DA:2008,0
DA:2012,0
DA:2019,0
DA:2020,0
DA:2033,670
LF:38
LH:4
end_of_record
TN:
SF:/usr/share/miniconda3/envs/moose/lib/gcc/x86_64-conda-linux-gnu/12.3.0/include/c++/bits/ios_base.h
FNF:0
FNH:0
DA:167,0
LF:1
LH:0
end_of_record
TN:
SF:/usr/share/miniconda3/envs/moose/lib/gcc/x86_64-conda-linux-gnu/12.3.0/include/c++/bits/locale_facets.h
FN:880,_ZNKSt5ctypeIcE5widenEc
FN:1092,_ZNKSt5ctypeIcE8do_widenEc
FNDA:0,_ZNKSt5ctypeIcE8do_widenEc
FNDA:0,_ZNKSt5ctypeIcE5widenEc
FNF:2
FNH:0
DA:880,0
DA:882,0
DA:883,0
DA:884,0
DA:885,0
DA:1092,0
DA:1093,0
LF:7
LH:0
end_of_record
TN:
SF:/usr/share/miniconda3/envs/moose/lib/gcc/x86_64-conda-linux-gnu/12.3.0/include/c++/bits/move.h
FNF:0
FNH:0
DA:204,0
DA:205,0
DA:206,0
LF:3
LH:0
end_of_record
TN:
SF:/usr/share/miniconda3/envs/moose/lib/gcc/x86_64-conda-linux-gnu/12.3.0/include/c++/bits/new_allocator.h
FN:112,_ZNSt15__new_allocatorISt23_Sp_counted_ptr_inplaceI13RegistryEntryI29BVFVMultiPhaseSaturationDarcyESaIvELN9__gnu_cxx12_Lock_policyE2EEE8allocateEmPKv
FN:112,_ZNSt15__new_allocatorISt23_Sp_counted_ptr_inplaceI13RegistryEntryI13BVPressureAuxESaIvELN9__gnu_cxx12_Lock_policyE2EEE8allocateEmPKv
FN:112,_ZNSt15__new_allocatorISt6vectorISt4pairIbN11MetaPhysicL10DualNumberIdNS2_28SemiDynamicSparseNumberArrayIdmNS2_8NWrapperILm64EEEEELb1EEEESaIS9_EEE8allocateEmPKv
FN:112,_ZNSt15__new_allocatorISt23_Sp_counted_ptr_inplaceI13RegistryEntryI24BVMultiPhaseFlowMaterialESaIvELN9__gnu_cxx12_Lock_policyE2EEE8allocateEmPKv
FN:112,_ZNSt15__new_allocatorISt13_Rb_tree_nodeISt4pairIK13MooseEnumItemS2_EEE8allocateEmPKv
FN:112,_ZNSt15__new_allocatorISt23_Sp_counted_ptr_inplaceI13RegistryEntryI18BVStressDivergenceESaIvELN9__gnu_cxx12_Lock_policyE2EEE8allocateEmPKv
FN:112,_ZNSt15__new_allocatorISt23_Sp_counted_ptr_inplaceI13RegistryEntryI17BVShearTractionBCESaIvELN9__gnu_cxx12_Lock_policyE2EEE8allocateEmPKv
FN:112,_ZNSt15__new_allocatorIdE8allocateEmPKv
FN:112,_ZNSt15__new_allocatorISt23_Sp_counted_ptr_inplaceI13RegistryEntryI20BVStressComponentAuxESaIvELN9__gnu_cxx12_Lock_policyE2EEE8allocateEmPKv
FN:112,_ZNSt15__new_allocatorIPK10MooseArrayIN7libMesh11VectorValueIN11MetaPhysicL10DualNumberIdNS3_28SemiDynamicSparseNumberArrayIdmNS3_8NWrapperILm64EEEEELb1EEEEEEE8allocateEmPKv
FN:112,_ZNSt15__new_allocatorISt23_Sp_counted_ptr_inplaceI13RegistryEntryI19BVBurgerModelUpdateESaIvELN9__gnu_cxx12_Lock_policyE2EEE8allocateEmPKv
FN:112,_ZNSt15__new_allocatorISt23_Sp_counted_ptr_inplaceI13RegistryEntryI25BVSinglePhaseFlowMaterialESaIvELN9__gnu_cxx12_Lock_policyE2EEE8allocateEmPKv
FN:112,_ZNSt15__new_allocatorISt13_Rb_tree_nodeI13MooseEnumItemEE8allocateEmPKv
FN:112,_ZNSt15__new_allocatorISt23_Sp_counted_ptr_inplaceI13RegistryEntryI14BVEqvStrainAuxESaIvELN9__gnu_cxx12_Lock_policyE2EEE8allocateEmPKv
FN:112,_ZNSt15__new_allocatorISt13_Rb_tree_nodeISt4pairIKN5Moose7ElemArgEN11MetaPhysicL10DualNumberIdNS5_28SemiDynamicSparseNumberArrayIdmNS5_8NWrapperILm64EEEEELb1EEEEEE8allocateEmPKv
FN:112,_ZNSt15__new_allocatorINSt8__detail10_Hash_nodeISt4pairIKmSt6vectorIS4_IS2_IbN11MetaPhysicL10DualNumberIdNS5_28SemiDynamicSparseNumberArrayIdmNS5_8NWrapperILm64EEEEELb1EEEESaISC_EESaISE_EEELb0EEEE8allocateEmPKv
FN:112,_ZNSt15__new_allocatorISt23_Sp_counted_ptr_inplaceI13RegistryEntryI27BVMaxwellViscoelasticUpdateESaIvELN9__gnu_cxx12_Lock_policyE2EEE8allocateEmPKv
FN:112,_ZNSt15__new_allocatorINSt8__detail10_Hash_nodeISt4pairIKmSt6vectorIS2_IbdESaIS5_EEELb0EEEE8allocateEmPKv
FN:112,_ZNSt15__new_allocatorI21NonlinearVariableNameE8allocateEmPKv
FN:112,_ZNSt15__new_allocatorISt23_Sp_counted_ptr_inplaceI13RegistryEntryI21BVShearTractionActionESaIvELN9__gnu_cxx12_Lock_policyE2EEE8allocateEmPKv
FN:112,_ZNSt15__new_allocatorISt23_Sp_counted_ptr_inplaceI13RegistryEntryI16BVMisesStressAuxESaIvELN9__gnu_cxx12_Lock_policyE2EEE8allocateEmPKv
FN:112,_ZNSt15__new_allocatorISt23_Sp_counted_ptr_inplaceI13RegistryEntryI12BVPressureBCESaIvELN9__gnu_cxx12_Lock_policyE2EEE8allocateEmPKv
FN:112,_ZNSt15__new_allocatorISt13_Rb_tree_nodeISt4pairIKN5Moose7FaceArgEN11MetaPhysicL10DualNumberIdNS5_28SemiDynamicSparseNumberArrayIdmNS5_8NWrapperILm64EEEEELb1EEEEEE8allocateEmPKv
FN:112,_ZNSt15__new_allocatorISt23_Sp_counted_ptr_inplaceI13RegistryEntryI20BVStrainComponentAuxESaIvELN9__gnu_cxx12_Lock_policyE2EEE8allocateEmPKv
FN:112,_ZNSt15__new_allocatorINSt7__cxx1112basic_stringIcSt11char_traitsIcESaIcEEEE8allocateEmPKv
FN:112,_ZNSt15__new_allocatorISt4pairIbdEE8allocateEmPKv
FN:112,_ZNSt15__new_allocatorISt13_Rb_tree_nodeISt4pairIKN5Moose7FaceArgEdEEE8allocateEmPKv
FN:112,_ZNSt15__new_allocatorISt23_Sp_counted_ptr_inplaceI13RegistryEntryI18BVConstantPorosityESaIvELN9__gnu_cxx12_Lock_policyE2EEE8allocateEmPKv
FN:112,_ZNSt15__new_allocatorISt23_Sp_counted_ptr_inplaceI13RegistryEntryI23BVPoroMechanicsMaterialESaIvELN9__gnu_cxx12_Lock_policyE2EEE8allocateEmPKv
FN:112,_ZNSt15__new_allocatorISt23_Sp_counted_ptr_inplaceI13RegistryEntryI26BVFVSinglePhaseSoluteDarcyESaIvELN9__gnu_cxx12_Lock_policyE2EEE8allocateEmPKv
FN:112,_ZNSt15__new_allocatorISt23_Sp_counted_ptr_inplaceI13RegistryEntryI26BVKelvinViscoelasticUpdateESaIvELN9__gnu_cxx12_Lock_policyE2EEE8allocateEmPKv
FN:112,_ZNSt15__new_allocatorIP21BVInelasticUpdateBaseE8allocateEmPKv
FN:112,_ZNSt15__new_allocatorISt23_Sp_counted_ptr_inplaceI21BVShearTractionActionSaIvELN9__gnu_cxx12_Lock_policyE2EEE8allocateEmPKv
FN:112,_ZNSt15__new_allocatorI12FunctionNameE8allocateEmPKv
FN:112,_ZNSt15__new_allocatorISt13_Rb_tree_nodeINSt7__cxx1112basic_stringIcSt11char_traitsIcESaIcEEEEE8allocateEmPKv
FN:112,_ZNSt15__new_allocatorISt23_Sp_counted_ptr_inplaceI13RegistryEntryI18BVEqvStrainRateAuxESaIvELN9__gnu_cxx12_Lock_policyE2EEE8allocateEmPKv
FN:112,_ZNSt15__new_allocatorISt10shared_ptrI17RegistryEntryBaseEE8allocateEmPKv
FN:112,_ZNSt15__new_allocatorISt13_Rb_tree_nodeISt4pairIKNSt7__cxx1112basic_stringIcSt11char_traitsIcESaIcEEEN15InputParameters8MetadataEEEE8allocateEmPKv
FN:112,_ZNSt15__new_allocatorIPNSt8__detail15_Hash_node_baseEE8allocateEmPKv
FN:112,_ZNSt15__new_allocatorISt13_Rb_tree_nodeISt4pairIKN5Moose7ElemArgEdEEE8allocateEmPKv
FN:112,_ZNSt15__new_allocatorISt23_Sp_counted_ptr_inplaceI13RegistryEntryI18BVDarcyVelocityAuxESaIvELN9__gnu_cxx12_Lock_policyE2EEE8allocateEmPKv
FN:112,_ZNSt15__new_allocatorISt23_Sp_counted_ptr_inplaceI13RegistryEntryI31BVSinglePhaseFlowSoluteMaterialESaIvELN9__gnu_cxx12_Lock_policyE2EEE8allocateEmPKv
FN:112,_ZNSt15__new_allocatorISt23_Sp_counted_ptr_inplaceI9BeaverAppSaIvELN9__gnu_cxx12_Lock_policyE2EEE8allocateEmPKv
FN:112,_ZNSt15__new_allocatorISt23_Sp_counted_ptr_inplaceI13RegistryEntryI35BVFVSinglePhaseSoluteTimeDerivativeESaIvELN9__gnu_cxx12_Lock_policyE2EEE8allocateEmPKv
FN:112,_ZNSt15__new_allocatorISt23_Sp_counted_ptr_inplaceI13RegistryEntryI27BVCapillaryPressurePowerLawESaIvELN9__gnu_cxx12_Lock_policyE2EEE8allocateEmPKv
FN:112,_ZNSt15__new_allocatorISt23_Sp_counted_ptr_inplaceI13RegistryEntryI27BVFVMultiPhasePressureDarcyESaIvELN9__gnu_cxx12_Lock_policyE2EEE8allocateEmPKv
FN:112,_ZNSt15__new_allocatorINSt8__detail10_Hash_nodeISt4pairIKmSt6vectorIS2_IbN11MetaPhysicL10DualNumberIdNS5_28SemiDynamicSparseNumberArrayIdmNS5_8NWrapperILm64EEEEELb1EEEESaISC_EEELb0EEEE8allocateEmPKv
FN:112,_ZNSt15__new_allocatorISt23_Sp_counted_ptr_inplaceI13RegistryEntryI20BVMechanicalMaterialESaIvELN9__gnu_cxx12_Lock_policyE2EEE8allocateEmPKv
FN:112,_ZNSt15__new_allocatorISt6vectorISt4pairIbdESaIS2_EEE8allocateEmPKv
FN:112,_ZNSt15__new_allocatorIPK10MooseArrayIN7libMesh11VectorValueIdEEEE8allocateEmPKv
FN:112,_ZNSt15__new_allocatorISt4pairIbN11MetaPhysicL10DualNumberIdNS1_28SemiDynamicSparseNumberArrayIdmNS1_8NWrapperILm64EEEEELb1EEEEE8allocateEmPKv
FN:112,_ZNSt15__new_allocatorISt23_Sp_counted_ptr_inplaceI13RegistryEntryI30BVRelativePermeabilityPowerLawESaIvELN9__gnu_cxx12_Lock_policyE2EEE8allocateEmPKv
FN:112,_ZNSt15__new_allocatorISt23_Sp_counted_ptr_inplaceI13RegistryEntryI20BVFVSinglePhaseDarcyESaIvELN9__gnu_cxx12_Lock_policyE2EEE8allocateEmPKv
FN:112,_ZNSt15__new_allocatorISt23_Sp_counted_ptr_inplaceI13RegistryEntryI38BVFVMultiPhaseSaturationTimeDerivativeESaIvELN9__gnu_cxx12_Lock_policyE2EEE8allocateEmPKv
FN:112,_ZNSt15__new_allocatorISt13_Rb_tree_nodeISt4pairIKNSt7__cxx1112basic_stringIcSt11char_traitsIcESaIcEEESt10unique_ptrIN7libMesh10Parameters5ValueESt14default_deleteISC_EEEEE8allocateEmPKv
FN:112,_ZNSt15__new_allocatorISt13_Rb_tree_nodeISt4pairIK13MooseEnumItemNSt7__cxx1112basic_stringIcSt11char_traitsIcESaIcEEEEEE8allocateEmPKv
FN:112,_ZNSt15__new_allocatorISt13_Rb_tree_nodeISt4pairIKNSt7__cxx1112basic_stringIcSt11char_traitsIcESaIcEEESt6vectorISt10shared_ptrI17RegistryEntryBaseESaISC_EEEEE8allocateEmPKv
FN:112,_ZNSt15__new_allocatorISt23_Sp_counted_ptr_inplaceI13RegistryEntryI22BVConstantPermeabilityESaIvELN9__gnu_cxx12_Lock_policyE2EEE8allocateEmPKv
FN:112,_ZNSt15__new_allocatorI12MaterialNameE8allocateEmPKv
FN:112,_ZNSt15__new_allocatorISt23_Sp_counted_ptr_inplaceI13RegistryEntryI20BVConstantDispersionESaIvELN9__gnu_cxx12_Lock_policyE2EEE8allocateEmPKv
FN:112,_ZNSt15__new_allocatorIPK8FunctionE8allocateEmPKv
FN:112,_ZNSt15__new_allocatorISt13_Rb_tree_nodeISt4pairIKNSt7__cxx1112basic_stringIcSt11char_traitsIcESaIcEEESt10unique_ptrI23AppFactoryBuildInfoBaseSt14default_deleteISA_EEEEE8allocateEmPKv
FN:112,_ZNSt15__new_allocatorISt23_Sp_counted_ptr_inplaceI13RegistryEntryI18BVSinglePhaseDarcyESaIvELN9__gnu_cxx12_Lock_policyE2EEE8allocateEmPKv
FN:112,_ZNSt15__new_allocatorISt23_Sp_counted_ptr_inplaceI13RegistryEntryI29BVFVSinglePhaseTimeDerivativeESaIvELN9__gnu_cxx12_Lock_policyE2EEE8allocateEmPKv
FN:112,_ZNSt15__new_allocatorISt23_Sp_counted_ptr_inplaceI16BVPressureActionSaIvELN9__gnu_cxx12_Lock_policyE2EEE8allocateEmPKv
FN:112,_ZNSt15__new_allocatorI12BoundaryNameE8allocateEmPKv
FN:112,_ZNSt15__new_allocatorISt23_Sp_counted_ptr_inplaceI13RegistryEntryI17BVFluidPropertiesESaIvELN9__gnu_cxx12_Lock_policyE2EEE8allocateEmPKv
FN:112,_ZNSt15__new_allocatorISt10unique_ptrI13PropertyValueSt14default_deleteIS1_EEE8allocateEmPKv
FN:112,_ZNSt15__new_allocatorISt23_Sp_counted_ptr_inplaceI13RegistryEntryI36BVFVMultiPhasePressureTimeDerivativeESaIvELN9__gnu_cxx12_Lock_policyE2EEE8allocateEmPKv
FN:112,_ZNSt15__new_allocatorISt13_Rb_tree_nodeISt4pairIKNSt7__cxx1112basic_stringIcSt11char_traitsIcESaIcEEES7_EEE8allocateEmPKv
FN:112,_ZNSt15__new_allocatorISt23_Sp_counted_ptr_inplaceI13RegistryEntryI19BVLubby2ModelUpdateESaIvELN9__gnu_cxx12_Lock_policyE2EEE8allocateEmPKv
FN:112,_ZNSt15__new_allocatorINSt8__detail10_Hash_nodeIjLb0EEEE8allocateEmPKv
FN:112,_ZNSt15__new_allocatorINSt8__detail10_Hash_nodeISt4pairIKmSt6vectorIS4_IS2_IbdESaIS5_EESaIS7_EEELb0EEEE8allocateEmPKv
FN:112,_ZNSt15__new_allocatorISt23_Sp_counted_ptr_inplaceI13RegistryEntryI16BVPressureActionESaIvELN9__gnu_cxx12_Lock_policyE2EEE8allocateEmPKv
FN:112,_ZNSt15__new_allocatorISt23_Sp_counted_ptr_inplaceI13RegistryEntryI27BVSinglePhaseTimeDerivativeESaIvELN9__gnu_cxx12_Lock_policyE2EEE8allocateEmPKv
FNDA:20,_ZNSt15__new_allocatorISt23_Sp_counted_ptr_inplaceI13RegistryEntryI16BVPressureActionESaIvELN9__gnu_cxx12_Lock_policyE2EEE8allocateEmPKv
FNDA:0,_ZNSt15__new_allocatorINSt8__detail10_Hash_nodeISt4pairIKmSt6vectorIS4_IS2_IbdESaIS5_EESaIS7_EEELb0EEEE8allocateEmPKv
FNDA:20,_ZNSt15__new_allocatorISt23_Sp_counted_ptr_inplaceI13RegistryEntryI27BVSinglePhaseTimeDerivativeESaIvELN9__gnu_cxx12_Lock_policyE2EEE8allocateEmPKv
FNDA:0,_ZNSt15__new_allocatorINSt8__detail10_Hash_nodeIjLb0EEEE8allocateEmPKv
FNDA:20,_ZNSt15__new_allocatorISt23_Sp_counted_ptr_inplaceI13RegistryEntryI19BVLubby2ModelUpdateESaIvELN9__gnu_cxx12_Lock_policyE2EEE8allocateEmPKv
FNDA:740,_ZNSt15__new_allocatorISt13_Rb_tree_nodeISt4pairIKNSt7__cxx1112basic_stringIcSt11char_traitsIcESaIcEEES7_EEE8allocateEmPKv
FNDA:20,_ZNSt15__new_allocatorISt23_Sp_counted_ptr_inplaceI13RegistryEntryI36BVFVMultiPhasePressureTimeDerivativeESaIvELN9__gnu_cxx12_Lock_policyE2EEE8allocateEmPKv
FNDA:0,_ZNSt15__new_allocatorISt10unique_ptrI13PropertyValueSt14default_deleteIS1_EEE8allocateEmPKv
FNDA:20,_ZNSt15__new_allocatorISt23_Sp_counted_ptr_inplaceI13RegistryEntryI18BVSinglePhaseDarcyESaIvELN9__gnu_cxx12_Lock_policyE2EEE8allocateEmPKv
FNDA:20,_ZNSt15__new_allocatorISt23_Sp_counted_ptr_inplaceI13RegistryEntryI17BVFluidPropertiesESaIvELN9__gnu_cxx12_Lock_policyE2EEE8allocateEmPKv
FNDA:7,_ZNSt15__new_allocatorISt23_Sp_counted_ptr_inplaceI16BVPressureActionSaIvELN9__gnu_cxx12_Lock_policyE2EEE8allocateEmPKv
FNDA:20,_ZNSt15__new_allocatorISt23_Sp_counted_ptr_inplaceI13RegistryEntryI29BVFVSinglePhaseTimeDerivativeESaIvELN9__gnu_cxx12_Lock_policyE2EEE8allocateEmPKv
FNDA:0,_ZNSt15__new_allocatorI12BoundaryNameE8allocateEmPKv
FNDA:0,_ZNSt15__new_allocatorIPK8FunctionE8allocateEmPKv
FNDA:20,_ZNSt15__new_allocatorISt23_Sp_counted_ptr_inplaceI13RegistryEntryI20BVConstantDispersionESaIvELN9__gnu_cxx12_Lock_policyE2EEE8allocateEmPKv
FNDA:0,_ZNSt15__new_allocatorISt13_Rb_tree_nodeISt4pairIKNSt7__cxx1112basic_stringIcSt11char_traitsIcESaIcEEESt10unique_ptrI23AppFactoryBuildInfoBaseSt14default_deleteISA_EEEEE8allocateEmPKv
FNDA:20,_ZNSt15__new_allocatorISt23_Sp_counted_ptr_inplaceI13RegistryEntryI22BVConstantPermeabilityESaIvELN9__gnu_cxx12_Lock_policyE2EEE8allocateEmPKv
FNDA:40,_ZNSt15__new_allocatorISt13_Rb_tree_nodeISt4pairIKNSt7__cxx1112basic_stringIcSt11char_traitsIcESaIcEEESt6vectorISt10shared_ptrI17RegistryEntryBaseESaISC_EEEEE8allocateEmPKv
FNDA:0,_ZNSt15__new_allocatorISt13_Rb_tree_nodeISt4pairIK13MooseEnumItemNSt7__cxx1112basic_stringIcSt11char_traitsIcESaIcEEEEEE8allocateEmPKv
FNDA:11,_ZNSt15__new_allocatorISt13_Rb_tree_nodeISt4pairIKNSt7__cxx1112basic_stringIcSt11char_traitsIcESaIcEEESt10unique_ptrIN7libMesh10Parameters5ValueESt14default_deleteISC_EEEEE8allocateEmPKv
FNDA:12,_ZNSt15__new_allocatorI12MaterialNameE8allocateEmPKv
FNDA:33,_ZNSt15__new_allocatorIPK10MooseArrayIN7libMesh11VectorValueIdEEEE8allocateEmPKv
FNDA:0,_ZNSt15__new_allocatorISt6vectorISt4pairIbdESaIS2_EEE8allocateEmPKv
FNDA:20,_ZNSt15__new_allocatorISt23_Sp_counted_ptr_inplaceI13RegistryEntryI20BVFVSinglePhaseDarcyESaIvELN9__gnu_cxx12_Lock_policyE2EEE8allocateEmPKv
FNDA:20,_ZNSt15__new_allocatorISt23_Sp_counted_ptr_inplaceI13RegistryEntryI30BVRelativePermeabilityPowerLawESaIvELN9__gnu_cxx12_Lock_policyE2EEE8allocateEmPKv
FNDA:20,_ZNSt15__new_allocatorISt23_Sp_counted_ptr_inplaceI13RegistryEntryI38BVFVMultiPhaseSaturationTimeDerivativeESaIvELN9__gnu_cxx12_Lock_policyE2EEE8allocateEmPKv
FNDA:0,_ZNSt15__new_allocatorISt4pairIbN11MetaPhysicL10DualNumberIdNS1_28SemiDynamicSparseNumberArrayIdmNS1_8NWrapperILm64EEEEELb1EEEEE8allocateEmPKv
FNDA:20,_ZNSt15__new_allocatorISt23_Sp_counted_ptr_inplaceI13RegistryEntryI35BVFVSinglePhaseSoluteTimeDerivativeESaIvELN9__gnu_cxx12_Lock_policyE2EEE8allocateEmPKv
FNDA:0,_ZNSt15__new_allocatorISt23_Sp_counted_ptr_inplaceI9BeaverAppSaIvELN9__gnu_cxx12_Lock_policyE2EEE8allocateEmPKv
FNDA:20,_ZNSt15__new_allocatorISt23_Sp_counted_ptr_inplaceI13RegistryEntryI31BVSinglePhaseFlowSoluteMaterialESaIvELN9__gnu_cxx12_Lock_policyE2EEE8allocateEmPKv
FNDA:20,_ZNSt15__new_allocatorISt23_Sp_counted_ptr_inplaceI13RegistryEntryI20BVMechanicalMaterialESaIvELN9__gnu_cxx12_Lock_policyE2EEE8allocateEmPKv
FNDA:0,_ZNSt15__new_allocatorINSt8__detail10_Hash_nodeISt4pairIKmSt6vectorIS2_IbN11MetaPhysicL10DualNumberIdNS5_28SemiDynamicSparseNumberArrayIdmNS5_8NWrapperILm64EEEEELb1EEEESaISC_EEELb0EEEE8allocateEmPKv
FNDA:20,_ZNSt15__new_allocatorISt23_Sp_counted_ptr_inplaceI13RegistryEntryI27BVCapillaryPressurePowerLawESaIvELN9__gnu_cxx12_Lock_policyE2EEE8allocateEmPKv
FNDA:20,_ZNSt15__new_allocatorISt23_Sp_counted_ptr_inplaceI13RegistryEntryI27BVFVMultiPhasePressureDarcyESaIvELN9__gnu_cxx12_Lock_policyE2EEE8allocateEmPKv
FNDA:20,_ZNSt15__new_allocatorISt23_Sp_counted_ptr_inplaceI13RegistryEntryI18BVDarcyVelocityAuxESaIvELN9__gnu_cxx12_Lock_policyE2EEE8allocateEmPKv
FNDA:40,_ZNSt15__new_allocatorISt13_Rb_tree_nodeINSt7__cxx1112basic_stringIcSt11char_traitsIcESaIcEEEEE8allocateEmPKv
FNDA:20,_ZNSt15__new_allocatorISt23_Sp_counted_ptr_inplaceI13RegistryEntryI18BVEqvStrainRateAuxESaIvELN9__gnu_cxx12_Lock_policyE2EEE8allocateEmPKv
FNDA:0,_ZNSt15__new_allocatorIPNSt8__detail15_Hash_node_baseEE8allocateEmPKv
FNDA:0,_ZNSt15__new_allocatorISt13_Rb_tree_nodeISt4pairIKN5Moose7ElemArgEdEEE8allocateEmPKv
FNDA:11,_ZNSt15__new_allocatorISt13_Rb_tree_nodeISt4pairIKNSt7__cxx1112basic_stringIcSt11char_traitsIcESaIcEEEN15InputParameters8MetadataEEEE8allocateEmPKv
FNDA:0,_ZNSt15__new_allocatorISt10shared_ptrI17RegistryEntryBaseEE8allocateEmPKv
FNDA:20,_ZNSt15__new_allocatorISt23_Sp_counted_ptr_inplaceI13RegistryEntryI26BVKelvinViscoelasticUpdateESaIvELN9__gnu_cxx12_Lock_policyE2EEE8allocateEmPKv
FNDA:20,_ZNSt15__new_allocatorISt23_Sp_counted_ptr_inplaceI13RegistryEntryI26BVFVSinglePhaseSoluteDarcyESaIvELN9__gnu_cxx12_Lock_policyE2EEE8allocateEmPKv
FNDA:20,_ZNSt15__new_allocatorISt23_Sp_counted_ptr_inplaceI13RegistryEntryI23BVPoroMechanicsMaterialESaIvELN9__gnu_cxx12_Lock_policyE2EEE8allocateEmPKv
FNDA:0,_ZNSt15__new_allocatorISt23_Sp_counted_ptr_inplaceI21BVShearTractionActionSaIvELN9__gnu_cxx12_Lock_policyE2EEE8allocateEmPKv
FNDA:12,_ZNSt15__new_allocatorI12FunctionNameE8allocateEmPKv
FNDA:12,_ZNSt15__new_allocatorIP21BVInelasticUpdateBaseE8allocateEmPKv
FNDA:0,_ZNSt15__new_allocatorISt4pairIbdEE8allocateEmPKv
FNDA:20,_ZNSt15__new_allocatorISt23_Sp_counted_ptr_inplaceI13RegistryEntryI20BVStrainComponentAuxESaIvELN9__gnu_cxx12_Lock_policyE2EEE8allocateEmPKv
FNDA:0,_ZNSt15__new_allocatorINSt7__cxx1112basic_stringIcSt11char_traitsIcESaIcEEEE8allocateEmPKv
FNDA:20,_ZNSt15__new_allocatorISt23_Sp_counted_ptr_inplaceI13RegistryEntryI18BVConstantPorosityESaIvELN9__gnu_cxx12_Lock_policyE2EEE8allocateEmPKv
FNDA:0,_ZNSt15__new_allocatorISt13_Rb_tree_nodeISt4pairIKN5Moose7FaceArgEdEEE8allocateEmPKv
FNDA:20,_ZNSt15__new_allocatorISt23_Sp_counted_ptr_inplaceI13RegistryEntryI12BVPressureBCESaIvELN9__gnu_cxx12_Lock_policyE2EEE8allocateEmPKv
FNDA:20,_ZNSt15__new_allocatorISt23_Sp_counted_ptr_inplaceI13RegistryEntryI16BVMisesStressAuxESaIvELN9__gnu_cxx12_Lock_policyE2EEE8allocateEmPKv
FNDA:0,_ZNSt15__new_allocatorISt13_Rb_tree_nodeISt4pairIKN5Moose7FaceArgEN11MetaPhysicL10DualNumberIdNS5_28SemiDynamicSparseNumberArrayIdmNS5_8NWrapperILm64EEEEELb1EEEEEE8allocateEmPKv
FNDA:7,_ZNSt15__new_allocatorI21NonlinearVariableNameE8allocateEmPKv
FNDA:20,_ZNSt15__new_allocatorISt23_Sp_counted_ptr_inplaceI13RegistryEntryI21BVShearTractionActionESaIvELN9__gnu_cxx12_Lock_policyE2EEE8allocateEmPKv
FNDA:0,_ZNSt15__new_allocatorINSt8__detail10_Hash_nodeISt4pairIKmSt6vectorIS2_IbdESaIS5_EEELb0EEEE8allocateEmPKv
FNDA:20,_ZNSt15__new_allocatorISt23_Sp_counted_ptr_inplaceI13RegistryEntryI27BVMaxwellViscoelasticUpdateESaIvELN9__gnu_cxx12_Lock_policyE2EEE8allocateEmPKv
FNDA:0,_ZNSt15__new_allocatorISt13_Rb_tree_nodeISt4pairIKN5Moose7ElemArgEN11MetaPhysicL10DualNumberIdNS5_28SemiDynamicSparseNumberArrayIdmNS5_8NWrapperILm64EEEEELb1EEEEEE8allocateEmPKv
FNDA:0,_ZNSt15__new_allocatorINSt8__detail10_Hash_nodeISt4pairIKmSt6vectorIS4_IS2_IbN11MetaPhysicL10DualNumberIdNS5_28SemiDynamicSparseNumberArrayIdmNS5_8NWrapperILm64EEEEELb1EEEESaISC_EESaISE_EEELb0EEEE8allocateEmPKv
FNDA:33,_ZNSt15__new_allocatorIPK10MooseArrayIN7libMesh11VectorValueIN11MetaPhysicL10DualNumberIdNS3_28SemiDynamicSparseNumberArrayIdmNS3_8NWrapperILm64EEEEELb1EEEEEEE8allocateEmPKv
FNDA:20,_ZNSt15__new_allocatorISt23_Sp_counted_ptr_inplaceI13RegistryEntryI19BVBurgerModelUpdateESaIvELN9__gnu_cxx12_Lock_policyE2EEE8allocateEmPKv
FNDA:20,_ZNSt15__new_allocatorISt23_Sp_counted_ptr_inplaceI13RegistryEntryI20BVStressComponentAuxESaIvELN9__gnu_cxx12_Lock_policyE2EEE8allocateEmPKv
FNDA:10123,_ZNSt15__new_allocatorIdE8allocateEmPKv
FNDA:20,_ZNSt15__new_allocatorISt23_Sp_counted_ptr_inplaceI13RegistryEntryI17BVShearTractionBCESaIvELN9__gnu_cxx12_Lock_policyE2EEE8allocateEmPKv
FNDA:20,_ZNSt15__new_allocatorISt23_Sp_counted_ptr_inplaceI13RegistryEntryI14BVEqvStrainAuxESaIvELN9__gnu_cxx12_Lock_policyE2EEE8allocateEmPKv
FNDA:0,_ZNSt15__new_allocatorISt13_Rb_tree_nodeI13MooseEnumItemEE8allocateEmPKv
FNDA:20,_ZNSt15__new_allocatorISt23_Sp_counted_ptr_inplaceI13RegistryEntryI25BVSinglePhaseFlowMaterialESaIvELN9__gnu_cxx12_Lock_policyE2EEE8allocateEmPKv
FNDA:0,_ZNSt15__new_allocatorISt13_Rb_tree_nodeISt4pairIK13MooseEnumItemS2_EEE8allocateEmPKv
FNDA:20,_ZNSt15__new_allocatorISt23_Sp_counted_ptr_inplaceI13RegistryEntryI24BVMultiPhaseFlowMaterialESaIvELN9__gnu_cxx12_Lock_policyE2EEE8allocateEmPKv
FNDA:0,_ZNSt15__new_allocatorISt6vectorISt4pairIbN11MetaPhysicL10DualNumberIdNS2_28SemiDynamicSparseNumberArrayIdmNS2_8NWrapperILm64EEEEELb1EEEESaIS9_EEE8allocateEmPKv
FNDA:20,_ZNSt15__new_allocatorISt23_Sp_counted_ptr_inplaceI13RegistryEntryI29BVFVMultiPhaseSaturationDarcyESaIvELN9__gnu_cxx12_Lock_policyE2EEE8allocateEmPKv
FNDA:20,_ZNSt15__new_allocatorISt23_Sp_counted_ptr_inplaceI13RegistryEntryI13BVPressureAuxESaIvELN9__gnu_cxx12_Lock_policyE2EEE8allocateEmPKv
FNDA:20,_ZNSt15__new_allocatorISt23_Sp_counted_ptr_inplaceI13RegistryEntryI18BVStressDivergenceESaIvELN9__gnu_cxx12_Lock_policyE2EEE8allocateEmPKv
FNF:75
FNH:50
DA:112,11821
DA:120,11821
DA:124,0
DA:125,0
DA:126,0
DA:137,11821
DA:158,19517
DA:175,63
DA:181,0
LF:9
LH:5
end_of_record
TN:
SF:/usr/share/miniconda3/envs/moose/lib/gcc/x86_64-conda-linux-gnu/12.3.0/include/c++/bits/shared_ptr.h
FN:463,_ZNSt10shared_ptrI13RegistryEntryI20BVMechanicalMaterialEEC2ISaIvEJRK17RegistryEntryDataEEESt20_Sp_alloc_shared_tagIT_EDpOT0_
FN:463,_ZNSt10shared_ptrI13RegistryEntryI18BVDarcyVelocityAuxEEC2ISaIvEJRK17RegistryEntryDataEEESt20_Sp_alloc_shared_tagIT_EDpOT0_
FN:463,_ZNSt10shared_ptrI13RegistryEntryI20BVFVSinglePhaseDarcyEEC2ISaIvEJRK17RegistryEntryDataEEESt20_Sp_alloc_shared_tagIT_EDpOT0_
FN:463,_ZNSt10shared_ptrI16BVPressureActionEC2ISaIvEJRK15InputParametersEEESt20_Sp_alloc_shared_tagIT_EDpOT0_
FN:463,_ZNSt10shared_ptrI13RegistryEntryI17BVFluidPropertiesEEC2ISaIvEJRK17RegistryEntryDataEEESt20_Sp_alloc_shared_tagIT_EDpOT0_
FN:463,_ZNSt10shared_ptrI13RegistryEntryI22BVConstantPermeabilityEEC2ISaIvEJRK17RegistryEntryDataEEESt20_Sp_alloc_shared_tagIT_EDpOT0_
FN:463,_ZNSt10shared_ptrI13RegistryEntryI35BVFVSinglePhaseSoluteTimeDerivativeEEC2ISaIvEJRK17RegistryEntryDataEEESt20_Sp_alloc_shared_tagIT_EDpOT0_
FN:463,_ZNSt10shared_ptrI13RegistryEntryI27BVMaxwellViscoelasticUpdateEEC2ISaIvEJRK17RegistryEntryDataEEESt20_Sp_alloc_shared_tagIT_EDpOT0_
FN:463,_ZNSt10shared_ptrI13RegistryEntryI20BVStrainComponentAuxEEC2ISaIvEJRK17RegistryEntryDataEEESt20_Sp_alloc_shared_tagIT_EDpOT0_
FN:463,_ZNSt10shared_ptrI13RegistryEntryI16BVMisesStressAuxEEC2ISaIvEJRK17RegistryEntryDataEEESt20_Sp_alloc_shared_tagIT_EDpOT0_
FN:463,_ZNSt10shared_ptrI13RegistryEntryI29BVFVMultiPhaseSaturationDarcyEEC2ISaIvEJRK17RegistryEntryDataEEESt20_Sp_alloc_shared_tagIT_EDpOT0_
FN:463,_ZNSt10shared_ptrI13RegistryEntryI17BVShearTractionBCEEC2ISaIvEJRK17RegistryEntryDataEEESt20_Sp_alloc_shared_tagIT_EDpOT0_
FN:463,_ZNSt10shared_ptrI13RegistryEntryI29BVFVSinglePhaseTimeDerivativeEEC2ISaIvEJRK17RegistryEntryDataEEESt20_Sp_alloc_shared_tagIT_EDpOT0_
FN:463,_ZNSt10shared_ptrI13RegistryEntryI25BVSinglePhaseFlowMaterialEEC2ISaIvEJRK17RegistryEntryDataEEESt20_Sp_alloc_shared_tagIT_EDpOT0_
FN:463,_ZNSt10shared_ptrI13RegistryEntryI18BVEqvStrainRateAuxEEC2ISaIvEJRK17RegistryEntryDataEEESt20_Sp_alloc_shared_tagIT_EDpOT0_
FN:463,_ZNSt10shared_ptrI13RegistryEntryI24BVMultiPhaseFlowMaterialEEC2ISaIvEJRK17RegistryEntryDataEEESt20_Sp_alloc_shared_tagIT_EDpOT0_
FN:463,_ZNSt10shared_ptrI13RegistryEntryI18BVStressDivergenceEEC2ISaIvEJRK17RegistryEntryDataEEESt20_Sp_alloc_shared_tagIT_EDpOT0_
FN:463,_ZNSt10shared_ptrI13RegistryEntryI16BVPressureActionEEC2ISaIvEJRK17RegistryEntryDataEEESt20_Sp_alloc_shared_tagIT_EDpOT0_
FN:463,_ZNSt10shared_ptrI13RegistryEntryI27BVFVMultiPhasePressureDarcyEEC2ISaIvEJRK17RegistryEntryDataEEESt20_Sp_alloc_shared_tagIT_EDpOT0_
FN:463,_ZNSt10shared_ptrI13RegistryEntryI20BVStressComponentAuxEEC2ISaIvEJRK17RegistryEntryDataEEESt20_Sp_alloc_shared_tagIT_EDpOT0_
FN:463,_ZNSt10shared_ptrI13RegistryEntryI18BVSinglePhaseDarcyEEC2ISaIvEJRK17RegistryEntryDataEEESt20_Sp_alloc_shared_tagIT_EDpOT0_
FN:463,_ZNSt10shared_ptrI13RegistryEntryI21BVShearTractionActionEEC2ISaIvEJRK17RegistryEntryDataEEESt20_Sp_alloc_shared_tagIT_EDpOT0_
FN:463,_ZNSt10shared_ptrI13RegistryEntryI27BVSinglePhaseTimeDerivativeEEC2ISaIvEJRK17RegistryEntryDataEEESt20_Sp_alloc_shared_tagIT_EDpOT0_
FN:463,_ZNSt10shared_ptrI21BVShearTractionActionEC2ISaIvEJRK15InputParametersEEESt20_Sp_alloc_shared_tagIT_EDpOT0_
FN:463,_ZNSt10shared_ptrI13RegistryEntryI19BVBurgerModelUpdateEEC2ISaIvEJRK17RegistryEntryDataEEESt20_Sp_alloc_shared_tagIT_EDpOT0_
FN:463,_ZNSt10shared_ptrI13RegistryEntryI18BVConstantPorosityEEC2ISaIvEJRK17RegistryEntryDataEEESt20_Sp_alloc_shared_tagIT_EDpOT0_
FN:463,_ZNSt10shared_ptrI13RegistryEntryI38BVFVMultiPhaseSaturationTimeDerivativeEEC2ISaIvEJRK17RegistryEntryDataEEESt20_Sp_alloc_shared_tagIT_EDpOT0_
FN:463,_ZNSt10shared_ptrI13RegistryEntryI14BVEqvStrainAuxEEC2ISaIvEJRK17RegistryEntryDataEEESt20_Sp_alloc_shared_tagIT_EDpOT0_
FN:463,_ZNSt10shared_ptrI13RegistryEntryI13BVPressureAuxEEC2ISaIvEJRK17RegistryEntryDataEEESt20_Sp_alloc_shared_tagIT_EDpOT0_
FN:463,_ZNSt10shared_ptrI13RegistryEntryI12BVPressureBCEEC2ISaIvEJRK17RegistryEntryDataEEESt20_Sp_alloc_shared_tagIT_EDpOT0_
FN:463,_ZNSt10shared_ptrI13RegistryEntryI26BVKelvinViscoelasticUpdateEEC2ISaIvEJRK17RegistryEntryDataEEESt20_Sp_alloc_shared_tagIT_EDpOT0_
FN:463,_ZNSt10shared_ptrI13RegistryEntryI20BVConstantDispersionEEC2ISaIvEJRK17RegistryEntryDataEEESt20_Sp_alloc_shared_tagIT_EDpOT0_
FN:463,_ZNSt10shared_ptrI13RegistryEntryI19BVLubby2ModelUpdateEEC2ISaIvEJRK17RegistryEntryDataEEESt20_Sp_alloc_shared_tagIT_EDpOT0_
FN:463,_ZNSt10shared_ptrI13RegistryEntryI30BVRelativePermeabilityPowerLawEEC2ISaIvEJRK17RegistryEntryDataEEESt20_Sp_alloc_shared_tagIT_EDpOT0_
FN:463,_ZNSt10shared_ptrI13RegistryEntryI31BVSinglePhaseFlowSoluteMaterialEEC2ISaIvEJRK17RegistryEntryDataEEESt20_Sp_alloc_shared_tagIT_EDpOT0_
FN:463,_ZNSt10shared_ptrI13RegistryEntryI36BVFVMultiPhasePressureTimeDerivativeEEC2ISaIvEJRK17RegistryEntryDataEEESt20_Sp_alloc_shared_tagIT_EDpOT0_
FN:463,_ZNSt10shared_ptrI13RegistryEntryI23BVPoroMechanicsMaterialEEC2ISaIvEJRK17RegistryEntryDataEEESt20_Sp_alloc_shared_tagIT_EDpOT0_
FN:463,_ZNSt10shared_ptrI9BeaverAppEC2ISaIvEJRK15InputParametersEEESt20_Sp_alloc_shared_tagIT_EDpOT0_
FN:463,_ZNSt10shared_ptrI13RegistryEntryI27BVCapillaryPressurePowerLawEEC2ISaIvEJRK17RegistryEntryDataEEESt20_Sp_alloc_shared_tagIT_EDpOT0_
FN:463,_ZNSt10shared_ptrI13RegistryEntryI26BVFVSinglePhaseSoluteDarcyEEC2ISaIvEJRK17RegistryEntryDataEEESt20_Sp_alloc_shared_tagIT_EDpOT0_
FNDA:20,_ZNSt10shared_ptrI13RegistryEntryI18BVStressDivergenceEEC2ISaIvEJRK17RegistryEntryDataEEESt20_Sp_alloc_shared_tagIT_EDpOT0_
FNDA:20,_ZNSt10shared_ptrI13RegistryEntryI24BVMultiPhaseFlowMaterialEEC2ISaIvEJRK17RegistryEntryDataEEESt20_Sp_alloc_shared_tagIT_EDpOT0_
FNDA:20,_ZNSt10shared_ptrI13RegistryEntryI16BVPressureActionEEC2ISaIvEJRK17RegistryEntryDataEEESt20_Sp_alloc_shared_tagIT_EDpOT0_
FNDA:20,_ZNSt10shared_ptrI13RegistryEntryI27BVFVMultiPhasePressureDarcyEEC2ISaIvEJRK17RegistryEntryDataEEESt20_Sp_alloc_shared_tagIT_EDpOT0_
FNDA:20,_ZNSt10shared_ptrI13RegistryEntryI20BVStressComponentAuxEEC2ISaIvEJRK17RegistryEntryDataEEESt20_Sp_alloc_shared_tagIT_EDpOT0_
FNDA:20,_ZNSt10shared_ptrI13RegistryEntryI17BVShearTractionBCEEC2ISaIvEJRK17RegistryEntryDataEEESt20_Sp_alloc_shared_tagIT_EDpOT0_
FNDA:20,_ZNSt10shared_ptrI13RegistryEntryI29BVFVMultiPhaseSaturationDarcyEEC2ISaIvEJRK17RegistryEntryDataEEESt20_Sp_alloc_shared_tagIT_EDpOT0_
FNDA:20,_ZNSt10shared_ptrI13RegistryEntryI29BVFVSinglePhaseTimeDerivativeEEC2ISaIvEJRK17RegistryEntryDataEEESt20_Sp_alloc_shared_tagIT_EDpOT0_
FNDA:20,_ZNSt10shared_ptrI13RegistryEntryI25BVSinglePhaseFlowMaterialEEC2ISaIvEJRK17RegistryEntryDataEEESt20_Sp_alloc_shared_tagIT_EDpOT0_
FNDA:20,_ZNSt10shared_ptrI13RegistryEntryI18BVEqvStrainRateAuxEEC2ISaIvEJRK17RegistryEntryDataEEESt20_Sp_alloc_shared_tagIT_EDpOT0_
FNDA:20,_ZNSt10shared_ptrI13RegistryEntryI27BVMaxwellViscoelasticUpdateEEC2ISaIvEJRK17RegistryEntryDataEEESt20_Sp_alloc_shared_tagIT_EDpOT0_
FNDA:20,_ZNSt10shared_ptrI13RegistryEntryI16BVMisesStressAuxEEC2ISaIvEJRK17RegistryEntryDataEEESt20_Sp_alloc_shared_tagIT_EDpOT0_
FNDA:20,_ZNSt10shared_ptrI13RegistryEntryI20BVStrainComponentAuxEEC2ISaIvEJRK17RegistryEntryDataEEESt20_Sp_alloc_shared_tagIT_EDpOT0_
FNDA:20,_ZNSt10shared_ptrI13RegistryEntryI18BVDarcyVelocityAuxEEC2ISaIvEJRK17RegistryEntryDataEEESt20_Sp_alloc_shared_tagIT_EDpOT0_
FNDA:20,_ZNSt10shared_ptrI13RegistryEntryI20BVMechanicalMaterialEEC2ISaIvEJRK17RegistryEntryDataEEESt20_Sp_alloc_shared_tagIT_EDpOT0_
FNDA:20,_ZNSt10shared_ptrI13RegistryEntryI20BVFVSinglePhaseDarcyEEC2ISaIvEJRK17RegistryEntryDataEEESt20_Sp_alloc_shared_tagIT_EDpOT0_
FNDA:7,_ZNSt10shared_ptrI16BVPressureActionEC2ISaIvEJRK15InputParametersEEESt20_Sp_alloc_shared_tagIT_EDpOT0_
FNDA:20,_ZNSt10shared_ptrI13RegistryEntryI22BVConstantPermeabilityEEC2ISaIvEJRK17RegistryEntryDataEEESt20_Sp_alloc_shared_tagIT_EDpOT0_
FNDA:20,_ZNSt10shared_ptrI13RegistryEntryI35BVFVSinglePhaseSoluteTimeDerivativeEEC2ISaIvEJRK17RegistryEntryDataEEESt20_Sp_alloc_shared_tagIT_EDpOT0_
FNDA:20,_ZNSt10shared_ptrI13RegistryEntryI17BVFluidPropertiesEEC2ISaIvEJRK17RegistryEntryDataEEESt20_Sp_alloc_shared_tagIT_EDpOT0_
FNDA:20,_ZNSt10shared_ptrI13RegistryEntryI23BVPoroMechanicsMaterialEEC2ISaIvEJRK17RegistryEntryDataEEESt20_Sp_alloc_shared_tagIT_EDpOT0_
FNDA:20,_ZNSt10shared_ptrI13RegistryEntryI27BVCapillaryPressurePowerLawEEC2ISaIvEJRK17RegistryEntryDataEEESt20_Sp_alloc_shared_tagIT_EDpOT0_
FNDA:0,_ZNSt10shared_ptrI9BeaverAppEC2ISaIvEJRK15InputParametersEEESt20_Sp_alloc_shared_tagIT_EDpOT0_
FNDA:20,_ZNSt10shared_ptrI13RegistryEntryI26BVFVSinglePhaseSoluteDarcyEEC2ISaIvEJRK17RegistryEntryDataEEESt20_Sp_alloc_shared_tagIT_EDpOT0_
FNDA:20,_ZNSt10shared_ptrI13RegistryEntryI20BVConstantDispersionEEC2ISaIvEJRK17RegistryEntryDataEEESt20_Sp_alloc_shared_tagIT_EDpOT0_
FNDA:20,_ZNSt10shared_ptrI13RegistryEntryI19BVLubby2ModelUpdateEEC2ISaIvEJRK17RegistryEntryDataEEESt20_Sp_alloc_shared_tagIT_EDpOT0_
FNDA:20,_ZNSt10shared_ptrI13RegistryEntryI30BVRelativePermeabilityPowerLawEEC2ISaIvEJRK17RegistryEntryDataEEESt20_Sp_alloc_shared_tagIT_EDpOT0_
FNDA:20,_ZNSt10shared_ptrI13RegistryEntryI31BVSinglePhaseFlowSoluteMaterialEEC2ISaIvEJRK17RegistryEntryDataEEESt20_Sp_alloc_shared_tagIT_EDpOT0_
FNDA:20,_ZNSt10shared_ptrI13RegistryEntryI36BVFVMultiPhasePressureTimeDerivativeEEC2ISaIvEJRK17RegistryEntryDataEEESt20_Sp_alloc_shared_tagIT_EDpOT0_
FNDA:20,_ZNSt10shared_ptrI13RegistryEntryI38BVFVMultiPhaseSaturationTimeDerivativeEEC2ISaIvEJRK17RegistryEntryDataEEESt20_Sp_alloc_shared_tagIT_EDpOT0_
FNDA:20,_ZNSt10shared_ptrI13RegistryEntryI12BVPressureBCEEC2ISaIvEJRK17RegistryEntryDataEEESt20_Sp_alloc_shared_tagIT_EDpOT0_
FNDA:20,_ZNSt10shared_ptrI13RegistryEntryI13BVPressureAuxEEC2ISaIvEJRK17RegistryEntryDataEEESt20_Sp_alloc_shared_tagIT_EDpOT0_
FNDA:20,_ZNSt10shared_ptrI13RegistryEntryI14BVEqvStrainAuxEEC2ISaIvEJRK17RegistryEntryDataEEESt20_Sp_alloc_shared_tagIT_EDpOT0_
FNDA:20,_ZNSt10shared_ptrI13RegistryEntryI26BVKelvinViscoelasticUpdateEEC2ISaIvEJRK17RegistryEntryDataEEESt20_Sp_alloc_shared_tagIT_EDpOT0_
FNDA:20,_ZNSt10shared_ptrI13RegistryEntryI21BVShearTractionActionEEC2ISaIvEJRK17RegistryEntryDataEEESt20_Sp_alloc_shared_tagIT_EDpOT0_
FNDA:20,_ZNSt10shared_ptrI13RegistryEntryI27BVSinglePhaseTimeDerivativeEEC2ISaIvEJRK17RegistryEntryDataEEESt20_Sp_alloc_shared_tagIT_EDpOT0_
FNDA:20,_ZNSt10shared_ptrI13RegistryEntryI18BVSinglePhaseDarcyEEC2ISaIvEJRK17RegistryEntryDataEEESt20_Sp_alloc_shared_tagIT_EDpOT0_
FNDA:0,_ZNSt10shared_ptrI21BVShearTractionActionEC2ISaIvEJRK15InputParametersEEESt20_Sp_alloc_shared_tagIT_EDpOT0_
FNDA:20,_ZNSt10shared_ptrI13RegistryEntryI19BVBurgerModelUpdateEEC2ISaIvEJRK17RegistryEntryDataEEESt20_Sp_alloc_shared_tagIT_EDpOT0_
FNDA:20,_ZNSt10shared_ptrI13RegistryEntryI18BVConstantPorosityEEC2ISaIvEJRK17RegistryEntryDataEEESt20_Sp_alloc_shared_tagIT_EDpOT0_
FNF:40
FNH:38
DA:175,1499
DA:463,747
DA:464,747
DA:465,747
DA:930,226
DA:1010,747
LF:6
LH:6
end_of_record
TN:
SF:/usr/share/miniconda3/envs/moose/lib/gcc/x86_64-conda-linux-gnu/12.3.0/include/c++/bits/shared_ptr_base.h
FN:143,_ZNSt16_Sp_counted_baseILN9__gnu_cxx12_Lock_policyE2EE10_M_destroyEv
FN:151,_ZNSt16_Sp_counted_baseILN9__gnu_cxx12_Lock_policyE2EE15_M_add_ref_copyEv
FN:172,_ZNSt16_Sp_counted_baseILN9__gnu_cxx12_Lock_policyE2EE19_M_release_last_useEv
FN:198,_ZNSt16_Sp_counted_baseILN9__gnu_cxx12_Lock_policyE2EE24_M_release_last_use_coldEv
FN:208,_ZNSt16_Sp_counted_baseILN9__gnu_cxx12_Lock_policyE2EE15_M_weak_releaseEv
FN:317,_ZNSt16_Sp_counted_baseILN9__gnu_cxx12_Lock_policyE2EE10_M_releaseEv
FN:455,_ZNSt15_Sp_counted_ptrIDnLN9__gnu_cxx12_Lock_policyE2EE10_M_disposeEv
FN:608,_ZNSt23_Sp_counted_ptr_inplaceI13RegistryEntryI27BVCapillaryPressurePowerLawESaIvELN9__gnu_cxx12_Lock_policyE2EED2Ev
FN:608,_ZNSt23_Sp_counted_ptr_inplaceI13RegistryEntryI27BVFVMultiPhasePressureDarcyESaIvELN9__gnu_cxx12_Lock_policyE2EED2Ev
FN:608,_ZNSt23_Sp_counted_ptr_inplaceI13RegistryEntryI14BVEqvStrainAuxESaIvELN9__gnu_cxx12_Lock_policyE2EED0Ev
FN:608,_ZNSt23_Sp_counted_ptr_inplaceI13RegistryEntryI27BVMaxwellViscoelasticUpdateESaIvELN9__gnu_cxx12_Lock_policyE2EED2Ev
FN:608,_ZNSt23_Sp_counted_ptr_inplaceI13RegistryEntryI25BVSinglePhaseFlowMaterialESaIvELN9__gnu_cxx12_Lock_policyE2EED0Ev
FN:608,_ZNSt23_Sp_counted_ptr_inplaceI13RegistryEntryI20BVStrainComponentAuxESaIvELN9__gnu_cxx12_Lock_policyE2EED0Ev
FN:608,_ZNSt23_Sp_counted_ptr_inplaceI13RegistryEntryI16BVMisesStressAuxESaIvELN9__gnu_cxx12_Lock_policyE2EED0Ev
FN:608,_ZNSt23_Sp_counted_ptr_inplaceI13RegistryEntryI27BVFVMultiPhasePressureDarcyESaIvELN9__gnu_cxx12_Lock_policyE2EED0Ev
FN:608,_ZNSt23_Sp_counted_ptr_inplaceI13RegistryEntryI20BVConstantDispersionESaIvELN9__gnu_cxx12_Lock_policyE2EED0Ev
FN:608,_ZNSt23_Sp_counted_ptr_inplaceI16BVPressureActionSaIvELN9__gnu_cxx12_Lock_policyE2EED0Ev
FN:608,_ZNSt23_Sp_counted_ptr_inplaceI13RegistryEntryI25BVSinglePhaseFlowMaterialESaIvELN9__gnu_cxx12_Lock_policyE2EED2Ev
FN:608,_ZNSt23_Sp_counted_ptr_inplaceI13RegistryEntryI35BVFVSinglePhaseSoluteTimeDerivativeESaIvELN9__gnu_cxx12_Lock_policyE2EED0Ev
FN:608,_ZNSt23_Sp_counted_ptr_inplaceI13RegistryEntryI19BVLubby2ModelUpdateESaIvELN9__gnu_cxx12_Lock_policyE2EED2Ev
FN:608,_ZNSt23_Sp_counted_ptr_inplaceI13RegistryEntryI20BVFVSinglePhaseDarcyESaIvELN9__gnu_cxx12_Lock_policyE2EED2Ev
FN:608,_ZNSt23_Sp_counted_ptr_inplaceI21BVShearTractionActionSaIvELN9__gnu_cxx12_Lock_policyE2EED2Ev
FN:608,_ZNSt23_Sp_counted_ptr_inplaceI13RegistryEntryI12BVPressureBCESaIvELN9__gnu_cxx12_Lock_policyE2EED0Ev
FN:608,_ZNSt23_Sp_counted_ptr_inplaceI13RegistryEntryI18BVConstantPorosityESaIvELN9__gnu_cxx12_Lock_policyE2EED2Ev
FN:608,_ZNSt23_Sp_counted_ptr_inplaceI13RegistryEntryI26BVKelvinViscoelasticUpdateESaIvELN9__gnu_cxx12_Lock_policyE2EED2Ev
FN:608,_ZNSt23_Sp_counted_ptr_inplaceI13RegistryEntryI18BVEqvStrainRateAuxESaIvELN9__gnu_cxx12_Lock_policyE2EED0Ev
FN:608,_ZNSt23_Sp_counted_ptr_inplaceI21BVShearTractionActionSaIvELN9__gnu_cxx12_Lock_policyE2EED0Ev
FN:608,_ZNSt23_Sp_counted_ptr_inplaceI9BeaverAppSaIvELN9__gnu_cxx12_Lock_policyE2EED2Ev
FN:608,_ZNSt23_Sp_counted_ptr_inplaceI13RegistryEntryI18BVStressDivergenceESaIvELN9__gnu_cxx12_Lock_policyE2EED0Ev
FN:608,_ZNSt23_Sp_counted_ptr_inplaceI13RegistryEntryI19BVLubby2ModelUpdateESaIvELN9__gnu_cxx12_Lock_policyE2EED0Ev
FN:608,_ZNSt23_Sp_counted_ptr_inplaceI13RegistryEntryI20BVStressComponentAuxESaIvELN9__gnu_cxx12_Lock_policyE2EED0Ev
FN:608,_ZNSt23_Sp_counted_ptr_inplaceI13RegistryEntryI18BVDarcyVelocityAuxESaIvELN9__gnu_cxx12_Lock_policyE2EED0Ev
FN:608,_ZNSt23_Sp_counted_ptr_inplaceI13RegistryEntryI19BVBurgerModelUpdateESaIvELN9__gnu_cxx12_Lock_policyE2EED2Ev
FN:608,_ZNSt23_Sp_counted_ptr_inplaceI13RegistryEntryI16BVPressureActionESaIvELN9__gnu_cxx12_Lock_policyE2EED0Ev
FN:608,_ZNSt23_Sp_counted_ptr_inplaceI13RegistryEntryI35BVFVSinglePhaseSoluteTimeDerivativeESaIvELN9__gnu_cxx12_Lock_policyE2EED2Ev
FN:608,_ZNSt23_Sp_counted_ptr_inplaceINSt13__future_base13_State_baseV2ESaIvELN9__gnu_cxx12_Lock_policyE2EED2Ev
FN:608,_ZNSt23_Sp_counted_ptr_inplaceI9BeaverAppSaIvELN9__gnu_cxx12_Lock_policyE2EED0Ev
FN:608,_ZNSt23_Sp_counted_ptr_inplaceI13RegistryEntryI29BVFVMultiPhaseSaturationDarcyESaIvELN9__gnu_cxx12_Lock_policyE2EED2Ev
FN:608,_ZNSt23_Sp_counted_ptr_inplaceISt5mutexSaIvELN9__gnu_cxx12_Lock_policyE2EED2Ev
FN:608,_ZNSt23_Sp_counted_ptr_inplaceI13RegistryEntryI22BVConstantPermeabilityESaIvELN9__gnu_cxx12_Lock_policyE2EED0Ev
FN:608,_ZNSt23_Sp_counted_ptr_inplaceI13RegistryEntryI26BVFVSinglePhaseSoluteDarcyESaIvELN9__gnu_cxx12_Lock_policyE2EED2Ev
FN:608,_ZNSt23_Sp_counted_ptr_inplaceINSt13__future_base13_State_baseV2ESaIvELN9__gnu_cxx12_Lock_policyE2EED0Ev
FN:608,_ZNSt23_Sp_counted_ptr_inplaceI13RegistryEntryI38BVFVMultiPhaseSaturationTimeDerivativeESaIvELN9__gnu_cxx12_Lock_policyE2EED0Ev
FN:608,_ZNSt23_Sp_counted_ptr_inplaceI13RegistryEntryI26BVKelvinViscoelasticUpdateESaIvELN9__gnu_cxx12_Lock_policyE2EED0Ev
FN:608,_ZNSt23_Sp_counted_ptr_inplaceI13RegistryEntryI21BVShearTractionActionESaIvELN9__gnu_cxx12_Lock_policyE2EED2Ev
FN:608,_ZNSt23_Sp_counted_ptr_inplaceI13RegistryEntryI16BVPressureActionESaIvELN9__gnu_cxx12_Lock_policyE2EED2Ev
FN:608,_ZNSt23_Sp_counted_ptr_inplaceI13RegistryEntryI18BVEqvStrainRateAuxESaIvELN9__gnu_cxx12_Lock_policyE2EED2Ev
FN:608,_ZNSt23_Sp_counted_ptr_inplaceI13RegistryEntryI27BVSinglePhaseTimeDerivativeESaIvELN9__gnu_cxx12_Lock_policyE2EED0Ev
FN:608,_ZNSt23_Sp_counted_ptr_inplaceI13RegistryEntryI20BVStressComponentAuxESaIvELN9__gnu_cxx12_Lock_policyE2EED2Ev
FN:608,_ZNSt23_Sp_counted_ptr_inplaceI13RegistryEntryI22BVConstantPermeabilityESaIvELN9__gnu_cxx12_Lock_policyE2EED2Ev
FN:608,_ZNSt23_Sp_counted_ptr_inplaceI13RegistryEntryI29BVFVSinglePhaseTimeDerivativeESaIvELN9__gnu_cxx12_Lock_policyE2EED0Ev
FN:608,_ZNSt23_Sp_counted_ptr_inplaceI13RegistryEntryI29BVFVMultiPhaseSaturationDarcyESaIvELN9__gnu_cxx12_Lock_policyE2EED0Ev
FN:608,_ZNSt23_Sp_counted_ptr_inplaceI13RegistryEntryI21BVShearTractionActionESaIvELN9__gnu_cxx12_Lock_policyE2EED0Ev
FN:608,_ZNSt23_Sp_counted_ptr_inplaceI13RegistryEntryI16BVMisesStressAuxESaIvELN9__gnu_cxx12_Lock_policyE2EED2Ev
FN:608,_ZNSt23_Sp_counted_ptr_inplaceI13RegistryEntryI30BVRelativePermeabilityPowerLawESaIvELN9__gnu_cxx12_Lock_policyE2EED0Ev
FN:608,_ZNSt23_Sp_counted_ptr_inplaceI13RegistryEntryI36BVFVMultiPhasePressureTimeDerivativeESaIvELN9__gnu_cxx12_Lock_policyE2EED2Ev
FN:608,_ZNSt23_Sp_counted_ptr_inplaceI13RegistryEntryI24BVMultiPhaseFlowMaterialESaIvELN9__gnu_cxx12_Lock_policyE2EED0Ev
FN:608,_ZNSt23_Sp_counted_ptr_inplaceI13RegistryEntryI13BVPressureAuxESaIvELN9__gnu_cxx12_Lock_policyE2EED0Ev
FN:608,_ZNSt23_Sp_counted_ptr_inplaceI13RegistryEntryI17BVFluidPropertiesESaIvELN9__gnu_cxx12_Lock_policyE2EED0Ev
FN:608,_ZNSt23_Sp_counted_ptr_inplaceI13RegistryEntryI20BVMechanicalMaterialESaIvELN9__gnu_cxx12_Lock_policyE2EED2Ev
FN:608,_ZNSt23_Sp_counted_ptr_inplaceI13RegistryEntryI14BVEqvStrainAuxESaIvELN9__gnu_cxx12_Lock_policyE2EED2Ev
FN:608,_ZNSt23_Sp_counted_ptr_inplaceI16BVPressureActionSaIvELN9__gnu_cxx12_Lock_policyE2EED2Ev
FN:608,_ZNSt23_Sp_counted_ptr_inplaceI13RegistryEntryI18BVConstantPorosityESaIvELN9__gnu_cxx12_Lock_policyE2EED0Ev
FN:608,_ZNSt23_Sp_counted_ptr_inplaceI13RegistryEntryI38BVFVMultiPhaseSaturationTimeDerivativeESaIvELN9__gnu_cxx12_Lock_policyE2EED2Ev
FN:608,_ZNSt23_Sp_counted_ptr_inplaceI13RegistryEntryI18BVStressDivergenceESaIvELN9__gnu_cxx12_Lock_policyE2EED2Ev
FN:608,_ZNSt23_Sp_counted_ptr_inplaceI13RegistryEntryI29BVFVSinglePhaseTimeDerivativeESaIvELN9__gnu_cxx12_Lock_policyE2EED2Ev
FN:608,_ZNSt23_Sp_counted_ptr_inplaceI13RegistryEntryI30BVRelativePermeabilityPowerLawESaIvELN9__gnu_cxx12_Lock_policyE2EED2Ev
FN:608,_ZNSt23_Sp_counted_ptr_inplaceI13RegistryEntryI17BVFluidPropertiesESaIvELN9__gnu_cxx12_Lock_policyE2EED2Ev
FN:608,_ZNSt23_Sp_counted_ptr_inplaceI13RegistryEntryI18BVSinglePhaseDarcyESaIvELN9__gnu_cxx12_Lock_policyE2EED0Ev
FN:608,_ZNSt23_Sp_counted_ptr_inplaceI13RegistryEntryI20BVConstantDispersionESaIvELN9__gnu_cxx12_Lock_policyE2EED2Ev
FN:608,_ZNSt23_Sp_counted_ptr_inplaceI13RegistryEntryI18BVDarcyVelocityAuxESaIvELN9__gnu_cxx12_Lock_policyE2EED2Ev
FN:608,_ZNSt23_Sp_counted_ptr_inplaceI13RegistryEntryI12BVPressureBCESaIvELN9__gnu_cxx12_Lock_policyE2EED2Ev
FN:608,_ZNSt23_Sp_counted_ptr_inplaceI13RegistryEntryI31BVSinglePhaseFlowSoluteMaterialESaIvELN9__gnu_cxx12_Lock_policyE2EED2Ev
FN:608,_ZNSt23_Sp_counted_ptr_inplaceI13RegistryEntryI20BVStrainComponentAuxESaIvELN9__gnu_cxx12_Lock_policyE2EED2Ev
FN:608,_ZNSt23_Sp_counted_ptr_inplaceI13RegistryEntryI31BVSinglePhaseFlowSoluteMaterialESaIvELN9__gnu_cxx12_Lock_policyE2EED0Ev
FN:608,_ZNSt23_Sp_counted_ptr_inplaceI13RegistryEntryI27BVSinglePhaseTimeDerivativeESaIvELN9__gnu_cxx12_Lock_policyE2EED2Ev
FN:608,_ZNSt23_Sp_counted_ptr_inplaceI13RegistryEntryI17BVShearTractionBCESaIvELN9__gnu_cxx12_Lock_policyE2EED2Ev
FN:608,_ZNSt23_Sp_counted_ptr_inplaceI13RegistryEntryI13BVPressureAuxESaIvELN9__gnu_cxx12_Lock_policyE2EED2Ev
FN:608,_ZNSt23_Sp_counted_ptr_inplaceI13RegistryEntryI20BVMechanicalMaterialESaIvELN9__gnu_cxx12_Lock_policyE2EED0Ev
FN:608,_ZNSt23_Sp_counted_ptr_inplaceI13RegistryEntryI24BVMultiPhaseFlowMaterialESaIvELN9__gnu_cxx12_Lock_policyE2EED2Ev
FN:608,_ZNSt23_Sp_counted_ptr_inplaceI13RegistryEntryI19BVBurgerModelUpdateESaIvELN9__gnu_cxx12_Lock_policyE2EED0Ev
FN:608,_ZNSt23_Sp_counted_ptr_inplaceI13RegistryEntryI27BVCapillaryPressurePowerLawESaIvELN9__gnu_cxx12_Lock_policyE2EED0Ev
FN:608,_ZNSt23_Sp_counted_ptr_inplaceI13RegistryEntryI17BVShearTractionBCESaIvELN9__gnu_cxx12_Lock_policyE2EED0Ev
FN:608,_ZNSt23_Sp_counted_ptr_inplaceI13RegistryEntryI36BVFVMultiPhasePressureTimeDerivativeESaIvELN9__gnu_cxx12_Lock_policyE2EED0Ev
FN:608,_ZNSt23_Sp_counted_ptr_inplaceI13RegistryEntryI23BVPoroMechanicsMaterialESaIvELN9__gnu_cxx12_Lock_policyE2EED0Ev
FN:608,_ZNSt23_Sp_counted_ptr_inplaceI13RegistryEntryI18BVSinglePhaseDarcyESaIvELN9__gnu_cxx12_Lock_policyE2EED2Ev
FN:608,_ZNSt23_Sp_counted_ptr_inplaceI13RegistryEntryI20BVFVSinglePhaseDarcyESaIvELN9__gnu_cxx12_Lock_policyE2EED0Ev
FN:608,_ZNSt23_Sp_counted_ptr_inplaceI13RegistryEntryI23BVPoroMechanicsMaterialESaIvELN9__gnu_cxx12_Lock_policyE2EED2Ev
FN:608,_ZNSt23_Sp_counted_ptr_inplaceISt5mutexSaIvELN9__gnu_cxx12_Lock_policyE2EED0Ev
FN:608,_ZNSt23_Sp_counted_ptr_inplaceI13RegistryEntryI27BVMaxwellViscoelasticUpdateESaIvELN9__gnu_cxx12_Lock_policyE2EED0Ev
FN:608,_ZNSt23_Sp_counted_ptr_inplaceI13RegistryEntryI26BVFVSinglePhaseSoluteDarcyESaIvELN9__gnu_cxx12_Lock_policyE2EED0Ev
FN:611,_ZNSt23_Sp_counted_ptr_inplaceI13RegistryEntryI18BVStressDivergenceESaIvELN9__gnu_cxx12_Lock_policyE2EE10_M_disposeEv
FN:611,_ZNSt23_Sp_counted_ptr_inplaceI13RegistryEntryI16BVMisesStressAuxESaIvELN9__gnu_cxx12_Lock_policyE2EE10_M_disposeEv
FN:611,_ZNSt23_Sp_counted_ptr_inplaceI13RegistryEntryI29BVFVMultiPhaseSaturationDarcyESaIvELN9__gnu_cxx12_Lock_policyE2EE10_M_disposeEv
FN:611,_ZNSt23_Sp_counted_ptr_inplaceI13RegistryEntryI20BVFVSinglePhaseDarcyESaIvELN9__gnu_cxx12_Lock_policyE2EE10_M_disposeEv
FN:611,_ZNSt23_Sp_counted_ptr_inplaceI13RegistryEntryI21BVShearTractionActionESaIvELN9__gnu_cxx12_Lock_policyE2EE10_M_disposeEv
FN:611,_ZNSt23_Sp_counted_ptr_inplaceI13RegistryEntryI16BVPressureActionESaIvELN9__gnu_cxx12_Lock_policyE2EE10_M_disposeEv
FN:611,_ZNSt23_Sp_counted_ptr_inplaceI13RegistryEntryI17BVShearTractionBCESaIvELN9__gnu_cxx12_Lock_policyE2EE10_M_disposeEv
FN:611,_ZNSt23_Sp_counted_ptr_inplaceI13RegistryEntryI26BVFVSinglePhaseSoluteDarcyESaIvELN9__gnu_cxx12_Lock_policyE2EE10_M_disposeEv
FN:611,_ZNSt23_Sp_counted_ptr_inplaceI16BVPressureActionSaIvELN9__gnu_cxx12_Lock_policyE2EE10_M_disposeEv
FN:611,_ZNSt23_Sp_counted_ptr_inplaceI13RegistryEntryI20BVConstantDispersionESaIvELN9__gnu_cxx12_Lock_policyE2EE10_M_disposeEv
FN:611,_ZNSt23_Sp_counted_ptr_inplaceI13RegistryEntryI20BVStressComponentAuxESaIvELN9__gnu_cxx12_Lock_policyE2EE10_M_disposeEv
FN:611,_ZNSt23_Sp_counted_ptr_inplaceI13RegistryEntryI18BVDarcyVelocityAuxESaIvELN9__gnu_cxx12_Lock_policyE2EE10_M_disposeEv
FN:611,_ZNSt23_Sp_counted_ptr_inplaceI13RegistryEntryI29BVFVSinglePhaseTimeDerivativeESaIvELN9__gnu_cxx12_Lock_policyE2EE10_M_disposeEv
FN:611,_ZNSt23_Sp_counted_ptr_inplaceI13RegistryEntryI30BVRelativePermeabilityPowerLawESaIvELN9__gnu_cxx12_Lock_policyE2EE10_M_disposeEv
FN:611,_ZNSt23_Sp_counted_ptr_inplaceI13RegistryEntryI31BVSinglePhaseFlowSoluteMaterialESaIvELN9__gnu_cxx12_Lock_policyE2EE10_M_disposeEv
FN:611,_ZNSt23_Sp_counted_ptr_inplaceI13RegistryEntryI27BVFVMultiPhasePressureDarcyESaIvELN9__gnu_cxx12_Lock_policyE2EE10_M_disposeEv
FN:611,_ZNSt23_Sp_counted_ptr_inplaceI13RegistryEntryI18BVEqvStrainRateAuxESaIvELN9__gnu_cxx12_Lock_policyE2EE10_M_disposeEv
FN:611,_ZNSt23_Sp_counted_ptr_inplaceI13RegistryEntryI12BVPressureBCESaIvELN9__gnu_cxx12_Lock_policyE2EE10_M_disposeEv
FN:611,_ZNSt23_Sp_counted_ptr_inplaceI13RegistryEntryI22BVConstantPermeabilityESaIvELN9__gnu_cxx12_Lock_policyE2EE10_M_disposeEv
FN:611,_ZNSt23_Sp_counted_ptr_inplaceI13RegistryEntryI27BVSinglePhaseTimeDerivativeESaIvELN9__gnu_cxx12_Lock_policyE2EE10_M_disposeEv
FN:611,_ZNSt23_Sp_counted_ptr_inplaceI13RegistryEntryI36BVFVMultiPhasePressureTimeDerivativeESaIvELN9__gnu_cxx12_Lock_policyE2EE10_M_disposeEv
FN:611,_ZNSt23_Sp_counted_ptr_inplaceI13RegistryEntryI19BVBurgerModelUpdateESaIvELN9__gnu_cxx12_Lock_policyE2EE10_M_disposeEv
FN:611,_ZNSt23_Sp_counted_ptr_inplaceI13RegistryEntryI18BVSinglePhaseDarcyESaIvELN9__gnu_cxx12_Lock_policyE2EE10_M_disposeEv
FN:611,_ZNSt23_Sp_counted_ptr_inplaceI21BVShearTractionActionSaIvELN9__gnu_cxx12_Lock_policyE2EE10_M_disposeEv
FN:611,_ZNSt23_Sp_counted_ptr_inplaceI13RegistryEntryI20BVStrainComponentAuxESaIvELN9__gnu_cxx12_Lock_policyE2EE10_M_disposeEv
FN:611,_ZNSt23_Sp_counted_ptr_inplaceI13RegistryEntryI20BVMechanicalMaterialESaIvELN9__gnu_cxx12_Lock_policyE2EE10_M_disposeEv
FN:611,_ZNSt23_Sp_counted_ptr_inplaceI13RegistryEntryI18BVConstantPorosityESaIvELN9__gnu_cxx12_Lock_policyE2EE10_M_disposeEv
FN:611,_ZNSt23_Sp_counted_ptr_inplaceI9BeaverAppSaIvELN9__gnu_cxx12_Lock_policyE2EE10_M_disposeEv
FN:611,_ZNSt23_Sp_counted_ptr_inplaceI13RegistryEntryI27BVCapillaryPressurePowerLawESaIvELN9__gnu_cxx12_Lock_policyE2EE10_M_disposeEv
FN:611,_ZNSt23_Sp_counted_ptr_inplaceI13RegistryEntryI35BVFVSinglePhaseSoluteTimeDerivativeESaIvELN9__gnu_cxx12_Lock_policyE2EE10_M_disposeEv
FN:611,_ZNSt23_Sp_counted_ptr_inplaceI13RegistryEntryI14BVEqvStrainAuxESaIvELN9__gnu_cxx12_Lock_policyE2EE10_M_disposeEv
FN:611,_ZNSt23_Sp_counted_ptr_inplaceI13RegistryEntryI13BVPressureAuxESaIvELN9__gnu_cxx12_Lock_policyE2EE10_M_disposeEv
FN:611,_ZNSt23_Sp_counted_ptr_inplaceI13RegistryEntryI38BVFVMultiPhaseSaturationTimeDerivativeESaIvELN9__gnu_cxx12_Lock_policyE2EE10_M_disposeEv
FN:611,_ZNSt23_Sp_counted_ptr_inplaceI13RegistryEntryI24BVMultiPhaseFlowMaterialESaIvELN9__gnu_cxx12_Lock_policyE2EE10_M_disposeEv
FN:611,_ZNSt23_Sp_counted_ptr_inplaceI13RegistryEntryI19BVLubby2ModelUpdateESaIvELN9__gnu_cxx12_Lock_policyE2EE10_M_disposeEv
FN:611,_ZNSt23_Sp_counted_ptr_inplaceI13RegistryEntryI26BVKelvinViscoelasticUpdateESaIvELN9__gnu_cxx12_Lock_policyE2EE10_M_disposeEv
FN:611,_ZNSt23_Sp_counted_ptr_inplaceI13RegistryEntryI23BVPoroMechanicsMaterialESaIvELN9__gnu_cxx12_Lock_policyE2EE10_M_disposeEv
FN:611,_ZNSt23_Sp_counted_ptr_inplaceI13RegistryEntryI25BVSinglePhaseFlowMaterialESaIvELN9__gnu_cxx12_Lock_policyE2EE10_M_disposeEv
FN:611,_ZNSt23_Sp_counted_ptr_inplaceI13RegistryEntryI27BVMaxwellViscoelasticUpdateESaIvELN9__gnu_cxx12_Lock_policyE2EE10_M_disposeEv
FN:611,_ZNSt23_Sp_counted_ptr_inplaceI13RegistryEntryI17BVFluidPropertiesESaIvELN9__gnu_cxx12_Lock_policyE2EE10_M_disposeEv
FN:611,_ZNSt23_Sp_counted_ptr_inplaceISt5mutexSaIvELN9__gnu_cxx12_Lock_policyE2EE10_M_disposeEv
FN:611,_ZNSt23_Sp_counted_ptr_inplaceINSt13__future_base13_State_baseV2ESaIvELN9__gnu_cxx12_Lock_policyE2EE10_M_disposeEv
FN:618,_ZNSt23_Sp_counted_ptr_inplaceI13RegistryEntryI18BVConstantPorosityESaIvELN9__gnu_cxx12_Lock_policyE2EE10_M_destroyEv
FN:618,_ZNSt23_Sp_counted_ptr_inplaceI13RegistryEntryI18BVStressDivergenceESaIvELN9__gnu_cxx12_Lock_policyE2EE10_M_destroyEv
FN:618,_ZNSt23_Sp_counted_ptr_inplaceISt5mutexSaIvELN9__gnu_cxx12_Lock_policyE2EE10_M_destroyEv
FN:618,_ZNSt23_Sp_counted_ptr_inplaceI13RegistryEntryI19BVLubby2ModelUpdateESaIvELN9__gnu_cxx12_Lock_policyE2EE10_M_destroyEv
FN:618,_ZNSt23_Sp_counted_ptr_inplaceI13RegistryEntryI20BVConstantDispersionESaIvELN9__gnu_cxx12_Lock_policyE2EE10_M_destroyEv
FN:618,_ZNSt23_Sp_counted_ptr_inplaceI13RegistryEntryI18BVEqvStrainRateAuxESaIvELN9__gnu_cxx12_Lock_policyE2EE10_M_destroyEv
FN:618,_ZNSt23_Sp_counted_ptr_inplaceI13RegistryEntryI18BVDarcyVelocityAuxESaIvELN9__gnu_cxx12_Lock_policyE2EE10_M_destroyEv
FN:618,_ZNSt23_Sp_counted_ptr_inplaceI21BVShearTractionActionSaIvELN9__gnu_cxx12_Lock_policyE2EE10_M_destroyEv
FN:618,_ZNSt23_Sp_counted_ptr_inplaceI9BeaverAppSaIvELN9__gnu_cxx12_Lock_policyE2EE10_M_destroyEv
FN:618,_ZNSt23_Sp_counted_ptr_inplaceI13RegistryEntryI20BVStressComponentAuxESaIvELN9__gnu_cxx12_Lock_policyE2EE10_M_destroyEv
FN:618,_ZNSt23_Sp_counted_ptr_inplaceI13RegistryEntryI14BVEqvStrainAuxESaIvELN9__gnu_cxx12_Lock_policyE2EE10_M_destroyEv
FN:618,_ZNSt23_Sp_counted_ptr_inplaceI13RegistryEntryI29BVFVSinglePhaseTimeDerivativeESaIvELN9__gnu_cxx12_Lock_policyE2EE10_M_destroyEv
FN:618,_ZNSt23_Sp_counted_ptr_inplaceI13RegistryEntryI27BVFVMultiPhasePressureDarcyESaIvELN9__gnu_cxx12_Lock_policyE2EE10_M_destroyEv
FN:618,_ZNSt23_Sp_counted_ptr_inplaceI13RegistryEntryI26BVKelvinViscoelasticUpdateESaIvELN9__gnu_cxx12_Lock_policyE2EE10_M_destroyEv
FN:618,_ZNSt23_Sp_counted_ptr_inplaceI13RegistryEntryI17BVShearTractionBCESaIvELN9__gnu_cxx12_Lock_policyE2EE10_M_destroyEv
FN:618,_ZNSt23_Sp_counted_ptr_inplaceI13RegistryEntryI25BVSinglePhaseFlowMaterialESaIvELN9__gnu_cxx12_Lock_policyE2EE10_M_destroyEv
FN:618,_ZNSt23_Sp_counted_ptr_inplaceI13RegistryEntryI20BVFVSinglePhaseDarcyESaIvELN9__gnu_cxx12_Lock_policyE2EE10_M_destroyEv
FN:618,_ZNSt23_Sp_counted_ptr_inplaceI13RegistryEntryI20BVStrainComponentAuxESaIvELN9__gnu_cxx12_Lock_policyE2EE10_M_destroyEv
FN:618,_ZNSt23_Sp_counted_ptr_inplaceI13RegistryEntryI18BVSinglePhaseDarcyESaIvELN9__gnu_cxx12_Lock_policyE2EE10_M_destroyEv
FN:618,_ZNSt23_Sp_counted_ptr_inplaceI13RegistryEntryI16BVPressureActionESaIvELN9__gnu_cxx12_Lock_policyE2EE10_M_destroyEv
FN:618,_ZNSt23_Sp_counted_ptr_inplaceI13RegistryEntryI27BVCapillaryPressurePowerLawESaIvELN9__gnu_cxx12_Lock_policyE2EE10_M_destroyEv
FN:618,_ZNSt23_Sp_counted_ptr_inplaceI13RegistryEntryI16BVMisesStressAuxESaIvELN9__gnu_cxx12_Lock_policyE2EE10_M_destroyEv
FN:618,_ZNSt23_Sp_counted_ptr_inplaceI16BVPressureActionSaIvELN9__gnu_cxx12_Lock_policyE2EE10_M_destroyEv
FN:618,_ZNSt23_Sp_counted_ptr_inplaceI13RegistryEntryI17BVFluidPropertiesESaIvELN9__gnu_cxx12_Lock_policyE2EE10_M_destroyEv
FN:618,_ZNSt23_Sp_counted_ptr_inplaceI13RegistryEntryI24BVMultiPhaseFlowMaterialESaIvELN9__gnu_cxx12_Lock_policyE2EE10_M_destroyEv
FN:618,_ZNSt23_Sp_counted_ptr_inplaceI13RegistryEntryI36BVFVMultiPhasePressureTimeDerivativeESaIvELN9__gnu_cxx12_Lock_policyE2EE10_M_destroyEv
FN:618,_ZNSt23_Sp_counted_ptr_inplaceI13RegistryEntryI12BVPressureBCESaIvELN9__gnu_cxx12_Lock_policyE2EE10_M_destroyEv
FN:618,_ZNSt23_Sp_counted_ptr_inplaceI13RegistryEntryI13BVPressureAuxESaIvELN9__gnu_cxx12_Lock_policyE2EE10_M_destroyEv
FN:618,_ZNSt23_Sp_counted_ptr_inplaceI13RegistryEntryI38BVFVMultiPhaseSaturationTimeDerivativeESaIvELN9__gnu_cxx12_Lock_policyE2EE10_M_destroyEv
FN:618,_ZNSt23_Sp_counted_ptr_inplaceI13RegistryEntryI27BVMaxwellViscoelasticUpdateESaIvELN9__gnu_cxx12_Lock_policyE2EE10_M_destroyEv
FN:618,_ZNSt23_Sp_counted_ptr_inplaceI13RegistryEntryI22BVConstantPermeabilityESaIvELN9__gnu_cxx12_Lock_policyE2EE10_M_destroyEv
FN:618,_ZNSt23_Sp_counted_ptr_inplaceI13RegistryEntryI21BVShearTractionActionESaIvELN9__gnu_cxx12_Lock_policyE2EE10_M_destroyEv
FN:618,_ZNSt23_Sp_counted_ptr_inplaceI13RegistryEntryI19BVBurgerModelUpdateESaIvELN9__gnu_cxx12_Lock_policyE2EE10_M_destroyEv
FN:618,_ZNSt23_Sp_counted_ptr_inplaceI13RegistryEntryI31BVSinglePhaseFlowSoluteMaterialESaIvELN9__gnu_cxx12_Lock_policyE2EE10_M_destroyEv
FN:618,_ZNSt23_Sp_counted_ptr_inplaceI13RegistryEntryI29BVFVMultiPhaseSaturationDarcyESaIvELN9__gnu_cxx12_Lock_policyE2EE10_M_destroyEv
FN:618,_ZNSt23_Sp_counted_ptr_inplaceINSt13__future_base13_State_baseV2ESaIvELN9__gnu_cxx12_Lock_policyE2EE10_M_destroyEv
FN:618,_ZNSt23_Sp_counted_ptr_inplaceI13RegistryEntryI26BVFVSinglePhaseSoluteDarcyESaIvELN9__gnu_cxx12_Lock_policyE2EE10_M_destroyEv
FN:618,_ZNSt23_Sp_counted_ptr_inplaceI13RegistryEntryI20BVMechanicalMaterialESaIvELN9__gnu_cxx12_Lock_policyE2EE10_M_destroyEv
FN:618,_ZNSt23_Sp_counted_ptr_inplaceI13RegistryEntryI35BVFVSinglePhaseSoluteTimeDerivativeESaIvELN9__gnu_cxx12_Lock_policyE2EE10_M_destroyEv
FN:618,_ZNSt23_Sp_counted_ptr_inplaceI13RegistryEntryI30BVRelativePermeabilityPowerLawESaIvELN9__gnu_cxx12_Lock_policyE2EE10_M_destroyEv
FN:618,_ZNSt23_Sp_counted_ptr_inplaceI13RegistryEntryI27BVSinglePhaseTimeDerivativeESaIvELN9__gnu_cxx12_Lock_policyE2EE10_M_destroyEv
FN:618,_ZNSt23_Sp_counted_ptr_inplaceI13RegistryEntryI23BVPoroMechanicsMaterialESaIvELN9__gnu_cxx12_Lock_policyE2EE10_M_destroyEv
FN:631,_ZNSt23_Sp_counted_ptr_inplaceI13RegistryEntryI18BVSinglePhaseDarcyESaIvELN9__gnu_cxx12_Lock_policyE2EE14_M_get_deleterERKSt9type_info
FN:631,_ZNSt23_Sp_counted_ptr_inplaceI13RegistryEntryI36BVFVMultiPhasePressureTimeDerivativeESaIvELN9__gnu_cxx12_Lock_policyE2EE14_M_get_deleterERKSt9type_info
FN:631,_ZNSt23_Sp_counted_ptr_inplaceI13RegistryEntryI31BVSinglePhaseFlowSoluteMaterialESaIvELN9__gnu_cxx12_Lock_policyE2EE14_M_get_deleterERKSt9type_info
FN:631,_ZNSt23_Sp_counted_ptr_inplaceI9BeaverAppSaIvELN9__gnu_cxx12_Lock_policyE2EE14_M_get_deleterERKSt9type_info
FN:631,_ZNSt23_Sp_counted_ptr_inplaceI13RegistryEntryI18BVConstantPorosityESaIvELN9__gnu_cxx12_Lock_policyE2EE14_M_get_deleterERKSt9type_info
FN:631,_ZNSt23_Sp_counted_ptr_inplaceI13RegistryEntryI16BVPressureActionESaIvELN9__gnu_cxx12_Lock_policyE2EE14_M_get_deleterERKSt9type_info
FN:631,_ZNSt23_Sp_counted_ptr_inplaceI13RegistryEntryI17BVShearTractionBCESaIvELN9__gnu_cxx12_Lock_policyE2EE14_M_get_deleterERKSt9type_info
FN:631,_ZNSt23_Sp_counted_ptr_inplaceI13RegistryEntryI26BVKelvinViscoelasticUpdateESaIvELN9__gnu_cxx12_Lock_policyE2EE14_M_get_deleterERKSt9type_info
FN:631,_ZNSt23_Sp_counted_ptr_inplaceI13RegistryEntryI21BVShearTractionActionESaIvELN9__gnu_cxx12_Lock_policyE2EE14_M_get_deleterERKSt9type_info
FN:631,_ZNSt23_Sp_counted_ptr_inplaceI13RegistryEntryI30BVRelativePermeabilityPowerLawESaIvELN9__gnu_cxx12_Lock_policyE2EE14_M_get_deleterERKSt9type_info
FN:631,_ZNSt23_Sp_counted_ptr_inplaceI13RegistryEntryI20BVFVSinglePhaseDarcyESaIvELN9__gnu_cxx12_Lock_policyE2EE14_M_get_deleterERKSt9type_info
FN:631,_ZNSt23_Sp_counted_ptr_inplaceI13RegistryEntryI19BVBurgerModelUpdateESaIvELN9__gnu_cxx12_Lock_policyE2EE14_M_get_deleterERKSt9type_info
FN:631,_ZNSt23_Sp_counted_ptr_inplaceI13RegistryEntryI27BVMaxwellViscoelasticUpdateESaIvELN9__gnu_cxx12_Lock_policyE2EE14_M_get_deleterERKSt9type_info
FN:631,_ZNSt23_Sp_counted_ptr_inplaceI13RegistryEntryI22BVConstantPermeabilityESaIvELN9__gnu_cxx12_Lock_policyE2EE14_M_get_deleterERKSt9type_info
FN:631,_ZNSt23_Sp_counted_ptr_inplaceI13RegistryEntryI18BVDarcyVelocityAuxESaIvELN9__gnu_cxx12_Lock_policyE2EE14_M_get_deleterERKSt9type_info
FN:631,_ZNSt23_Sp_counted_ptr_inplaceI13RegistryEntryI25BVSinglePhaseFlowMaterialESaIvELN9__gnu_cxx12_Lock_policyE2EE14_M_get_deleterERKSt9type_info
FN:631,_ZNSt23_Sp_counted_ptr_inplaceI13RegistryEntryI24BVMultiPhaseFlowMaterialESaIvELN9__gnu_cxx12_Lock_policyE2EE14_M_get_deleterERKSt9type_info
FN:631,_ZNSt23_Sp_counted_ptr_inplaceI13RegistryEntryI38BVFVMultiPhaseSaturationTimeDerivativeESaIvELN9__gnu_cxx12_Lock_policyE2EE14_M_get_deleterERKSt9type_info
FN:631,_ZNSt23_Sp_counted_ptr_inplaceI13RegistryEntryI20BVMechanicalMaterialESaIvELN9__gnu_cxx12_Lock_policyE2EE14_M_get_deleterERKSt9type_info
FN:631,_ZNSt23_Sp_counted_ptr_inplaceI13RegistryEntryI16BVMisesStressAuxESaIvELN9__gnu_cxx12_Lock_policyE2EE14_M_get_deleterERKSt9type_info
FN:631,_ZNSt23_Sp_counted_ptr_inplaceI13RegistryEntryI18BVStressDivergenceESaIvELN9__gnu_cxx12_Lock_policyE2EE14_M_get_deleterERKSt9type_info
FN:631,_ZNSt23_Sp_counted_ptr_inplaceI13RegistryEntryI35BVFVSinglePhaseSoluteTimeDerivativeESaIvELN9__gnu_cxx12_Lock_policyE2EE14_M_get_deleterERKSt9type_info
FN:631,_ZNSt23_Sp_counted_ptr_inplaceI13RegistryEntryI27BVCapillaryPressurePowerLawESaIvELN9__gnu_cxx12_Lock_policyE2EE14_M_get_deleterERKSt9type_info
FN:631,_ZNSt23_Sp_counted_ptr_inplaceI13RegistryEntryI29BVFVSinglePhaseTimeDerivativeESaIvELN9__gnu_cxx12_Lock_policyE2EE14_M_get_deleterERKSt9type_info
FN:631,_ZNSt23_Sp_counted_ptr_inplaceI13RegistryEntryI26BVFVSinglePhaseSoluteDarcyESaIvELN9__gnu_cxx12_Lock_policyE2EE14_M_get_deleterERKSt9type_info
FN:631,_ZNSt23_Sp_counted_ptr_inplaceI13RegistryEntryI17BVFluidPropertiesESaIvELN9__gnu_cxx12_Lock_policyE2EE14_M_get_deleterERKSt9type_info
FN:631,_ZNSt23_Sp_counted_ptr_inplaceI13RegistryEntryI14BVEqvStrainAuxESaIvELN9__gnu_cxx12_Lock_policyE2EE14_M_get_deleterERKSt9type_info
FN:631,_ZNSt23_Sp_counted_ptr_inplaceI13RegistryEntryI27BVFVMultiPhasePressureDarcyESaIvELN9__gnu_cxx12_Lock_policyE2EE14_M_get_deleterERKSt9type_info
FN:631,_ZNSt23_Sp_counted_ptr_inplaceI13RegistryEntryI13BVPressureAuxESaIvELN9__gnu_cxx12_Lock_policyE2EE14_M_get_deleterERKSt9type_info
FN:631,_ZNSt23_Sp_counted_ptr_inplaceI13RegistryEntryI20BVConstantDispersionESaIvELN9__gnu_cxx12_Lock_policyE2EE14_M_get_deleterERKSt9type_info
FN:631,_ZNSt23_Sp_counted_ptr_inplaceI13RegistryEntryI20BVStressComponentAuxESaIvELN9__gnu_cxx12_Lock_policyE2EE14_M_get_deleterERKSt9type_info
FN:631,_ZNSt23_Sp_counted_ptr_inplaceI13RegistryEntryI27BVSinglePhaseTimeDerivativeESaIvELN9__gnu_cxx12_Lock_policyE2EE14_M_get_deleterERKSt9type_info
FN:631,_ZNSt23_Sp_counted_ptr_inplaceI16BVPressureActionSaIvELN9__gnu_cxx12_Lock_policyE2EE14_M_get_deleterERKSt9type_info
FN:631,_ZNSt23_Sp_counted_ptr_inplaceI13RegistryEntryI12BVPressureBCESaIvELN9__gnu_cxx12_Lock_policyE2EE14_M_get_deleterERKSt9type_info
FN:631,_ZNSt23_Sp_counted_ptr_inplaceI21BVShearTractionActionSaIvELN9__gnu_cxx12_Lock_policyE2EE14_M_get_deleterERKSt9type_info
FN:631,_ZNSt23_Sp_counted_ptr_inplaceI13RegistryEntryI29BVFVMultiPhaseSaturationDarcyESaIvELN9__gnu_cxx12_Lock_policyE2EE14_M_get_deleterERKSt9type_info
FN:631,_ZNSt23_Sp_counted_ptr_inplaceI13RegistryEntryI20BVStrainComponentAuxESaIvELN9__gnu_cxx12_Lock_policyE2EE14_M_get_deleterERKSt9type_info
FN:631,_ZNSt23_Sp_counted_ptr_inplaceI13RegistryEntryI18BVEqvStrainRateAuxESaIvELN9__gnu_cxx12_Lock_policyE2EE14_M_get_deleterERKSt9type_info
FN:631,_ZNSt23_Sp_counted_ptr_inplaceI13RegistryEntryI19BVLubby2ModelUpdateESaIvELN9__gnu_cxx12_Lock_policyE2EE14_M_get_deleterERKSt9type_info
FN:631,_ZNSt23_Sp_counted_ptr_inplaceI13RegistryEntryI23BVPoroMechanicsMaterialESaIvELN9__gnu_cxx12_Lock_policyE2EE14_M_get_deleterERKSt9type_info
FN:964,_ZNSt14__shared_countILN9__gnu_cxx12_Lock_policyE2EEC2I13RegistryEntryI29BVFVMultiPhaseSaturationDarcyESaIvEJRK17RegistryEntryDataEEERPT_St20_Sp_alloc_shared_tagIT0_EDpOT1_
FN:964,_ZNSt14__shared_countILN9__gnu_cxx12_Lock_policyE2EEC2I13RegistryEntryI24BVMultiPhaseFlowMaterialESaIvEJRK17RegistryEntryDataEEERPT_St20_Sp_alloc_shared_tagIT0_EDpOT1_
FN:964,_ZNSt14__shared_countILN9__gnu_cxx12_Lock_policyE2EEC2I16BVPressureActionSaIvEJRK15InputParametersEEERPT_St20_Sp_alloc_shared_tagIT0_EDpOT1_
FN:964,_ZNSt14__shared_countILN9__gnu_cxx12_Lock_policyE2EEC2I13RegistryEntryI18BVConstantPorosityESaIvEJRK17RegistryEntryDataEEERPT_St20_Sp_alloc_shared_tagIT0_EDpOT1_
FN:964,_ZNSt14__shared_countILN9__gnu_cxx12_Lock_policyE2EEC2I13RegistryEntryI13BVPressureAuxESaIvEJRK17RegistryEntryDataEEERPT_St20_Sp_alloc_shared_tagIT0_EDpOT1_
FN:964,_ZNSt14__shared_countILN9__gnu_cxx12_Lock_policyE2EEC2I13RegistryEntryI25BVSinglePhaseFlowMaterialESaIvEJRK17RegistryEntryDataEEERPT_St20_Sp_alloc_shared_tagIT0_EDpOT1_
FN:964,_ZNSt14__shared_countILN9__gnu_cxx12_Lock_policyE2EEC2I13RegistryEntryI26BVKelvinViscoelasticUpdateESaIvEJRK17RegistryEntryDataEEERPT_St20_Sp_alloc_shared_tagIT0_EDpOT1_
FN:964,_ZNSt14__shared_countILN9__gnu_cxx12_Lock_policyE2EEC2I13RegistryEntryI21BVShearTractionActionESaIvEJRK17RegistryEntryDataEEERPT_St20_Sp_alloc_shared_tagIT0_EDpOT1_
FN:964,_ZNSt14__shared_countILN9__gnu_cxx12_Lock_policyE2EEC2I13RegistryEntryI38BVFVMultiPhaseSaturationTimeDerivativeESaIvEJRK17RegistryEntryDataEEERPT_St20_Sp_alloc_shared_tagIT0_EDpOT1_
FN:964,_ZNSt14__shared_countILN9__gnu_cxx12_Lock_policyE2EEC2I13RegistryEntryI27BVSinglePhaseTimeDerivativeESaIvEJRK17RegistryEntryDataEEERPT_St20_Sp_alloc_shared_tagIT0_EDpOT1_
FN:964,_ZNSt14__shared_countILN9__gnu_cxx12_Lock_policyE2EEC2I13RegistryEntryI14BVEqvStrainAuxESaIvEJRK17RegistryEntryDataEEERPT_St20_Sp_alloc_shared_tagIT0_EDpOT1_
FN:964,_ZNSt14__shared_countILN9__gnu_cxx12_Lock_policyE2EEC2I13RegistryEntryI19BVBurgerModelUpdateESaIvEJRK17RegistryEntryDataEEERPT_St20_Sp_alloc_shared_tagIT0_EDpOT1_
FN:964,_ZNSt14__shared_countILN9__gnu_cxx12_Lock_policyE2EEC2I13RegistryEntryI18BVStressDivergenceESaIvEJRK17RegistryEntryDataEEERPT_St20_Sp_alloc_shared_tagIT0_EDpOT1_
FN:964,_ZNSt14__shared_countILN9__gnu_cxx12_Lock_policyE2EEC2I13RegistryEntryI20BVStressComponentAuxESaIvEJRK17RegistryEntryDataEEERPT_St20_Sp_alloc_shared_tagIT0_EDpOT1_
FN:964,_ZNSt14__shared_countILN9__gnu_cxx12_Lock_policyE2EEC2I13RegistryEntryI12BVPressureBCESaIvEJRK17RegistryEntryDataEEERPT_St20_Sp_alloc_shared_tagIT0_EDpOT1_
FN:964,_ZNSt14__shared_countILN9__gnu_cxx12_Lock_policyE2EEC2I13RegistryEntryI17BVFluidPropertiesESaIvEJRK17RegistryEntryDataEEERPT_St20_Sp_alloc_shared_tagIT0_EDpOT1_
FN:964,_ZNSt14__shared_countILN9__gnu_cxx12_Lock_policyE2EEC2I13RegistryEntryI20BVStrainComponentAuxESaIvEJRK17RegistryEntryDataEEERPT_St20_Sp_alloc_shared_tagIT0_EDpOT1_
FN:964,_ZNSt14__shared_countILN9__gnu_cxx12_Lock_policyE2EEC2I13RegistryEntryI16BVPressureActionESaIvEJRK17RegistryEntryDataEEERPT_St20_Sp_alloc_shared_tagIT0_EDpOT1_
FN:964,_ZNSt14__shared_countILN9__gnu_cxx12_Lock_policyE2EEC2I13RegistryEntryI26BVFVSinglePhaseSoluteDarcyESaIvEJRK17RegistryEntryDataEEERPT_St20_Sp_alloc_shared_tagIT0_EDpOT1_
FN:964,_ZNSt14__shared_countILN9__gnu_cxx12_Lock_policyE2EEC2I13RegistryEntryI31BVSinglePhaseFlowSoluteMaterialESaIvEJRK17RegistryEntryDataEEERPT_St20_Sp_alloc_shared_tagIT0_EDpOT1_
FN:964,_ZNSt14__shared_countILN9__gnu_cxx12_Lock_policyE2EEC2I13RegistryEntryI20BVMechanicalMaterialESaIvEJRK17RegistryEntryDataEEERPT_St20_Sp_alloc_shared_tagIT0_EDpOT1_
FN:964,_ZNSt14__shared_countILN9__gnu_cxx12_Lock_policyE2EEC2I13RegistryEntryI18BVEqvStrainRateAuxESaIvEJRK17RegistryEntryDataEEERPT_St20_Sp_alloc_shared_tagIT0_EDpOT1_
FN:964,_ZNSt14__shared_countILN9__gnu_cxx12_Lock_policyE2EEC2I13RegistryEntryI16BVMisesStressAuxESaIvEJRK17RegistryEntryDataEEERPT_St20_Sp_alloc_shared_tagIT0_EDpOT1_
FN:964,_ZNSt14__shared_countILN9__gnu_cxx12_Lock_policyE2EEC2I13RegistryEntryI22BVConstantPermeabilityESaIvEJRK17RegistryEntryDataEEERPT_St20_Sp_alloc_shared_tagIT0_EDpOT1_
FN:964,_ZNSt14__shared_countILN9__gnu_cxx12_Lock_policyE2EEC2I13RegistryEntryI20BVFVSinglePhaseDarcyESaIvEJRK17RegistryEntryDataEEERPT_St20_Sp_alloc_shared_tagIT0_EDpOT1_
FN:964,_ZNSt14__shared_countILN9__gnu_cxx12_Lock_policyE2EEC2I13RegistryEntryI23BVPoroMechanicsMaterialESaIvEJRK17RegistryEntryDataEEERPT_St20_Sp_alloc_shared_tagIT0_EDpOT1_
FN:964,_ZNSt14__shared_countILN9__gnu_cxx12_Lock_policyE2EEC2I13RegistryEntryI30BVRelativePermeabilityPowerLawESaIvEJRK17RegistryEntryDataEEERPT_St20_Sp_alloc_shared_tagIT0_EDpOT1_
FN:964,_ZNSt14__shared_countILN9__gnu_cxx12_Lock_policyE2EEC2I9BeaverAppSaIvEJRK15InputParametersEEERPT_St20_Sp_alloc_shared_tagIT0_EDpOT1_
FN:964,_ZNSt14__shared_countILN9__gnu_cxx12_Lock_policyE2EEC2I13RegistryEntryI36BVFVMultiPhasePressureTimeDerivativeESaIvEJRK17RegistryEntryDataEEERPT_St20_Sp_alloc_shared_tagIT0_EDpOT1_
FN:964,_ZNSt14__shared_countILN9__gnu_cxx12_Lock_policyE2EEC2I13RegistryEntryI35BVFVSinglePhaseSoluteTimeDerivativeESaIvEJRK17RegistryEntryDataEEERPT_St20_Sp_alloc_shared_tagIT0_EDpOT1_
FN:964,_ZNSt14__shared_countILN9__gnu_cxx12_Lock_policyE2EEC2I13RegistryEntryI17BVShearTractionBCESaIvEJRK17RegistryEntryDataEEERPT_St20_Sp_alloc_shared_tagIT0_EDpOT1_
FN:964,_ZNSt14__shared_countILN9__gnu_cxx12_Lock_policyE2EEC2I13RegistryEntryI18BVDarcyVelocityAuxESaIvEJRK17RegistryEntryDataEEERPT_St20_Sp_alloc_shared_tagIT0_EDpOT1_
FN:964,_ZNSt14__shared_countILN9__gnu_cxx12_Lock_policyE2EEC2I13RegistryEntryI29BVFVSinglePhaseTimeDerivativeESaIvEJRK17RegistryEntryDataEEERPT_St20_Sp_alloc_shared_tagIT0_EDpOT1_
FN:964,_ZNSt14__shared_countILN9__gnu_cxx12_Lock_policyE2EEC2I21BVShearTractionActionSaIvEJRK15InputParametersEEERPT_St20_Sp_alloc_shared_tagIT0_EDpOT1_
FN:964,_ZNSt14__shared_countILN9__gnu_cxx12_Lock_policyE2EEC2I13RegistryEntryI27BVFVMultiPhasePressureDarcyESaIvEJRK17RegistryEntryDataEEERPT_St20_Sp_alloc_shared_tagIT0_EDpOT1_
FN:964,_ZNSt14__shared_countILN9__gnu_cxx12_Lock_policyE2EEC2I13RegistryEntryI27BVCapillaryPressurePowerLawESaIvEJRK17RegistryEntryDataEEERPT_St20_Sp_alloc_shared_tagIT0_EDpOT1_
FN:964,_ZNSt14__shared_countILN9__gnu_cxx12_Lock_policyE2EEC2I13RegistryEntryI20BVConstantDispersionESaIvEJRK17RegistryEntryDataEEERPT_St20_Sp_alloc_shared_tagIT0_EDpOT1_
FN:964,_ZNSt14__shared_countILN9__gnu_cxx12_Lock_policyE2EEC2I13RegistryEntryI19BVLubby2ModelUpdateESaIvEJRK17RegistryEntryDataEEERPT_St20_Sp_alloc_shared_tagIT0_EDpOT1_
FN:964,_ZNSt14__shared_countILN9__gnu_cxx12_Lock_policyE2EEC2I13RegistryEntryI18BVSinglePhaseDarcyESaIvEJRK17RegistryEntryDataEEERPT_St20_Sp_alloc_shared_tagIT0_EDpOT1_
FN:964,_ZNSt14__shared_countILN9__gnu_cxx12_Lock_policyE2EEC2I13RegistryEntryI27BVMaxwellViscoelasticUpdateESaIvEJRK17RegistryEntryDataEEERPT_St20_Sp_alloc_shared_tagIT0_EDpOT1_
FNDA:20,_ZNSt14__shared_countILN9__gnu_cxx12_Lock_policyE2EEC2I13RegistryEntryI18BVConstantPorosityESaIvEJRK17RegistryEntryDataEEERPT_St20_Sp_alloc_shared_tagIT0_EDpOT1_
FNDA:0,_ZNSt23_Sp_counted_ptr_inplaceI13RegistryEntryI25BVSinglePhaseFlowMaterialESaIvELN9__gnu_cxx12_Lock_policyE2EED0Ev
FNDA:0,_ZNSt23_Sp_counted_ptr_inplaceI13RegistryEntryI20BVStrainComponentAuxESaIvELN9__gnu_cxx12_Lock_policyE2EED0Ev
FNDA:7,_ZNSt14__shared_countILN9__gnu_cxx12_Lock_policyE2EEC2I16BVPressureActionSaIvEJRK15InputParametersEEERPT_St20_Sp_alloc_shared_tagIT0_EDpOT1_
FNDA:0,_ZNSt23_Sp_counted_ptr_inplaceI13RegistryEntryI27BVMaxwellViscoelasticUpdateESaIvELN9__gnu_cxx12_Lock_policyE2EED2Ev
FNDA:7,_ZNSt23_Sp_counted_ptr_inplaceI16BVPressureActionSaIvELN9__gnu_cxx12_Lock_policyE2EE10_M_disposeEv
FNDA:20,_ZNSt14__shared_countILN9__gnu_cxx12_Lock_policyE2EEC2I13RegistryEntryI24BVMultiPhaseFlowMaterialESaIvEJRK17RegistryEntryDataEEERPT_St20_Sp_alloc_shared_tagIT0_EDpOT1_
FNDA:0,_ZNSt15_Sp_counted_ptrIDnLN9__gnu_cxx12_Lock_policyE2EE10_M_disposeEv
FNDA:0,_ZNSt23_Sp_counted_ptr_inplaceI13RegistryEntryI26BVKelvinViscoelasticUpdateESaIvELN9__gnu_cxx12_Lock_policyE2EE14_M_get_deleterERKSt9type_info
FNDA:20,_ZNSt14__shared_countILN9__gnu_cxx12_Lock_policyE2EEC2I13RegistryEntryI29BVFVMultiPhaseSaturationDarcyESaIvEJRK17RegistryEntryDataEEERPT_St20_Sp_alloc_shared_tagIT0_EDpOT1_
FNDA:0,_ZNSt23_Sp_counted_ptr_inplaceI13RegistryEntryI26BVFVSinglePhaseSoluteDarcyESaIvELN9__gnu_cxx12_Lock_policyE2EE10_M_disposeEv
FNDA:0,_ZNSt23_Sp_counted_ptr_inplaceI13RegistryEntryI17BVShearTractionBCESaIvELN9__gnu_cxx12_Lock_policyE2EE14_M_get_deleterERKSt9type_info
FNDA:0,_ZNSt23_Sp_counted_ptr_inplaceI13RegistryEntryI16BVPressureActionESaIvELN9__gnu_cxx12_Lock_policyE2EE14_M_get_deleterERKSt9type_info
FNDA:0,_ZNSt23_Sp_counted_ptr_inplaceI13RegistryEntryI17BVShearTractionBCESaIvELN9__gnu_cxx12_Lock_policyE2EE10_M_disposeEv
FNDA:0,_ZNSt23_Sp_counted_ptr_inplaceI13RegistryEntryI16BVPressureActionESaIvELN9__gnu_cxx12_Lock_policyE2EE10_M_disposeEv
FNDA:0,_ZNSt23_Sp_counted_ptr_inplaceI13RegistryEntryI21BVShearTractionActionESaIvELN9__gnu_cxx12_Lock_policyE2EE10_M_disposeEv
FNDA:0,_ZNSt23_Sp_counted_ptr_inplaceI13RegistryEntryI18BVEqvStrainRateAuxESaIvELN9__gnu_cxx12_Lock_policyE2EE10_M_destroyEv
FNDA:0,_ZNSt23_Sp_counted_ptr_inplaceI13RegistryEntryI20BVFVSinglePhaseDarcyESaIvELN9__gnu_cxx12_Lock_policyE2EE10_M_disposeEv
FNDA:0,_ZNSt23_Sp_counted_ptr_inplaceI13RegistryEntryI18BVConstantPorosityESaIvELN9__gnu_cxx12_Lock_policyE2EE14_M_get_deleterERKSt9type_info
FNDA:0,_ZNSt23_Sp_counted_ptr_inplaceI13RegistryEntryI20BVConstantDispersionESaIvELN9__gnu_cxx12_Lock_policyE2EE10_M_destroyEv
FNDA:0,_ZNSt23_Sp_counted_ptr_inplaceI9BeaverAppSaIvELN9__gnu_cxx12_Lock_policyE2EE14_M_get_deleterERKSt9type_info
FNDA:0,_ZNSt23_Sp_counted_ptr_inplaceI13RegistryEntryI19BVLubby2ModelUpdateESaIvELN9__gnu_cxx12_Lock_policyE2EE10_M_destroyEv
FNDA:0,_ZNSt23_Sp_counted_ptr_inplaceI13RegistryEntryI31BVSinglePhaseFlowSoluteMaterialESaIvELN9__gnu_cxx12_Lock_policyE2EE14_M_get_deleterERKSt9type_info
FNDA:0,_ZNSt23_Sp_counted_ptr_inplaceI13RegistryEntryI14BVEqvStrainAuxESaIvELN9__gnu_cxx12_Lock_policyE2EED0Ev
FNDA:0,_ZNSt23_Sp_counted_ptr_inplaceISt5mutexSaIvELN9__gnu_cxx12_Lock_policyE2EE10_M_destroyEv
FNDA:0,_ZNSt23_Sp_counted_ptr_inplaceI13RegistryEntryI27BVCapillaryPressurePowerLawESaIvELN9__gnu_cxx12_Lock_policyE2EED2Ev
FNDA:0,_ZNSt23_Sp_counted_ptr_inplaceI13RegistryEntryI27BVFVMultiPhasePressureDarcyESaIvELN9__gnu_cxx12_Lock_policyE2EED2Ev
FNDA:0,_ZNSt23_Sp_counted_ptr_inplaceI13RegistryEntryI29BVFVMultiPhaseSaturationDarcyESaIvELN9__gnu_cxx12_Lock_policyE2EE10_M_disposeEv
FNDA:0,_ZNSt23_Sp_counted_ptr_inplaceI13RegistryEntryI36BVFVMultiPhasePressureTimeDerivativeESaIvELN9__gnu_cxx12_Lock_policyE2EE14_M_get_deleterERKSt9type_info
FNDA:0,_ZNSt23_Sp_counted_ptr_inplaceI13RegistryEntryI18BVSinglePhaseDarcyESaIvELN9__gnu_cxx12_Lock_policyE2EE14_M_get_deleterERKSt9type_info
FNDA:0,_ZNSt23_Sp_counted_ptr_inplaceI13RegistryEntryI18BVStressDivergenceESaIvELN9__gnu_cxx12_Lock_policyE2EE10_M_destroyEv
FNDA:0,_ZNSt23_Sp_counted_ptr_inplaceI13RegistryEntryI16BVMisesStressAuxESaIvELN9__gnu_cxx12_Lock_policyE2EE10_M_disposeEv
FNDA:0,_ZNSt23_Sp_counted_ptr_inplaceI13RegistryEntryI18BVStressDivergenceESaIvELN9__gnu_cxx12_Lock_policyE2EE10_M_disposeEv
FNDA:0,_ZNSt23_Sp_counted_ptr_inplaceI13RegistryEntryI18BVConstantPorosityESaIvELN9__gnu_cxx12_Lock_policyE2EE10_M_destroyEv
FNDA:0,_ZNSt23_Sp_counted_ptr_inplaceI13RegistryEntryI14BVEqvStrainAuxESaIvELN9__gnu_cxx12_Lock_policyE2EE10_M_destroyEv
FNDA:0,_ZNSt23_Sp_counted_ptr_inplaceI13RegistryEntryI18BVEqvStrainRateAuxESaIvELN9__gnu_cxx12_Lock_policyE2EE10_M_disposeEv
FNDA:0,_ZNSt23_Sp_counted_ptr_inplaceI13RegistryEntryI30BVRelativePermeabilityPowerLawESaIvELN9__gnu_cxx12_Lock_policyE2EE10_M_disposeEv
FNDA:20,_ZNSt14__shared_countILN9__gnu_cxx12_Lock_policyE2EEC2I13RegistryEntryI38BVFVMultiPhaseSaturationTimeDerivativeESaIvEJRK17RegistryEntryDataEEERPT_St20_Sp_alloc_shared_tagIT0_EDpOT1_
FNDA:0,_ZNSt23_Sp_counted_ptr_inplaceI13RegistryEntryI27BVFVMultiPhasePressureDarcyESaIvELN9__gnu_cxx12_Lock_policyE2EE10_M_disposeEv
FNDA:0,_ZNSt23_Sp_counted_ptr_inplaceI13RegistryEntryI31BVSinglePhaseFlowSoluteMaterialESaIvELN9__gnu_cxx12_Lock_policyE2EE10_M_disposeEv
FNDA:0,_ZNSt23_Sp_counted_ptr_inplaceI13RegistryEntryI20BVFVSinglePhaseDarcyESaIvELN9__gnu_cxx12_Lock_policyE2EE14_M_get_deleterERKSt9type_info
FNDA:20,_ZNSt14__shared_countILN9__gnu_cxx12_Lock_policyE2EEC2I13RegistryEntryI21BVShearTractionActionESaIvEJRK17RegistryEntryDataEEERPT_St20_Sp_alloc_shared_tagIT0_EDpOT1_
FNDA:0,_ZNSt23_Sp_counted_ptr_inplaceI13RegistryEntryI20BVStressComponentAuxESaIvELN9__gnu_cxx12_Lock_policyE2EE10_M_destroyEv
FNDA:0,_ZNSt23_Sp_counted_ptr_inplaceI13RegistryEntryI26BVKelvinViscoelasticUpdateESaIvELN9__gnu_cxx12_Lock_policyE2EED2Ev
FNDA:0,_ZNSt23_Sp_counted_ptr_inplaceI13RegistryEntryI18BVConstantPorosityESaIvELN9__gnu_cxx12_Lock_policyE2EED2Ev
FNDA:20,_ZNSt14__shared_countILN9__gnu_cxx12_Lock_policyE2EEC2I13RegistryEntryI26BVKelvinViscoelasticUpdateESaIvEJRK17RegistryEntryDataEEERPT_St20_Sp_alloc_shared_tagIT0_EDpOT1_
FNDA:0,_ZNSt23_Sp_counted_ptr_inplaceI13RegistryEntryI30BVRelativePermeabilityPowerLawESaIvELN9__gnu_cxx12_Lock_policyE2EE14_M_get_deleterERKSt9type_info
FNDA:0,_ZNSt23_Sp_counted_ptr_inplaceI9BeaverAppSaIvELN9__gnu_cxx12_Lock_policyE2EE10_M_destroyEv
FNDA:0,_ZNSt23_Sp_counted_ptr_inplaceI13RegistryEntryI12BVPressureBCESaIvELN9__gnu_cxx12_Lock_policyE2EED0Ev
FNDA:0,_ZNSt23_Sp_counted_ptr_inplaceI21BVShearTractionActionSaIvELN9__gnu_cxx12_Lock_policyE2EED2Ev
FNDA:0,_ZNSt23_Sp_counted_ptr_inplaceI13RegistryEntryI29BVFVSinglePhaseTimeDerivativeESaIvELN9__gnu_cxx12_Lock_policyE2EE10_M_disposeEv
FNDA:0,_ZNSt23_Sp_counted_ptr_inplaceI21BVShearTractionActionSaIvELN9__gnu_cxx12_Lock_policyE2EE10_M_destroyEv
FNDA:0,_ZNSt23_Sp_counted_ptr_inplaceI13RegistryEntryI18BVDarcyVelocityAuxESaIvELN9__gnu_cxx12_Lock_policyE2EE10_M_disposeEv
FNDA:0,_ZNSt23_Sp_counted_ptr_inplaceI13RegistryEntryI20BVFVSinglePhaseDarcyESaIvELN9__gnu_cxx12_Lock_policyE2EED2Ev
FNDA:0,_ZNSt23_Sp_counted_ptr_inplaceI13RegistryEntryI20BVStressComponentAuxESaIvELN9__gnu_cxx12_Lock_policyE2EE10_M_disposeEv
FNDA:20,_ZNSt14__shared_countILN9__gnu_cxx12_Lock_policyE2EEC2I13RegistryEntryI25BVSinglePhaseFlowMaterialESaIvEJRK17RegistryEntryDataEEERPT_St20_Sp_alloc_shared_tagIT0_EDpOT1_
FNDA:0,_ZNSt23_Sp_counted_ptr_inplaceI13RegistryEntryI19BVLubby2ModelUpdateESaIvELN9__gnu_cxx12_Lock_policyE2EED2Ev
FNDA:0,_ZNSt23_Sp_counted_ptr_inplaceI13RegistryEntryI35BVFVSinglePhaseSoluteTimeDerivativeESaIvELN9__gnu_cxx12_Lock_policyE2EED0Ev
FNDA:0,_ZNSt23_Sp_counted_ptr_inplaceI13RegistryEntryI25BVSinglePhaseFlowMaterialESaIvELN9__gnu_cxx12_Lock_policyE2EED2Ev
FNDA:0,_ZNSt23_Sp_counted_ptr_inplaceI16BVPressureActionSaIvELN9__gnu_cxx12_Lock_policyE2EED0Ev
FNDA:0,_ZNSt23_Sp_counted_ptr_inplaceI13RegistryEntryI21BVShearTractionActionESaIvELN9__gnu_cxx12_Lock_policyE2EE14_M_get_deleterERKSt9type_info
FNDA:0,_ZNSt23_Sp_counted_ptr_inplaceI13RegistryEntryI20BVConstantDispersionESaIvELN9__gnu_cxx12_Lock_policyE2EED0Ev
FNDA:0,_ZNSt23_Sp_counted_ptr_inplaceI13RegistryEntryI27BVFVMultiPhasePressureDarcyESaIvELN9__gnu_cxx12_Lock_policyE2EED0Ev
FNDA:0,_ZNSt23_Sp_counted_ptr_inplaceI13RegistryEntryI20BVConstantDispersionESaIvELN9__gnu_cxx12_Lock_policyE2EE10_M_disposeEv
FNDA:20,_ZNSt14__shared_countILN9__gnu_cxx12_Lock_policyE2EEC2I13RegistryEntryI13BVPressureAuxESaIvEJRK17RegistryEntryDataEEERPT_St20_Sp_alloc_shared_tagIT0_EDpOT1_
FNDA:0,_ZNSt23_Sp_counted_ptr_inplaceI13RegistryEntryI16BVMisesStressAuxESaIvELN9__gnu_cxx12_Lock_policyE2EED0Ev
FNDA:0,_ZNSt23_Sp_counted_ptr_inplaceI13RegistryEntryI18BVDarcyVelocityAuxESaIvELN9__gnu_cxx12_Lock_policyE2EE10_M_destroyEv
FNDA:0,_ZNSt23_Sp_counted_ptr_inplaceI13RegistryEntryI26BVKelvinViscoelasticUpdateESaIvELN9__gnu_cxx12_Lock_policyE2EE10_M_destroyEv
FNDA:0,_ZNSt23_Sp_counted_ptr_inplaceI9BeaverAppSaIvELN9__gnu_cxx12_Lock_policyE2EED0Ev
FNDA:0,_ZNSt23_Sp_counted_ptr_inplaceI13RegistryEntryI18BVDarcyVelocityAuxESaIvELN9__gnu_cxx12_Lock_policyE2EE14_M_get_deleterERKSt9type_info
FNDA:0,_ZNSt23_Sp_counted_ptr_inplaceINSt13__future_base13_State_baseV2ESaIvELN9__gnu_cxx12_Lock_policyE2EED2Ev
FNDA:0,_ZNSt23_Sp_counted_ptr_inplaceI13RegistryEntryI35BVFVSinglePhaseSoluteTimeDerivativeESaIvELN9__gnu_cxx12_Lock_policyE2EED2Ev
FNDA:226,_ZNSt16_Sp_counted_baseILN9__gnu_cxx12_Lock_policyE2EE15_M_weak_releaseEv
FNDA:0,_ZNSt23_Sp_counted_ptr_inplaceI13RegistryEntryI36BVFVMultiPhasePressureTimeDerivativeESaIvELN9__gnu_cxx12_Lock_policyE2EE10_M_disposeEv
FNDA:20,_ZNSt14__shared_countILN9__gnu_cxx12_Lock_policyE2EEC2I13RegistryEntryI18BVStressDivergenceESaIvEJRK17RegistryEntryDataEEERPT_St20_Sp_alloc_shared_tagIT0_EDpOT1_
FNDA:0,_ZNSt23_Sp_counted_ptr_inplaceI13RegistryEntryI27BVFVMultiPhasePressureDarcyESaIvELN9__gnu_cxx12_Lock_policyE2EE10_M_destroyEv
FNDA:0,_ZNSt23_Sp_counted_ptr_inplaceI13RegistryEntryI22BVConstantPermeabilityESaIvELN9__gnu_cxx12_Lock_policyE2EE14_M_get_deleterERKSt9type_info
FNDA:0,_ZNSt23_Sp_counted_ptr_inplaceI13RegistryEntryI27BVMaxwellViscoelasticUpdateESaIvELN9__gnu_cxx12_Lock_policyE2EE14_M_get_deleterERKSt9type_info
FNDA:0,_ZNSt23_Sp_counted_ptr_inplaceI13RegistryEntryI16BVPressureActionESaIvELN9__gnu_cxx12_Lock_policyE2EED0Ev
FNDA:20,_ZNSt14__shared_countILN9__gnu_cxx12_Lock_policyE2EEC2I13RegistryEntryI19BVBurgerModelUpdateESaIvEJRK17RegistryEntryDataEEERPT_St20_Sp_alloc_shared_tagIT0_EDpOT1_
FNDA:0,_ZNSt23_Sp_counted_ptr_inplaceI13RegistryEntryI27BVSinglePhaseTimeDerivativeESaIvELN9__gnu_cxx12_Lock_policyE2EE10_M_disposeEv
FNDA:0,_ZNSt23_Sp_counted_ptr_inplaceI13RegistryEntryI19BVBurgerModelUpdateESaIvELN9__gnu_cxx12_Lock_policyE2EED2Ev
FNDA:0,_ZNSt23_Sp_counted_ptr_inplaceI13RegistryEntryI29BVFVSinglePhaseTimeDerivativeESaIvELN9__gnu_cxx12_Lock_policyE2EE10_M_destroyEv
FNDA:0,_ZNSt23_Sp_counted_ptr_inplaceI13RegistryEntryI18BVDarcyVelocityAuxESaIvELN9__gnu_cxx12_Lock_policyE2EED0Ev
FNDA:20,_ZNSt14__shared_countILN9__gnu_cxx12_Lock_policyE2EEC2I13RegistryEntryI14BVEqvStrainAuxESaIvEJRK17RegistryEntryDataEEERPT_St20_Sp_alloc_shared_tagIT0_EDpOT1_
FNDA:0,_ZNSt23_Sp_counted_ptr_inplaceI13RegistryEntryI19BVBurgerModelUpdateESaIvELN9__gnu_cxx12_Lock_policyE2EE14_M_get_deleterERKSt9type_info
FNDA:0,_ZNSt23_Sp_counted_ptr_inplaceI13RegistryEntryI22BVConstantPermeabilityESaIvELN9__gnu_cxx12_Lock_policyE2EE10_M_disposeEv
FNDA:0,_ZNSt23_Sp_counted_ptr_inplaceI13RegistryEntryI20BVStressComponentAuxESaIvELN9__gnu_cxx12_Lock_policyE2EED0Ev
FNDA:0,_ZNSt23_Sp_counted_ptr_inplaceI13RegistryEntryI19BVLubby2ModelUpdateESaIvELN9__gnu_cxx12_Lock_policyE2EED0Ev
FNDA:0,_ZNSt23_Sp_counted_ptr_inplaceI13RegistryEntryI12BVPressureBCESaIvELN9__gnu_cxx12_Lock_policyE2EE10_M_disposeEv
FNDA:0,_ZNSt23_Sp_counted_ptr_inplaceI13RegistryEntryI18BVStressDivergenceESaIvELN9__gnu_cxx12_Lock_policyE2EED0Ev
FNDA:0,_ZNSt23_Sp_counted_ptr_inplaceI9BeaverAppSaIvELN9__gnu_cxx12_Lock_policyE2EED2Ev
FNDA:0,_ZNSt23_Sp_counted_ptr_inplaceI21BVShearTractionActionSaIvELN9__gnu_cxx12_Lock_policyE2EED0Ev
FNDA:0,_ZNSt23_Sp_counted_ptr_inplaceI13RegistryEntryI18BVEqvStrainRateAuxESaIvELN9__gnu_cxx12_Lock_policyE2EED0Ev
FNDA:20,_ZNSt14__shared_countILN9__gnu_cxx12_Lock_policyE2EEC2I13RegistryEntryI27BVSinglePhaseTimeDerivativeESaIvEJRK17RegistryEntryDataEEERPT_St20_Sp_alloc_shared_tagIT0_EDpOT1_
FNDA:0,_ZNSt23_Sp_counted_ptr_inplaceI13RegistryEntryI16BVPressureActionESaIvELN9__gnu_cxx12_Lock_policyE2EED2Ev
FNDA:0,_ZNSt23_Sp_counted_ptr_inplaceI13RegistryEntryI35BVFVSinglePhaseSoluteTimeDerivativeESaIvELN9__gnu_cxx12_Lock_policyE2EE14_M_get_deleterERKSt9type_info
FNDA:0,_ZNSt23_Sp_counted_ptr_inplaceI13RegistryEntryI18BVStressDivergenceESaIvELN9__gnu_cxx12_Lock_policyE2EE14_M_get_deleterERKSt9type_info
FNDA:0,_ZNSt23_Sp_counted_ptr_inplaceI13RegistryEntryI21BVShearTractionActionESaIvELN9__gnu_cxx12_Lock_policyE2EED2Ev
FNDA:0,_ZNSt16_Sp_counted_baseILN9__gnu_cxx12_Lock_policyE2EE19_M_release_last_useEv
FNDA:0,_ZNSt23_Sp_counted_ptr_inplaceI13RegistryEntryI16BVMisesStressAuxESaIvELN9__gnu_cxx12_Lock_policyE2EE14_M_get_deleterERKSt9type_info
FNDA:0,_ZNSt23_Sp_counted_ptr_inplaceI13RegistryEntryI20BVMechanicalMaterialESaIvELN9__gnu_cxx12_Lock_policyE2EE14_M_get_deleterERKSt9type_info
FNDA:0,_ZNSt23_Sp_counted_ptr_inplaceI13RegistryEntryI18BVSinglePhaseDarcyESaIvELN9__gnu_cxx12_Lock_policyE2EE10_M_disposeEv
FNDA:0,_ZNSt23_Sp_counted_ptr_inplaceI13RegistryEntryI38BVFVMultiPhaseSaturationTimeDerivativeESaIvELN9__gnu_cxx12_Lock_policyE2EE14_M_get_deleterERKSt9type_info
FNDA:0,_ZNSt23_Sp_counted_ptr_inplaceI13RegistryEntryI26BVKelvinViscoelasticUpdateESaIvELN9__gnu_cxx12_Lock_policyE2EED0Ev
FNDA:0,_ZNSt23_Sp_counted_ptr_inplaceI13RegistryEntryI16BVPressureActionESaIvELN9__gnu_cxx12_Lock_policyE2EE10_M_destroyEv
FNDA:0,_ZNSt23_Sp_counted_ptr_inplaceI13RegistryEntryI24BVMultiPhaseFlowMaterialESaIvELN9__gnu_cxx12_Lock_policyE2EE14_M_get_deleterERKSt9type_info
FNDA:0,_ZNSt23_Sp_counted_ptr_inplaceI13RegistryEntryI18BVSinglePhaseDarcyESaIvELN9__gnu_cxx12_Lock_policyE2EE10_M_destroyEv
FNDA:0,_ZNSt23_Sp_counted_ptr_inplaceI13RegistryEntryI38BVFVMultiPhaseSaturationTimeDerivativeESaIvELN9__gnu_cxx12_Lock_policyE2EED0Ev
FNDA:0,_ZNSt23_Sp_counted_ptr_inplaceI13RegistryEntryI19BVBurgerModelUpdateESaIvELN9__gnu_cxx12_Lock_policyE2EE10_M_disposeEv
FNDA:0,_ZNSt23_Sp_counted_ptr_inplaceINSt13__future_base13_State_baseV2ESaIvELN9__gnu_cxx12_Lock_policyE2EED0Ev
FNDA:0,_ZNSt23_Sp_counted_ptr_inplaceI13RegistryEntryI26BVFVSinglePhaseSoluteDarcyESaIvELN9__gnu_cxx12_Lock_policyE2EED2Ev
FNDA:20,_ZNSt14__shared_countILN9__gnu_cxx12_Lock_policyE2EEC2I13RegistryEntryI17BVFluidPropertiesESaIvEJRK17RegistryEntryDataEEERPT_St20_Sp_alloc_shared_tagIT0_EDpOT1_
FNDA:0,_ZNSt23_Sp_counted_ptr_inplaceI13RegistryEntryI20BVStrainComponentAuxESaIvELN9__gnu_cxx12_Lock_policyE2EE10_M_destroyEv
FNDA:0,_ZNSt23_Sp_counted_ptr_inplaceI13RegistryEntryI22BVConstantPermeabilityESaIvELN9__gnu_cxx12_Lock_policyE2EED0Ev
FNDA:0,_ZNSt23_Sp_counted_ptr_inplaceI13RegistryEntryI20BVFVSinglePhaseDarcyESaIvELN9__gnu_cxx12_Lock_policyE2EE10_M_destroyEv
FNDA:0,_ZNSt23_Sp_counted_ptr_inplaceI13RegistryEntryI25BVSinglePhaseFlowMaterialESaIvELN9__gnu_cxx12_Lock_policyE2EE10_M_destroyEv
FNDA:20,_ZNSt14__shared_countILN9__gnu_cxx12_Lock_policyE2EEC2I13RegistryEntryI12BVPressureBCESaIvEJRK17RegistryEntryDataEEERPT_St20_Sp_alloc_shared_tagIT0_EDpOT1_
FNDA:0,_ZNSt23_Sp_counted_ptr_inplaceISt5mutexSaIvELN9__gnu_cxx12_Lock_policyE2EED2Ev
FNDA:0,_ZNSt23_Sp_counted_ptr_inplaceI13RegistryEntryI25BVSinglePhaseFlowMaterialESaIvELN9__gnu_cxx12_Lock_policyE2EE14_M_get_deleterERKSt9type_info
FNDA:0,_ZNSt23_Sp_counted_ptr_inplaceI13RegistryEntryI29BVFVMultiPhaseSaturationDarcyESaIvELN9__gnu_cxx12_Lock_policyE2EED2Ev
FNDA:20,_ZNSt14__shared_countILN9__gnu_cxx12_Lock_policyE2EEC2I13RegistryEntryI20BVStressComponentAuxESaIvEJRK17RegistryEntryDataEEERPT_St20_Sp_alloc_shared_tagIT0_EDpOT1_
FNDA:0,_ZNSt23_Sp_counted_ptr_inplaceI13RegistryEntryI17BVShearTractionBCESaIvELN9__gnu_cxx12_Lock_policyE2EE10_M_destroyEv
FNDA:0,_ZNSt23_Sp_counted_ptr_inplaceI13RegistryEntryI13BVPressureAuxESaIvELN9__gnu_cxx12_Lock_policyE2EE14_M_get_deleterERKSt9type_info
FNDA:20,_ZNSt14__shared_countILN9__gnu_cxx12_Lock_policyE2EEC2I13RegistryEntryI16BVPressureActionESaIvEJRK17RegistryEntryDataEEERPT_St20_Sp_alloc_shared_tagIT0_EDpOT1_
FNDA:0,_ZNSt23_Sp_counted_ptr_inplaceI13RegistryEntryI24BVMultiPhaseFlowMaterialESaIvELN9__gnu_cxx12_Lock_policyE2EED0Ev
FNDA:0,_ZNSt23_Sp_counted_ptr_inplaceI13RegistryEntryI36BVFVMultiPhasePressureTimeDerivativeESaIvELN9__gnu_cxx12_Lock_policyE2EED2Ev
FNDA:0,_ZNSt23_Sp_counted_ptr_inplaceI13RegistryEntryI30BVRelativePermeabilityPowerLawESaIvELN9__gnu_cxx12_Lock_policyE2EED0Ev
FNDA:0,_ZNSt23_Sp_counted_ptr_inplaceI13RegistryEntryI27BVFVMultiPhasePressureDarcyESaIvELN9__gnu_cxx12_Lock_policyE2EE14_M_get_deleterERKSt9type_info
FNDA:0,_ZNSt23_Sp_counted_ptr_inplaceI13RegistryEntryI16BVMisesStressAuxESaIvELN9__gnu_cxx12_Lock_policyE2EED2Ev
FNDA:0,_ZNSt23_Sp_counted_ptr_inplaceI13RegistryEntryI14BVEqvStrainAuxESaIvELN9__gnu_cxx12_Lock_policyE2EE14_M_get_deleterERKSt9type_info
FNDA:0,_ZNSt23_Sp_counted_ptr_inplaceI13RegistryEntryI21BVShearTractionActionESaIvELN9__gnu_cxx12_Lock_policyE2EED0Ev
FNDA:0,_ZNSt23_Sp_counted_ptr_inplaceI13RegistryEntryI17BVFluidPropertiesESaIvELN9__gnu_cxx12_Lock_policyE2EE14_M_get_deleterERKSt9type_info
FNDA:7,_ZNSt23_Sp_counted_ptr_inplaceI16BVPressureActionSaIvELN9__gnu_cxx12_Lock_policyE2EE10_M_destroyEv
FNDA:740,_ZNSt16_Sp_counted_baseILN9__gnu_cxx12_Lock_policyE2EE15_M_add_ref_copyEv
FNDA:0,_ZNSt23_Sp_counted_ptr_inplaceI13RegistryEntryI29BVFVMultiPhaseSaturationDarcyESaIvELN9__gnu_cxx12_Lock_policyE2EED0Ev
FNDA:0,_ZNSt23_Sp_counted_ptr_inplaceI13RegistryEntryI26BVFVSinglePhaseSoluteDarcyESaIvELN9__gnu_cxx12_Lock_policyE2EE14_M_get_deleterERKSt9type_info
FNDA:0,_ZNSt23_Sp_counted_ptr_inplaceI13RegistryEntryI20BVStrainComponentAuxESaIvELN9__gnu_cxx12_Lock_policyE2EE10_M_disposeEv
FNDA:0,_ZNSt23_Sp_counted_ptr_inplaceI13RegistryEntryI16BVMisesStressAuxESaIvELN9__gnu_cxx12_Lock_policyE2EE10_M_destroyEv
FNDA:0,_ZNSt23_Sp_counted_ptr_inplaceI13RegistryEntryI29BVFVSinglePhaseTimeDerivativeESaIvELN9__gnu_cxx12_Lock_policyE2EED0Ev
FNDA:0,_ZNSt23_Sp_counted_ptr_inplaceI21BVShearTractionActionSaIvELN9__gnu_cxx12_Lock_policyE2EE10_M_disposeEv
FNDA:0,_ZNSt23_Sp_counted_ptr_inplaceI13RegistryEntryI22BVConstantPermeabilityESaIvELN9__gnu_cxx12_Lock_policyE2EED2Ev
FNDA:0,_ZNSt23_Sp_counted_ptr_inplaceI13RegistryEntryI29BVFVSinglePhaseTimeDerivativeESaIvELN9__gnu_cxx12_Lock_policyE2EE14_M_get_deleterERKSt9type_info
FNDA:20,_ZNSt14__shared_countILN9__gnu_cxx12_Lock_policyE2EEC2I13RegistryEntryI20BVStrainComponentAuxESaIvEJRK17RegistryEntryDataEEERPT_St20_Sp_alloc_shared_tagIT0_EDpOT1_
FNDA:0,_ZNSt23_Sp_counted_ptr_inplaceI13RegistryEntryI27BVSinglePhaseTimeDerivativeESaIvELN9__gnu_cxx12_Lock_policyE2EED0Ev
FNDA:0,_ZNSt23_Sp_counted_ptr_inplaceI13RegistryEntryI27BVCapillaryPressurePowerLawESaIvELN9__gnu_cxx12_Lock_policyE2EE14_M_get_deleterERKSt9type_info
FNDA:0,_ZNSt23_Sp_counted_ptr_inplaceI13RegistryEntryI20BVStressComponentAuxESaIvELN9__gnu_cxx12_Lock_policyE2EED2Ev
FNDA:0,_ZNSt23_Sp_counted_ptr_inplaceI13RegistryEntryI18BVEqvStrainRateAuxESaIvELN9__gnu_cxx12_Lock_policyE2EED2Ev
FNDA:0,_ZNSt23_Sp_counted_ptr_inplaceI13RegistryEntryI27BVCapillaryPressurePowerLawESaIvELN9__gnu_cxx12_Lock_policyE2EE10_M_destroyEv
FNDA:20,_ZNSt14__shared_countILN9__gnu_cxx12_Lock_policyE2EEC2I13RegistryEntryI35BVFVSinglePhaseSoluteTimeDerivativeESaIvEJRK17RegistryEntryDataEEERPT_St20_Sp_alloc_shared_tagIT0_EDpOT1_
FNDA:992,_ZNSt16_Sp_counted_baseILN9__gnu_cxx12_Lock_policyE2EE10_M_releaseEv
FNDA:0,_ZNSt23_Sp_counted_ptr_inplaceI16BVPressureActionSaIvELN9__gnu_cxx12_Lock_policyE2EE14_M_get_deleterERKSt9type_info
FNDA:0,_ZNSt23_Sp_counted_ptr_inplaceI13RegistryEntryI22BVConstantPermeabilityESaIvELN9__gnu_cxx12_Lock_policyE2EE10_M_destroyEv
FNDA:20,_ZNSt14__shared_countILN9__gnu_cxx12_Lock_policyE2EEC2I13RegistryEntryI36BVFVMultiPhasePressureTimeDerivativeESaIvEJRK17RegistryEntryDataEEERPT_St20_Sp_alloc_shared_tagIT0_EDpOT1_
FNDA:0,_ZNSt23_Sp_counted_ptr_inplaceI13RegistryEntryI17BVFluidPropertiesESaIvELN9__gnu_cxx12_Lock_policyE2EED2Ev
FNDA:0,_ZNSt23_Sp_counted_ptr_inplaceI13RegistryEntryI27BVSinglePhaseTimeDerivativeESaIvELN9__gnu_cxx12_Lock_policyE2EE14_M_get_deleterERKSt9type_info
FNDA:0,_ZNSt14__shared_countILN9__gnu_cxx12_Lock_policyE2EEC2I9BeaverAppSaIvEJRK15InputParametersEEERPT_St20_Sp_alloc_shared_tagIT0_EDpOT1_
FNDA:20,_ZNSt14__shared_countILN9__gnu_cxx12_Lock_policyE2EEC2I13RegistryEntryI30BVRelativePermeabilityPowerLawESaIvEJRK17RegistryEntryDataEEERPT_St20_Sp_alloc_shared_tagIT0_EDpOT1_
FNDA:0,_ZNSt23_Sp_counted_ptr_inplaceI9BeaverAppSaIvELN9__gnu_cxx12_Lock_policyE2EE10_M_disposeEv
FNDA:0,_ZNSt23_Sp_counted_ptr_inplaceI13RegistryEntryI30BVRelativePermeabilityPowerLawESaIvELN9__gnu_cxx12_Lock_policyE2EED2Ev
FNDA:0,_ZNSt23_Sp_counted_ptr_inplaceI13RegistryEntryI38BVFVMultiPhaseSaturationTimeDerivativeESaIvELN9__gnu_cxx12_Lock_policyE2EE10_M_destroyEv
FNDA:0,_ZNSt23_Sp_counted_ptr_inplaceI13RegistryEntryI27BVMaxwellViscoelasticUpdateESaIvELN9__gnu_cxx12_Lock_policyE2EE10_M_destroyEv
FNDA:0,_ZNSt23_Sp_counted_ptr_inplaceI13RegistryEntryI13BVPressureAuxESaIvELN9__gnu_cxx12_Lock_policyE2EE10_M_destroyEv
FNDA:0,_ZNSt23_Sp_counted_ptr_inplaceI13RegistryEntryI18BVConstantPorosityESaIvELN9__gnu_cxx12_Lock_policyE2EE10_M_disposeEv
FNDA:0,_ZNSt23_Sp_counted_ptr_inplaceI13RegistryEntryI12BVPressureBCESaIvELN9__gnu_cxx12_Lock_policyE2EE10_M_destroyEv
FNDA:0,_ZNSt23_Sp_counted_ptr_inplaceI13RegistryEntryI29BVFVSinglePhaseTimeDerivativeESaIvELN9__gnu_cxx12_Lock_policyE2EED2Ev
FNDA:0,_ZNSt23_Sp_counted_ptr_inplaceI13RegistryEntryI18BVStressDivergenceESaIvELN9__gnu_cxx12_Lock_policyE2EED2Ev
FNDA:20,_ZNSt14__shared_countILN9__gnu_cxx12_Lock_policyE2EEC2I13RegistryEntryI23BVPoroMechanicsMaterialESaIvEJRK17RegistryEntryDataEEERPT_St20_Sp_alloc_shared_tagIT0_EDpOT1_
FNDA:0,_ZNSt23_Sp_counted_ptr_inplaceI13RegistryEntryI24BVMultiPhaseFlowMaterialESaIvELN9__gnu_cxx12_Lock_policyE2EE10_M_destroyEv
FNDA:0,_ZNSt23_Sp_counted_ptr_inplaceI13RegistryEntryI38BVFVMultiPhaseSaturationTimeDerivativeESaIvELN9__gnu_cxx12_Lock_policyE2EED2Ev
FNDA:0,_ZNSt23_Sp_counted_ptr_inplaceI13RegistryEntryI36BVFVMultiPhasePressureTimeDerivativeESaIvELN9__gnu_cxx12_Lock_policyE2EE10_M_destroyEv
FNDA:0,_ZNSt23_Sp_counted_ptr_inplaceI13RegistryEntryI18BVConstantPorosityESaIvELN9__gnu_cxx12_Lock_policyE2EED0Ev
FNDA:20,_ZNSt14__shared_countILN9__gnu_cxx12_Lock_policyE2EEC2I13RegistryEntryI20BVFVSinglePhaseDarcyESaIvEJRK17RegistryEntryDataEEERPT_St20_Sp_alloc_shared_tagIT0_EDpOT1_
FNDA:20,_ZNSt14__shared_countILN9__gnu_cxx12_Lock_policyE2EEC2I13RegistryEntryI22BVConstantPermeabilityESaIvEJRK17RegistryEntryDataEEERPT_St20_Sp_alloc_shared_tagIT0_EDpOT1_
FNDA:20,_ZNSt14__shared_countILN9__gnu_cxx12_Lock_policyE2EEC2I13RegistryEntryI16BVMisesStressAuxESaIvEJRK17RegistryEntryDataEEERPT_St20_Sp_alloc_shared_tagIT0_EDpOT1_
FNDA:0,_ZNSt23_Sp_counted_ptr_inplaceI16BVPressureActionSaIvELN9__gnu_cxx12_Lock_policyE2EED2Ev
FNDA:0,_ZNSt23_Sp_counted_ptr_inplaceI13RegistryEntryI20BVStressComponentAuxESaIvELN9__gnu_cxx12_Lock_policyE2EE14_M_get_deleterERKSt9type_info
FNDA:0,_ZNSt23_Sp_counted_ptr_inplaceI13RegistryEntryI14BVEqvStrainAuxESaIvELN9__gnu_cxx12_Lock_policyE2EED2Ev
FNDA:0,_ZNSt23_Sp_counted_ptr_inplaceI13RegistryEntryI20BVMechanicalMaterialESaIvELN9__gnu_cxx12_Lock_policyE2EED2Ev
FNDA:0,_ZNSt23_Sp_counted_ptr_inplaceI13RegistryEntryI20BVConstantDispersionESaIvELN9__gnu_cxx12_Lock_policyE2EE14_M_get_deleterERKSt9type_info
FNDA:20,_ZNSt14__shared_countILN9__gnu_cxx12_Lock_policyE2EEC2I13RegistryEntryI18BVEqvStrainRateAuxESaIvEJRK17RegistryEntryDataEEERPT_St20_Sp_alloc_shared_tagIT0_EDpOT1_
FNDA:20,_ZNSt14__shared_countILN9__gnu_cxx12_Lock_policyE2EEC2I13RegistryEntryI20BVMechanicalMaterialESaIvEJRK17RegistryEntryDataEEERPT_St20_Sp_alloc_shared_tagIT0_EDpOT1_
FNDA:20,_ZNSt14__shared_countILN9__gnu_cxx12_Lock_policyE2EEC2I13RegistryEntryI31BVSinglePhaseFlowSoluteMaterialESaIvEJRK17RegistryEntryDataEEERPT_St20_Sp_alloc_shared_tagIT0_EDpOT1_
FNDA:0,_ZNSt23_Sp_counted_ptr_inplaceI13RegistryEntryI20BVMechanicalMaterialESaIvELN9__gnu_cxx12_Lock_policyE2EE10_M_disposeEv
FNDA:0,_ZNSt23_Sp_counted_ptr_inplaceI13RegistryEntryI17BVFluidPropertiesESaIvELN9__gnu_cxx12_Lock_policyE2EED0Ev
FNDA:0,_ZNSt23_Sp_counted_ptr_inplaceI13RegistryEntryI17BVFluidPropertiesESaIvELN9__gnu_cxx12_Lock_policyE2EE10_M_destroyEv
FNDA:0,_ZNSt23_Sp_counted_ptr_inplaceI13RegistryEntryI13BVPressureAuxESaIvELN9__gnu_cxx12_Lock_policyE2EED0Ev
FNDA:20,_ZNSt14__shared_countILN9__gnu_cxx12_Lock_policyE2EEC2I13RegistryEntryI26BVFVSinglePhaseSoluteDarcyESaIvEJRK17RegistryEntryDataEEERPT_St20_Sp_alloc_shared_tagIT0_EDpOT1_
FNDA:0,_ZNSt23_Sp_counted_ptr_inplaceI13RegistryEntryI19BVLubby2ModelUpdateESaIvELN9__gnu_cxx12_Lock_policyE2EE10_M_disposeEv
FNDA:0,_ZNSt23_Sp_counted_ptr_inplaceI13RegistryEntryI24BVMultiPhaseFlowMaterialESaIvELN9__gnu_cxx12_Lock_policyE2EE10_M_disposeEv
FNDA:0,_ZNSt23_Sp_counted_ptr_inplaceI21BVShearTractionActionSaIvELN9__gnu_cxx12_Lock_policyE2EE14_M_get_deleterERKSt9type_info
FNDA:0,_ZNSt23_Sp_counted_ptr_inplaceI13RegistryEntryI23BVPoroMechanicsMaterialESaIvELN9__gnu_cxx12_Lock_policyE2EED0Ev
FNDA:0,_ZNSt23_Sp_counted_ptr_inplaceI13RegistryEntryI36BVFVMultiPhasePressureTimeDerivativeESaIvELN9__gnu_cxx12_Lock_policyE2EED0Ev
FNDA:0,_ZNSt23_Sp_counted_ptr_inplaceI13RegistryEntryI17BVShearTractionBCESaIvELN9__gnu_cxx12_Lock_policyE2EED0Ev
FNDA:0,_ZNSt23_Sp_counted_ptr_inplaceI13RegistryEntryI12BVPressureBCESaIvELN9__gnu_cxx12_Lock_policyE2EE14_M_get_deleterERKSt9type_info
FNDA:0,_ZNSt23_Sp_counted_ptr_inplaceI13RegistryEntryI27BVCapillaryPressurePowerLawESaIvELN9__gnu_cxx12_Lock_policyE2EED0Ev
FNDA:0,_ZNSt14__shared_countILN9__gnu_cxx12_Lock_policyE2EEC2I21BVShearTractionActionSaIvEJRK15InputParametersEEERPT_St20_Sp_alloc_shared_tagIT0_EDpOT1_
FNDA:0,_ZNSt23_Sp_counted_ptr_inplaceI13RegistryEntryI19BVBurgerModelUpdateESaIvELN9__gnu_cxx12_Lock_policyE2EED0Ev
FNDA:0,_ZNSt23_Sp_counted_ptr_inplaceI13RegistryEntryI24BVMultiPhaseFlowMaterialESaIvELN9__gnu_cxx12_Lock_policyE2EED2Ev
FNDA:0,_ZNSt23_Sp_counted_ptr_inplaceI13RegistryEntryI38BVFVMultiPhaseSaturationTimeDerivativeESaIvELN9__gnu_cxx12_Lock_policyE2EE10_M_disposeEv
FNDA:0,_ZNSt23_Sp_counted_ptr_inplaceI13RegistryEntryI20BVMechanicalMaterialESaIvELN9__gnu_cxx12_Lock_policyE2EED0Ev
FNDA:0,_ZNSt23_Sp_counted_ptr_inplaceI13RegistryEntryI13BVPressureAuxESaIvELN9__gnu_cxx12_Lock_policyE2EE10_M_disposeEv
FNDA:0,_ZNSt23_Sp_counted_ptr_inplaceI13RegistryEntryI13BVPressureAuxESaIvELN9__gnu_cxx12_Lock_policyE2EED2Ev
FNDA:0,_ZNSt23_Sp_counted_ptr_inplaceI13RegistryEntryI17BVShearTractionBCESaIvELN9__gnu_cxx12_Lock_policyE2EED2Ev
FNDA:0,_ZNSt23_Sp_counted_ptr_inplaceI13RegistryEntryI27BVSinglePhaseTimeDerivativeESaIvELN9__gnu_cxx12_Lock_policyE2EED2Ev
FNDA:0,_ZNSt23_Sp_counted_ptr_inplaceI13RegistryEntryI29BVFVMultiPhaseSaturationDarcyESaIvELN9__gnu_cxx12_Lock_policyE2EE10_M_destroyEv
FNDA:20,_ZNSt14__shared_countILN9__gnu_cxx12_Lock_policyE2EEC2I13RegistryEntryI29BVFVSinglePhaseTimeDerivativeESaIvEJRK17RegistryEntryDataEEERPT_St20_Sp_alloc_shared_tagIT0_EDpOT1_
FNDA:0,_ZNSt23_Sp_counted_ptr_inplaceI13RegistryEntryI31BVSinglePhaseFlowSoluteMaterialESaIvELN9__gnu_cxx12_Lock_policyE2EE10_M_destroyEv
FNDA:20,_ZNSt14__shared_countILN9__gnu_cxx12_Lock_policyE2EEC2I13RegistryEntryI18BVDarcyVelocityAuxESaIvEJRK17RegistryEntryDataEEERPT_St20_Sp_alloc_shared_tagIT0_EDpOT1_
FNDA:0,_ZNSt23_Sp_counted_ptr_inplaceI13RegistryEntryI14BVEqvStrainAuxESaIvELN9__gnu_cxx12_Lock_policyE2EE10_M_disposeEv
FNDA:0,_ZNSt23_Sp_counted_ptr_inplaceI13RegistryEntryI35BVFVSinglePhaseSoluteTimeDerivativeESaIvELN9__gnu_cxx12_Lock_policyE2EE10_M_disposeEv
FNDA:0,_ZNSt23_Sp_counted_ptr_inplaceI13RegistryEntryI31BVSinglePhaseFlowSoluteMaterialESaIvELN9__gnu_cxx12_Lock_policyE2EED0Ev
FNDA:0,_ZNSt23_Sp_counted_ptr_inplaceI13RegistryEntryI19BVBurgerModelUpdateESaIvELN9__gnu_cxx12_Lock_policyE2EE10_M_destroyEv
FNDA:0,_ZNSt23_Sp_counted_ptr_inplaceI13RegistryEntryI20BVStrainComponentAuxESaIvELN9__gnu_cxx12_Lock_policyE2EED2Ev
FNDA:0,_ZNSt23_Sp_counted_ptr_inplaceI13RegistryEntryI12BVPressureBCESaIvELN9__gnu_cxx12_Lock_policyE2EED2Ev
FNDA:0,_ZNSt23_Sp_counted_ptr_inplaceI13RegistryEntryI31BVSinglePhaseFlowSoluteMaterialESaIvELN9__gnu_cxx12_Lock_policyE2EED2Ev
FNDA:0,_ZNSt23_Sp_counted_ptr_inplaceI13RegistryEntryI18BVDarcyVelocityAuxESaIvELN9__gnu_cxx12_Lock_policyE2EED2Ev
FNDA:0,_ZNSt23_Sp_counted_ptr_inplaceI13RegistryEntryI27BVCapillaryPressurePowerLawESaIvELN9__gnu_cxx12_Lock_policyE2EE10_M_disposeEv
FNDA:0,_ZNSt23_Sp_counted_ptr_inplaceI13RegistryEntryI20BVConstantDispersionESaIvELN9__gnu_cxx12_Lock_policyE2EED2Ev
FNDA:20,_ZNSt14__shared_countILN9__gnu_cxx12_Lock_policyE2EEC2I13RegistryEntryI17BVShearTractionBCESaIvEJRK17RegistryEntryDataEEERPT_St20_Sp_alloc_shared_tagIT0_EDpOT1_
FNDA:0,_ZNSt23_Sp_counted_ptr_inplaceI13RegistryEntryI18BVSinglePhaseDarcyESaIvELN9__gnu_cxx12_Lock_policyE2EED0Ev
FNDA:0,_ZNSt23_Sp_counted_ptr_inplaceI13RegistryEntryI21BVShearTractionActionESaIvELN9__gnu_cxx12_Lock_policyE2EE10_M_destroyEv
FNDA:0,_ZNSt23_Sp_counted_ptr_inplaceI13RegistryEntryI26BVFVSinglePhaseSoluteDarcyESaIvELN9__gnu_cxx12_Lock_policyE2EED0Ev
FNDA:0,_ZNSt23_Sp_counted_ptr_inplaceI13RegistryEntryI27BVMaxwellViscoelasticUpdateESaIvELN9__gnu_cxx12_Lock_policyE2EED0Ev
FNDA:0,_ZNSt23_Sp_counted_ptr_inplaceI13RegistryEntryI23BVPoroMechanicsMaterialESaIvELN9__gnu_cxx12_Lock_policyE2EE14_M_get_deleterERKSt9type_info
FNDA:0,_ZNSt23_Sp_counted_ptr_inplaceI13RegistryEntryI23BVPoroMechanicsMaterialESaIvELN9__gnu_cxx12_Lock_policyE2EE10_M_destroyEv
FNDA:0,_ZNSt23_Sp_counted_ptr_inplaceISt5mutexSaIvELN9__gnu_cxx12_Lock_policyE2EED0Ev
FNDA:20,_ZNSt14__shared_countILN9__gnu_cxx12_Lock_policyE2EEC2I13RegistryEntryI27BVMaxwellViscoelasticUpdateESaIvEJRK17RegistryEntryDataEEERPT_St20_Sp_alloc_shared_tagIT0_EDpOT1_
FNDA:0,_ZNSt23_Sp_counted_ptr_inplaceI13RegistryEntryI27BVSinglePhaseTimeDerivativeESaIvELN9__gnu_cxx12_Lock_policyE2EE10_M_destroyEv
FNDA:0,_ZNSt23_Sp_counted_ptr_inplaceINSt13__future_base13_State_baseV2ESaIvELN9__gnu_cxx12_Lock_policyE2EE10_M_disposeEv
FNDA:20,_ZNSt14__shared_countILN9__gnu_cxx12_Lock_policyE2EEC2I13RegistryEntryI18BVSinglePhaseDarcyESaIvEJRK17RegistryEntryDataEEERPT_St20_Sp_alloc_shared_tagIT0_EDpOT1_
FNDA:0,_ZNSt23_Sp_counted_ptr_inplaceI13RegistryEntryI30BVRelativePermeabilityPowerLawESaIvELN9__gnu_cxx12_Lock_policyE2EE10_M_destroyEv
FNDA:0,_ZNSt23_Sp_counted_ptr_inplaceI13RegistryEntryI23BVPoroMechanicsMaterialESaIvELN9__gnu_cxx12_Lock_policyE2EED2Ev
FNDA:20,_ZNSt14__shared_countILN9__gnu_cxx12_Lock_policyE2EEC2I13RegistryEntryI19BVLubby2ModelUpdateESaIvEJRK17RegistryEntryDataEEERPT_St20_Sp_alloc_shared_tagIT0_EDpOT1_
FNDA:20,_ZNSt14__shared_countILN9__gnu_cxx12_Lock_policyE2EEC2I13RegistryEntryI20BVConstantDispersionESaIvEJRK17RegistryEntryDataEEERPT_St20_Sp_alloc_shared_tagIT0_EDpOT1_
FNDA:0,_ZNSt23_Sp_counted_ptr_inplaceI13RegistryEntryI19BVLubby2ModelUpdateESaIvELN9__gnu_cxx12_Lock_policyE2EE14_M_get_deleterERKSt9type_info
FNDA:0,_ZNSt23_Sp_counted_ptr_inplaceI13RegistryEntryI35BVFVSinglePhaseSoluteTimeDerivativeESaIvELN9__gnu_cxx12_Lock_policyE2EE10_M_destroyEv
FNDA:0,_ZNSt23_Sp_counted_ptr_inplaceISt5mutexSaIvELN9__gnu_cxx12_Lock_policyE2EE10_M_disposeEv
FNDA:0,_ZNSt23_Sp_counted_ptr_inplaceI13RegistryEntryI17BVFluidPropertiesESaIvELN9__gnu_cxx12_Lock_policyE2EE10_M_disposeEv
FNDA:0,_ZNSt23_Sp_counted_ptr_inplaceI13RegistryEntryI18BVEqvStrainRateAuxESaIvELN9__gnu_cxx12_Lock_policyE2EE14_M_get_deleterERKSt9type_info
FNDA:0,_ZNSt23_Sp_counted_ptr_inplaceI13RegistryEntryI27BVMaxwellViscoelasticUpdateESaIvELN9__gnu_cxx12_Lock_policyE2EE10_M_disposeEv
FNDA:0,_ZNSt23_Sp_counted_ptr_inplaceI13RegistryEntryI20BVFVSinglePhaseDarcyESaIvELN9__gnu_cxx12_Lock_policyE2EED0Ev
FNDA:20,_ZNSt14__shared_countILN9__gnu_cxx12_Lock_policyE2EEC2I13RegistryEntryI27BVCapillaryPressurePowerLawESaIvEJRK17RegistryEntryDataEEERPT_St20_Sp_alloc_shared_tagIT0_EDpOT1_
FNDA:0,_ZNSt23_Sp_counted_ptr_inplaceI13RegistryEntryI18BVSinglePhaseDarcyESaIvELN9__gnu_cxx12_Lock_policyE2EED2Ev
FNDA:0,_ZNSt23_Sp_counted_ptr_inplaceI13RegistryEntryI20BVMechanicalMaterialESaIvELN9__gnu_cxx12_Lock_policyE2EE10_M_destroyEv
FNDA:20,_ZNSt14__shared_countILN9__gnu_cxx12_Lock_policyE2EEC2I13RegistryEntryI27BVFVMultiPhasePressureDarcyESaIvEJRK17RegistryEntryDataEEERPT_St20_Sp_alloc_shared_tagIT0_EDpOT1_
FNDA:0,_ZNSt23_Sp_counted_ptr_inplaceI13RegistryEntryI20BVStrainComponentAuxESaIvELN9__gnu_cxx12_Lock_policyE2EE14_M_get_deleterERKSt9type_info
FNDA:0,_ZNSt23_Sp_counted_ptr_inplaceI13RegistryEntryI26BVFVSinglePhaseSoluteDarcyESaIvELN9__gnu_cxx12_Lock_policyE2EE10_M_destroyEv
FNDA:0,_ZNSt23_Sp_counted_ptr_inplaceINSt13__future_base13_State_baseV2ESaIvELN9__gnu_cxx12_Lock_policyE2EE10_M_destroyEv
FNDA:0,_ZNSt23_Sp_counted_ptr_inplaceI13RegistryEntryI25BVSinglePhaseFlowMaterialESaIvELN9__gnu_cxx12_Lock_policyE2EE10_M_disposeEv
FNDA:0,_ZNSt16_Sp_counted_baseILN9__gnu_cxx12_Lock_policyE2EE24_M_release_last_use_coldEv
FNDA:0,_ZNSt23_Sp_counted_ptr_inplaceI13RegistryEntryI23BVPoroMechanicsMaterialESaIvELN9__gnu_cxx12_Lock_policyE2EE10_M_disposeEv
FNDA:0,_ZNSt23_Sp_counted_ptr_inplaceI13RegistryEntryI29BVFVMultiPhaseSaturationDarcyESaIvELN9__gnu_cxx12_Lock_policyE2EE14_M_get_deleterERKSt9type_info
FNDA:0,_ZNSt16_Sp_counted_baseILN9__gnu_cxx12_Lock_policyE2EE10_M_destroyEv
FNDA:0,_ZNSt23_Sp_counted_ptr_inplaceI13RegistryEntryI26BVKelvinViscoelasticUpdateESaIvELN9__gnu_cxx12_Lock_policyE2EE10_M_disposeEv
FNF:255
FNH:43
DA:129,747
DA:130,747
DA:143,0
DA:144,0
DA:151,740
DA:152,740
DA:172,0
DA:175,0
DA:187,0
DA:191,0
DA:193,0
DA:198,0
DA:199,0
DA:208,226
DA:212,452
DA:221,0
DA:223,226
DA:317,992
DA:334,992
DA:337,992
DA:343,252
DA:346,252
DA:347,252
DA:348,252
DA:350,740
DA:351,0
DA:353,0
DA:354,0
DA:455,0
DA:587,7
DA:599,747
DA:600,747
DA:606,7
DA:608,7
DA:611,7
DA:614,7
DA:618,7
DA:623,7
DA:631,0
DA:639,0
DA:641,0
DA:646,0
DA:908,560
DA:964,747
DA:974,747
DA:975,747
DA:976,747
DA:1070,1732
DA:1071,992
DA:1074,740
DA:1075,740
DA:1077,740
DA:1078,740
DA:1099,567
DA:1100,560
DA:1101,567
DA:1166,226
DA:1167,226
DA:1528,740
DA:1531,560
DA:1532,0
DA:1535,560
DA:1540,7
DA:1666,780
DA:1711,747
DA:1712,747
LF:66
LH:47
end_of_record
TN:
SF:/usr/share/miniconda3/envs/moose/lib/gcc/x86_64-conda-linux-gnu/12.3.0/include/c++/bits/std_abs.h
FNF:0
FNH:0
DA:72,1768448
LF:1
LH:1
end_of_record
TN:
SF:/usr/share/miniconda3/envs/moose/lib/gcc/x86_64-conda-linux-gnu/12.3.0/include/c++/bits/std_function.h
FN:241,_ZNSt14_Function_baseD2Ev
FNDA:0,_ZNSt14_Function_baseD2Ev
FNF:1
FNH:0
DA:241,0
DA:243,0
DA:244,0
DA:245,0
DA:334,0
LF:5
LH:0
end_of_record
TN:
SF:/usr/share/miniconda3/envs/moose/lib/gcc/x86_64-conda-linux-gnu/12.3.0/include/c++/bits/std_mutex.h
FN:98,_ZNSt5mutex4lockEv
FNDA:0,_ZNSt5mutex4lockEv
FNF:1
FNH:0
DA:98,0
DA:100,0
DA:103,0
DA:104,0
DA:105,0
DA:229,0
LF:6
LH:0
end_of_record
TN:
SF:/usr/share/miniconda3/envs/moose/lib/gcc/x86_64-conda-linux-gnu/12.3.0/include/c++/bits/stl_algobase.h
FN:380,_ZNSt11__copy_moveILb0ELb0ESt26random_access_iterator_tagE8__copy_mIPK21NonlinearVariableNamePS3_EET0_T_S8_S7_
FN:380,_ZNSt11__copy_moveILb0ELb0ESt26random_access_iterator_tagE8__copy_mIP12MaterialNameS4_EET0_T_S6_S5_
FN:380,_ZNSt11__copy_moveILb0ELb0ESt26random_access_iterator_tagE8__copy_mIPKNSt7__cxx1112basic_stringIcSt11char_traitsIcESaIcEEE22infix_ostream_iteratorIS8_cS6_EEET0_T_SE_SD_
FN:380,_ZNSt11__copy_moveILb0ELb0ESt26random_access_iterator_tagE8__copy_mIPK12BoundaryNamePS3_EET0_T_S8_S7_
FN:380,_ZNSt11__copy_moveILb0ELb0ESt26random_access_iterator_tagE8__copy_mIP12FunctionNameS4_EET0_T_S6_S5_
FN:380,_ZNSt11__copy_moveILb0ELb0ESt26random_access_iterator_tagE8__copy_mIP21NonlinearVariableNameS4_EET0_T_S6_S5_
FN:380,_ZNSt11__copy_moveILb0ELb0ESt26random_access_iterator_tagE8__copy_mIP12BoundaryNameS4_EET0_T_S6_S5_
FN:380,_ZNSt11__copy_moveILb0ELb0ESt26random_access_iterator_tagE8__copy_mIPK12FunctionNamePS3_EET0_T_S8_S7_
FN:380,_ZNSt11__copy_moveILb0ELb0ESt26random_access_iterator_tagE8__copy_mIPK12MaterialNamePS3_EET0_T_S8_S7_
FN:521,_ZSt14__copy_move_a1ILb0EPKNSt7__cxx1112basic_stringIcSt11char_traitsIcESaIcEEE22infix_ostream_iteratorIS5_cS3_EET1_T0_SB_SA_
FN:527,_ZSt13__copy_move_aILb0EN9__gnu_cxx17__normal_iteratorIPKNSt7__cxx1112basic_stringIcSt11char_traitsIcESaIcEEESt6vectorIS7_SaIS7_EEEE22infix_ostream_iteratorIS7_cS5_EET1_T0_SH_SG_
FN:611,_ZSt4copyIPKdPdET0_T_S4_S3_
FN:611,_ZSt4copyIPKmPmET0_T_S4_S3_
FN:714,_ZNSt20__copy_move_backwardILb1ELb0ESt26random_access_iterator_tagE13__copy_move_bIPSt4pairIbN11MetaPhysicL10DualNumberIdNS4_28SemiDynamicSparseNumberArrayIdmNS4_8NWrapperILm64EEEEELb1EEEESC_EET0_T_SE_SD_
FN:883,_ZSt13move_backwardIPSt4pairIbdES2_ET0_T_S4_S3_
FN:906,_ZSt9__fill_a1IPSt4pairIbN11MetaPhysicL10DualNumberIdNS1_28SemiDynamicSparseNumberArrayIdmNS1_8NWrapperILm64EEEEELb1EEEES8_EN9__gnu_cxx11__enable_ifIXntsrSt11__is_scalarIT0_E7__valueEvE6__typeET_SH_RKSD_
FNDA:0,_ZSt14__copy_move_a1ILb0EPKNSt7__cxx1112basic_stringIcSt11char_traitsIcESaIcEEE22infix_ostream_iteratorIS5_cS3_EET1_T0_SB_SA_
FNDA:0,_ZNSt11__copy_moveILb0ELb0ESt26random_access_iterator_tagE8__copy_mIPK12MaterialNamePS3_EET0_T_S8_S7_
FNDA:0,_ZNSt20__copy_move_backwardILb1ELb0ESt26random_access_iterator_tagE13__copy_move_bIPSt4pairIbN11MetaPhysicL10DualNumberIdNS4_28SemiDynamicSparseNumberArrayIdmNS4_8NWrapperILm64EEEEELb1EEEESC_EET0_T_SE_SD_
FNDA:100948312,_ZSt4copyIPKmPmET0_T_S4_S3_
FNDA:0,_ZSt9__fill_a1IPSt4pairIbN11MetaPhysicL10DualNumberIdNS1_28SemiDynamicSparseNumberArrayIdmNS1_8NWrapperILm64EEEEELb1EEEES8_EN9__gnu_cxx11__enable_ifIXntsrSt11__is_scalarIT0_E7__valueEvE6__typeET_SH_RKSD_
FNDA:100948312,_ZSt4copyIPKdPdET0_T_S4_S3_
FNDA:0,_ZSt13move_backwardIPSt4pairIbdES2_ET0_T_S4_S3_
FNDA:0,_ZNSt11__copy_moveILb0ELb0ESt26random_access_iterator_tagE8__copy_mIPK21NonlinearVariableNamePS3_EET0_T_S8_S7_
FNDA:0,_ZNSt11__copy_moveILb0ELb0ESt26random_access_iterator_tagE8__copy_mIP12MaterialNameS4_EET0_T_S6_S5_
FNDA:0,_ZNSt11__copy_moveILb0ELb0ESt26random_access_iterator_tagE8__copy_mIPKNSt7__cxx1112basic_stringIcSt11char_traitsIcESaIcEEE22infix_ostream_iteratorIS8_cS6_EEET0_T_SE_SD_
FNDA:0,_ZNSt11__copy_moveILb0ELb0ESt26random_access_iterator_tagE8__copy_mIPK12BoundaryNamePS3_EET0_T_S8_S7_
FNDA:0,_ZNSt11__copy_moveILb0ELb0ESt26random_access_iterator_tagE8__copy_mIP12BoundaryNameS4_EET0_T_S6_S5_
FNDA:172,_ZNSt11__copy_moveILb0ELb0ESt26random_access_iterator_tagE8__copy_mIPK12FunctionNamePS3_EET0_T_S8_S7_
FNDA:0,_ZNSt11__copy_moveILb0ELb0ESt26random_access_iterator_tagE8__copy_mIP12FunctionNameS4_EET0_T_S6_S5_
FNDA:0,_ZNSt11__copy_moveILb0ELb0ESt26random_access_iterator_tagE8__copy_mIP21NonlinearVariableNameS4_EET0_T_S6_S5_
FNDA:0,_ZSt13__copy_move_aILb0EN9__gnu_cxx17__normal_iteratorIPKNSt7__cxx1112basic_stringIcSt11char_traitsIcESaIcEEESt6vectorIS7_SaIS7_EEEE22infix_ostream_iteratorIS7_cS5_EET1_T0_SH_SG_
FNF:16
FNH:3
DA:235,55
DA:236,22
DA:259,12
DA:260,12
DA:315,0
DA:336,0
DA:380,172
DA:383,172
DA:385,0
DA:386,0
DA:387,0
DA:389,172
DA:429,201896624
DA:430,368651
DA:431,187081411
DA:432,201896624
DA:495,172
DA:521,0
DA:522,0
DA:527,0
DA:529,0
DA:532,0
DA:611,201896624
DA:620,201896624
DA:714,0
DA:717,0
DA:718,0
DA:719,0
DA:720,0
DA:760,0
DA:883,0
DA:894,0
DA:906,0
DA:909,0
DA:911,0
DA:920,10112
DA:921,40646
DA:922,30468
DA:968,0
DA:999,0
DA:1114,10178
DA:1119,10178
LF:42
LH:19
end_of_record
TN:
SF:/usr/share/miniconda3/envs/moose/lib/gcc/x86_64-conda-linux-gnu/12.3.0/include/c++/bits/stl_construct.h
FN:109,_ZSt10_ConstructI9BeaverAppJRK15InputParametersEEvPT_DpOT0_
FN:160,_ZNSt12_Destroy_auxILb0EE9__destroyIPSt5tupleIJNSt7__cxx1112basic_stringIcSt11char_traitsIcESaIcEEEN5Moose23RelationshipManagerTypeESt8functionIFvRK15InputParametersRSC_EEEEEEvT_SK_
FN:160,_ZNSt12_Destroy_auxILb0EE9__destroyIPSt10unique_ptrIN5Moose15FunctorEnvelopeIdEESt14default_deleteIS5_EEEEvT_SA_
FN:160,_ZNSt12_Destroy_auxILb0EE9__destroyIPSt3setIP18MooseVariableFieldIdESt4lessIS5_ESaIS5_EEEEvT_SB_
FN:160,_ZNSt12_Destroy_auxILb0EE9__destroyIPSt10unique_ptrIN5Moose15FunctorEnvelopeIN11MetaPhysicL10DualNumberIdNS5_28SemiDynamicSparseNumberArrayIdmNS5_8NWrapperILm64EEEEELb1EEEEESt14default_deleteISC_EEEEvT_SH_
FN:160,_ZNSt12_Destroy_auxILb0EE9__destroyIPSt10shared_ptrI17RegistryEntryBaseEEEvT_S6_
FNDA:0,_ZNSt12_Destroy_auxILb0EE9__destroyIPSt10shared_ptrI17RegistryEntryBaseEEEvT_S6_
FNDA:206,_ZNSt12_Destroy_auxILb0EE9__destroyIPSt10unique_ptrIN5Moose15FunctorEnvelopeIN11MetaPhysicL10DualNumberIdNS5_28SemiDynamicSparseNumberArrayIdmNS5_8NWrapperILm64EEEEELb1EEEEESt14default_deleteISC_EEEEvT_SH_
FNDA:206,_ZNSt12_Destroy_auxILb0EE9__destroyIPSt10unique_ptrIN5Moose15FunctorEnvelopeIdEESt14default_deleteIS5_EEEEvT_SA_
FNDA:20,_ZNSt12_Destroy_auxILb0EE9__destroyIPSt5tupleIJNSt7__cxx1112basic_stringIcSt11char_traitsIcESaIcEEEN5Moose23RelationshipManagerTypeESt8functionIFvRK15InputParametersRSC_EEEEEEvT_SK_
FNDA:226,_ZNSt12_Destroy_auxILb0EE9__destroyIPSt3setIP18MooseVariableFieldIdESt4lessIS5_ESaIS5_EEEEvT_SB_
FNDA:0,_ZSt10_ConstructI9BeaverAppJRK15InputParametersEEvPT_DpOT0_
FNF:6
FNH:4
DA:109,0
DA:119,73
DA:120,0
DA:151,7
DA:160,658
DA:162,2689
DA:164,658
DA:196,658
LF:8
LH:6
end_of_record
TN:
SF:/usr/share/miniconda3/envs/moose/lib/gcc/x86_64-conda-linux-gnu/12.3.0/include/c++/bits/stl_function.h
FN:607,_ZNSt4lessIvE6_S_cmpIRKSt17basic_string_viewIcSt11char_traitsIcEERKNSt7__cxx1112basic_stringIcS4_SaIcEEEEEDcOT_OT0_St17integral_constantIbLb0EE
FN:607,_ZNSt4lessIvE6_S_cmpIRKNSt7__cxx1112basic_stringIcSt11char_traitsIcESaIcEEERKSt17basic_string_viewIcS5_EEEDcOT_OT0_St17integral_constantIbLb0EE
FNDA:44,_ZNSt4lessIvE6_S_cmpIRKNSt7__cxx1112basic_stringIcSt11char_traitsIcESaIcEEERKSt17basic_string_viewIcS5_EEEDcOT_OT0_St17integral_constantIbLb0EE
FNDA:11,_ZNSt4lessIvE6_S_cmpIRKSt17basic_string_viewIcSt11char_traitsIcEERKNSt7__cxx1112basic_stringIcS4_SaIcEEEEEDcOT_OT0_St17integral_constantIbLb0EE
FNF:2
FNH:2
DA:378,0
DA:408,0
DA:593,55
DA:607,55
DA:608,55
DA:1183,9004192
LF:6
LH:4
end_of_record
TN:
SF:/usr/share/miniconda3/envs/moose/lib/gcc/x86_64-conda-linux-gnu/12.3.0/include/c++/bits/stl_iterator.h
FNF:0
FNH:0
DA:294,1361591592
DA:295,680538724
DA:344,30626704
DA:367,30626704
DA:1073,107
DA:1079,0
DA:1090,0
DA:1107,0
DA:1108,0
DA:1154,740
DA:1224,0
DA:1240,0
DA:1333,12
DA:1542,0
DA:1572,0
LF:15
LH:7
end_of_record
TN:
SF:/usr/share/miniconda3/envs/moose/lib/gcc/x86_64-conda-linux-gnu/12.3.0/include/c++/bits/stl_iterator_base_funcs.h
FNF:0
FNH:0
DA:105,51821
LF:1
LH:1
end_of_record
TN:
SF:/usr/share/miniconda3/envs/moose/lib/gcc/x86_64-conda-linux-gnu/12.3.0/include/c++/bits/stl_map.h
FN:502,_ZNSt3mapINSt7__cxx1112basic_stringIcSt11char_traitsIcESaIcEEEN15InputParameters8MetadataESt4lessIS5_ESaISt4pairIKS5_S7_EEEixERSB_
FN:502,_ZNSt3mapINSt7__cxx1112basic_stringIcSt11char_traitsIcESaIcEEESt6vectorISt10shared_ptrI17RegistryEntryBaseESaIS9_EESt4lessIS5_ESaISt4pairIKS5_SB_EEEixERSF_
FN:502,_ZNSt3mapINSt7__cxx1112basic_stringIcSt11char_traitsIcESaIcEEESt10unique_ptrI23AppFactoryBuildInfoBaseSt14default_deleteIS7_EESt4lessIS5_ESaISt4pairIKS5_SA_EEEixERSE_
FN:502,_ZNSt3mapINSt7__cxx1112basic_stringIcSt11char_traitsIcESaIcEEESt10unique_ptrIN7libMesh10Parameters5ValueESt14default_deleteIS9_EESt4lessIvESaISt4pairIKS5_SC_EEEixERSG_
FN:522,_ZNSt3mapINSt7__cxx1112basic_stringIcSt11char_traitsIcESaIcEEES5_St4lessIS5_ESaISt4pairIKS5_S5_EEEixEOS5_
FN:721,_ZNSt3mapIN5Moose7ElemArgEdSt4lessIS1_ESaISt4pairIKS1_dEEE11try_emplaceIJdEEES4_ISt17_Rb_tree_iteratorIS6_EbERS5_DpOT_
FN:721,_ZNSt3mapIN5Moose7ElemArgEN11MetaPhysicL10DualNumberIdNS2_28SemiDynamicSparseNumberArrayIdmNS2_8NWrapperILm64EEEEELb1EEESt4lessIS1_ESaISt4pairIKS1_S8_EEE11try_emplaceIJS8_EEESB_ISt17_Rb_tree_iteratorISD_EbERSC_DpOT_
FN:721,_ZNSt3mapIN5Moose7FaceArgEN11MetaPhysicL10DualNumberIdNS2_28SemiDynamicSparseNumberArrayIdmNS2_8NWrapperILm64EEEEELb1EEESt4lessIS1_ESaISt4pairIKS1_S8_EEE11try_emplaceIJS8_EEESB_ISt17_Rb_tree_iteratorISD_EbERSC_DpOT_
FN:721,_ZNSt3mapIN5Moose7FaceArgEdSt4lessIS1_ESaISt4pairIKS1_dEEE11try_emplaceIJdEEES4_ISt17_Rb_tree_iteratorIS6_EbERS5_DpOT_
FN:1306,_ZNSt3mapINSt7__cxx1112basic_stringIcSt11char_traitsIcESaIcEEESt6vectorISt10shared_ptrI17RegistryEntryBaseESaIS9_EESt4lessIS5_ESaISt4pairIKS5_SB_EEE11lower_boundERSF_
FN:1306,_ZNSt3mapIN5Moose7FaceArgEdSt4lessIS1_ESaISt4pairIKS1_dEEE11lower_boundERS5_
FN:1306,_ZNSt3mapINSt7__cxx1112basic_stringIcSt11char_traitsIcESaIcEEEN15InputParameters8MetadataESt4lessIS5_ESaISt4pairIKS5_S7_EEE11lower_boundERSB_
FN:1306,_ZNSt3mapINSt7__cxx1112basic_stringIcSt11char_traitsIcESaIcEEES5_St4lessIS5_ESaISt4pairIKS5_S5_EEE11lower_boundERS9_
FN:1306,_ZNSt3mapIN5Moose7FaceArgEN11MetaPhysicL10DualNumberIdNS2_28SemiDynamicSparseNumberArrayIdmNS2_8NWrapperILm64EEEEELb1EEESt4lessIS1_ESaISt4pairIKS1_S8_EEE11lower_boundERSC_
FN:1306,_ZNSt3mapIN5Moose7ElemArgEdSt4lessIS1_ESaISt4pairIKS1_dEEE11lower_boundERS5_
FN:1306,_ZNSt3mapIN5Moose7ElemArgEN11MetaPhysicL10DualNumberIdNS2_28SemiDynamicSparseNumberArrayIdmNS2_8NWrapperILm64EEEEELb1EEESt4lessIS1_ESaISt4pairIKS1_S8_EEE11lower_boundERSC_
FN:1306,_ZNSt3mapINSt7__cxx1112basic_stringIcSt11char_traitsIcESaIcEEESt10unique_ptrIN7libMesh10Parameters5ValueESt14default_deleteIS9_EESt4lessIvESaISt4pairIKS5_SC_EEE11lower_boundERSG_
FN:1306,_ZNSt3mapINSt7__cxx1112basic_stringIcSt11char_traitsIcESaIcEEESt10unique_ptrI23AppFactoryBuildInfoBaseSt14default_deleteIS7_EESt4lessIS5_ESaISt4pairIKS5_SA_EEE11lower_boundERSE_
FNDA:0,_ZNSt3mapIN5Moose7FaceArgEN11MetaPhysicL10DualNumberIdNS2_28SemiDynamicSparseNumberArrayIdmNS2_8NWrapperILm64EEEEELb1EEESt4lessIS1_ESaISt4pairIKS1_S8_EEE11lower_boundERSC_
FNDA:740,_ZNSt3mapINSt7__cxx1112basic_stringIcSt11char_traitsIcESaIcEEES5_St4lessIS5_ESaISt4pairIKS5_S5_EEE11lower_boundERS9_
FNDA:0,_ZNSt3mapIN5Moose7FaceArgEN11MetaPhysicL10DualNumberIdNS2_28SemiDynamicSparseNumberArrayIdmNS2_8NWrapperILm64EEEEELb1EEESt4lessIS1_ESaISt4pairIKS1_S8_EEE11try_emplaceIJS8_EEESB_ISt17_Rb_tree_iteratorISD_EbERSC_DpOT_
FNDA:0,_ZNSt3mapIN5Moose7ElemArgEN11MetaPhysicL10DualNumberIdNS2_28SemiDynamicSparseNumberArrayIdmNS2_8NWrapperILm64EEEEELb1EEESt4lessIS1_ESaISt4pairIKS1_S8_EEE11lower_boundERSC_
FNDA:0,_ZNSt3mapIN5Moose7ElemArgEdSt4lessIS1_ESaISt4pairIKS1_dEEE11lower_boundERS5_
FNDA:740,_ZNSt3mapINSt7__cxx1112basic_stringIcSt11char_traitsIcESaIcEEESt6vectorISt10shared_ptrI17RegistryEntryBaseESaIS9_EESt4lessIS5_ESaISt4pairIKS5_SB_EEEixERSF_
FNDA:11,_ZNSt3mapINSt7__cxx1112basic_stringIcSt11char_traitsIcESaIcEEESt10unique_ptrIN7libMesh10Parameters5ValueESt14default_deleteIS9_EESt4lessIvESaISt4pairIKS5_SC_EEEixERSG_
FNDA:0,_ZNSt3mapINSt7__cxx1112basic_stringIcSt11char_traitsIcESaIcEEESt10unique_ptrI23AppFactoryBuildInfoBaseSt14default_deleteIS7_EESt4lessIS5_ESaISt4pairIKS5_SA_EEEixERSE_
FNDA:0,_ZNSt3mapIN5Moose7FaceArgEdSt4lessIS1_ESaISt4pairIKS1_dEEE11try_emplaceIJdEEES4_ISt17_Rb_tree_iteratorIS6_EbERS5_DpOT_
FNDA:0,_ZNSt3mapINSt7__cxx1112basic_stringIcSt11char_traitsIcESaIcEEESt10unique_ptrI23AppFactoryBuildInfoBaseSt14default_deleteIS7_EESt4lessIS5_ESaISt4pairIKS5_SA_EEE11lower_boundERSE_
FNDA:11,_ZNSt3mapINSt7__cxx1112basic_stringIcSt11char_traitsIcESaIcEEESt10unique_ptrIN7libMesh10Parameters5ValueESt14default_deleteIS9_EESt4lessIvESaISt4pairIKS5_SC_EEE11lower_boundERSG_
FNDA:740,_ZNSt3mapINSt7__cxx1112basic_stringIcSt11char_traitsIcESaIcEEESt6vectorISt10shared_ptrI17RegistryEntryBaseESaIS9_EESt4lessIS5_ESaISt4pairIKS5_SB_EEE11lower_boundERSF_
FNDA:0,_ZNSt3mapIN5Moose7ElemArgEdSt4lessIS1_ESaISt4pairIKS1_dEEE11try_emplaceIJdEEES4_ISt17_Rb_tree_iteratorIS6_EbERS5_DpOT_
FNDA:0,_ZNSt3mapIN5Moose7FaceArgEdSt4lessIS1_ESaISt4pairIKS1_dEEE11lower_boundERS5_
FNDA:711,_ZNSt3mapINSt7__cxx1112basic_stringIcSt11char_traitsIcESaIcEEEN15InputParameters8MetadataESt4lessIS5_ESaISt4pairIKS5_S7_EEEixERSB_
FNDA:711,_ZNSt3mapINSt7__cxx1112basic_stringIcSt11char_traitsIcESaIcEEEN15InputParameters8MetadataESt4lessIS5_ESaISt4pairIKS5_S7_EEE11lower_boundERSB_
FNDA:0,_ZNSt3mapIN5Moose7ElemArgEN11MetaPhysicL10DualNumberIdNS2_28SemiDynamicSparseNumberArrayIdmNS2_8NWrapperILm64EEEEELb1EEESt4lessIS1_ESaISt4pairIKS1_S8_EEE11try_emplaceIJS8_EEESB_ISt17_Rb_tree_iteratorISD_EbERSC_DpOT_
FNDA:740,_ZNSt3mapINSt7__cxx1112basic_stringIcSt11char_traitsIcESaIcEEES5_St4lessIS5_ESaISt4pairIKS5_S5_EEEixEOS5_
FNF:18
FNH:8
DA:312,1264
DA:329,0
DA:502,1462
DA:507,1462
DA:509,1462
DA:511,62
DA:512,62
DA:513,62
DA:517,1462
DA:522,740
DA:527,740
DA:529,740
DA:530,740
DA:532,740
DA:533,740
DA:638,0
DA:721,0
DA:723,0
DA:724,0
DA:726,0
DA:730,0
DA:732,0
DA:1182,0
DA:1243,0
DA:1249,11
DA:1264,0
DA:1306,2202
DA:1307,2202
LF:28
LH:17
end_of_record
TN:
SF:/usr/share/miniconda3/envs/moose/lib/gcc/x86_64-conda-linux-gnu/12.3.0/include/c++/bits/stl_multimap.h
FNF:0
FNH:0
DA:301,20
LF:1
LH:1
end_of_record
TN:
SF:/usr/share/miniconda3/envs/moose/lib/gcc/x86_64-conda-linux-gnu/12.3.0/include/c++/bits/stl_pair.h
FN:195,_ZNSt4pairIK13MooseEnumItemNSt7__cxx1112basic_stringIcSt11char_traitsIcESaIcEEEEC2ERKS8_
FN:195,_ZNSt4pairIK13MooseEnumItemS0_EC2ERKS2_
FNDA:0,_ZNSt4pairIK13MooseEnumItemNSt7__cxx1112basic_stringIcSt11char_traitsIcESaIcEEEEC2ERKS8_
FNDA:0,_ZNSt4pairIK13MooseEnumItemS0_EC2ERKS2_
FNF:2
FNH:0
DA:185,1480
DA:195,0
DA:196,0
DA:535,0
DA:572,0
DA:573,0
DA:584,0
DA:585,0
DA:816,0
LF:9
LH:1
end_of_record
TN:
SF:/usr/share/miniconda3/envs/moose/lib/gcc/x86_64-conda-linux-gnu/12.3.0/include/c++/bits/stl_set.h
FN:243,_ZNSt3setINSt7__cxx1112basic_stringIcSt11char_traitsIcESaIcEEESt4lessIS5_ESaIS5_EEC2ESt16initializer_listIS5_ERKS7_RKS8_
FN:281,_ZNSt3setIsSt4lessIsESaIsEED2Ev
FN:281,_ZNSt3setItSt4lessItESaItEED2Ev
FN:509,_ZNSt3setINSt7__cxx1112basic_stringIcSt11char_traitsIcESaIcEEESt4lessIS5_ESaIS5_EE6insertERKS5_
FNDA:160,_ZNSt3setItSt4lessItESaItEED2Ev
FNDA:160,_ZNSt3setIsSt4lessIsESaIsEED2Ev
FNDA:0,_ZNSt3setINSt7__cxx1112basic_stringIcSt11char_traitsIcESaIcEEESt4lessIS5_ESaIS5_EE6insertERKS5_
FNDA:40,_ZNSt3setINSt7__cxx1112basic_stringIcSt11char_traitsIcESaIcEEESt4lessIS5_ESaIS5_EEC2ESt16initializer_listIS5_ERKS7_RKS8_
FNF:4
FNH:3
DA:243,40
DA:246,40
DA:247,40
DA:281,2229
DA:298,0
DA:509,0
DA:512,0
DA:513,0
DA:749,0
LF:9
LH:4
end_of_record
TN:
SF:/usr/share/miniconda3/envs/moose/lib/gcc/x86_64-conda-linux-gnu/12.3.0/include/c++/bits/stl_tree.h
FN:445,_ZNSt8_Rb_treeI13MooseEnumItemS0_St9_IdentityIS0_ESt4lessIS0_ESaIS0_EE20_Reuse_or_alloc_nodeC2ERS6_
FN:445,_ZNSt8_Rb_treeI13MooseEnumItemSt4pairIKS0_S0_ESt10_Select1stIS3_ESt4lessIS0_ESaIS3_EE20_Reuse_or_alloc_nodeC2ERS9_
FN:445,_ZNSt8_Rb_treeI13MooseEnumItemSt4pairIKS0_NSt7__cxx1112basic_stringIcSt11char_traitsIcESaIcEEEESt10_Select1stIS9_ESt4lessIS0_ESaIS9_EE20_Reuse_or_alloc_nodeC2ERSF_
FN:468,_ZNSt8_Rb_treeI13MooseEnumItemSt4pairIKS0_S0_ESt10_Select1stIS3_ESt4lessIS0_ESaIS3_EE20_Reuse_or_alloc_nodeclIRKS3_EEPSt13_Rb_tree_nodeIS3_EOT_
FN:468,_ZNSt8_Rb_treeI13MooseEnumItemSt4pairIKS0_NSt7__cxx1112basic_stringIcSt11char_traitsIcESaIcEEEESt10_Select1stIS9_ESt4lessIS0_ESaIS9_EE20_Reuse_or_alloc_nodeclIRKS9_EEPSt13_Rb_tree_nodeIS9_EOT_
FN:468,_ZNSt8_Rb_treeI13MooseEnumItemS0_St9_IdentityIS0_ESt4lessIS0_ESaIS0_EE20_Reuse_or_alloc_nodeclIRKS0_EEPSt13_Rb_tree_nodeIS0_EOT_
FN:483,_ZNSt8_Rb_treeI13MooseEnumItemSt4pairIKS0_NSt7__cxx1112basic_stringIcSt11char_traitsIcESaIcEEEESt10_Select1stIS9_ESt4lessIS0_ESaIS9_EE20_Reuse_or_alloc_node10_M_extractEv
FN:483,_ZNSt8_Rb_treeI13MooseEnumItemSt4pairIKS0_S0_ESt10_Select1stIS3_ESt4lessIS0_ESaIS3_EE20_Reuse_or_alloc_node10_M_extractEv
FN:483,_ZNSt8_Rb_treeI13MooseEnumItemS0_St9_IdentityIS0_ESt4lessIS0_ESaIS0_EE20_Reuse_or_alloc_node10_M_extractEv
FN:592,_ZNSt8_Rb_treeINSt7__cxx1112basic_stringIcSt11char_traitsIcESaIcEEESt4pairIKS5_St6vectorISt10shared_ptrI17RegistryEntryBaseESaISB_EEESt10_Select1stISE_ESt4lessIS5_ESaISE_EE17_M_construct_nodeIJRKSt21piecewise_construct_tSt5tupleIJRS7_EESP_IJEEEEEvPSt13_Rb_tree_nodeISE_EDpOT_
FN:592,_ZNSt8_Rb_treeI13MooseEnumItemS0_St9_IdentityIS0_ESt4lessIS0_ESaIS0_EE17_M_construct_nodeIJRKS0_EEEvPSt13_Rb_tree_nodeIS0_EDpOT_
FN:592,_ZNSt8_Rb_treeI13MooseEnumItemSt4pairIKS0_S0_ESt10_Select1stIS3_ESt4lessIS0_ESaIS3_EE17_M_construct_nodeIJRKS3_EEEvPSt13_Rb_tree_nodeIS3_EDpOT_
FN:592,_ZNSt8_Rb_treeINSt7__cxx1112basic_stringIcSt11char_traitsIcESaIcEEESt4pairIKS5_St10unique_ptrI23AppFactoryBuildInfoBaseSt14default_deleteIS9_EEESt10_Select1stISD_ESt4lessIS5_ESaISD_EE17_M_construct_nodeIJRKSt21piecewise_construct_tSt5tupleIJRS7_EESO_IJEEEEEvPSt13_Rb_tree_nodeISD_EDpOT_
FN:592,_ZNSt8_Rb_treeINSt7__cxx1112basic_stringIcSt11char_traitsIcESaIcEEESt4pairIKS5_St10unique_ptrIN7libMesh10Parameters5ValueESt14default_deleteISB_EEESt10_Select1stISF_ESt4lessIvESaISF_EE17_M_construct_nodeIJRKSt21piecewise_construct_tSt5tupleIJRS7_EESQ_IJEEEEEvPSt13_Rb_tree_nodeISF_EDpOT_
FN:592,_ZNSt8_Rb_treeINSt7__cxx1112basic_stringIcSt11char_traitsIcESaIcEEES5_St9_IdentityIS5_ESt4lessIS5_ESaIS5_EE17_M_construct_nodeIJRKS5_EEEvPSt13_Rb_tree_nodeIS5_EDpOT_
FN:592,_ZNSt8_Rb_treeINSt7__cxx1112basic_stringIcSt11char_traitsIcESaIcEEESt4pairIKS5_N15InputParameters8MetadataEESt10_Select1stISA_ESt4lessIS5_ESaISA_EE17_M_construct_nodeIJRKSt21piecewise_construct_tSt5tupleIJRS7_EESL_IJEEEEEvPSt13_Rb_tree_nodeISA_EDpOT_
FN:592,_ZNSt8_Rb_treeI13MooseEnumItemSt4pairIKS0_NSt7__cxx1112basic_stringIcSt11char_traitsIcESaIcEEEESt10_Select1stIS9_ESt4lessIS0_ESaIS9_EE17_M_construct_nodeIJRKS9_EEEvPSt13_Rb_tree_nodeIS9_EDpOT_
FN:611,_ZNSt8_Rb_treeINSt7__cxx1112basic_stringIcSt11char_traitsIcESaIcEEESt4pairIKS5_St10unique_ptrIN7libMesh10Parameters5ValueESt14default_deleteISB_EEESt10_Select1stISF_ESt4lessIvESaISF_EE14_M_create_nodeIJRKSt21piecewise_construct_tSt5tupleIJRS7_EESQ_IJEEEEEPSt13_Rb_tree_nodeISF_EDpOT_
FN:611,_ZNSt8_Rb_treeI13MooseEnumItemSt4pairIKS0_S0_ESt10_Select1stIS3_ESt4lessIS0_ESaIS3_EE14_M_create_nodeIJRKS3_EEEPSt13_Rb_tree_nodeIS3_EDpOT_
FN:611,_ZNSt8_Rb_treeINSt7__cxx1112basic_stringIcSt11char_traitsIcESaIcEEESt4pairIKS5_N15InputParameters8MetadataEESt10_Select1stISA_ESt4lessIS5_ESaISA_EE14_M_create_nodeIJRKSt21piecewise_construct_tSt5tupleIJRS7_EESL_IJEEEEEPSt13_Rb_tree_nodeISA_EDpOT_
FN:611,_ZNSt8_Rb_treeIN5Moose7FaceArgESt4pairIKS1_dESt10_Select1stIS4_ESt4lessIS1_ESaIS4_EE14_M_create_nodeIJRKSt21piecewise_construct_tSt5tupleIJRS3_EESF_IJOdEEEEEPSt13_Rb_tree_nodeIS4_EDpOT_
FN:611,_ZNSt8_Rb_treeIN5Moose7ElemArgESt4pairIKS1_dESt10_Select1stIS4_ESt4lessIS1_ESaIS4_EE14_M_create_nodeIJRKSt21piecewise_construct_tSt5tupleIJRS3_EESF_IJOdEEEEEPSt13_Rb_tree_nodeIS4_EDpOT_
FN:611,_ZNSt8_Rb_treeIN5Moose7ElemArgESt4pairIKS1_N11MetaPhysicL10DualNumberIdNS4_28SemiDynamicSparseNumberArrayIdmNS4_8NWrapperILm64EEEEELb1EEEESt10_Select1stISB_ESt4lessIS1_ESaISB_EE14_M_create_nodeIJRKSt21piecewise_construct_tSt5tupleIJRS3_EESM_IJOSA_EEEEEPSt13_Rb_tree_nodeISB_EDpOT_
FN:611,_ZNSt8_Rb_treeIN5Moose7FaceArgESt4pairIKS1_N11MetaPhysicL10DualNumberIdNS4_28SemiDynamicSparseNumberArrayIdmNS4_8NWrapperILm64EEEEELb1EEEESt10_Select1stISB_ESt4lessIS1_ESaISB_EE14_M_create_nodeIJRKSt21piecewise_construct_tSt5tupleIJRS3_EESM_IJOSA_EEEEEPSt13_Rb_tree_nodeISB_EDpOT_
FN:611,_ZNSt8_Rb_treeINSt7__cxx1112basic_stringIcSt11char_traitsIcESaIcEEESt4pairIKS5_S5_ESt10_Select1stIS8_ESt4lessIS5_ESaIS8_EE14_M_create_nodeIJRKSt21piecewise_construct_tSt5tupleIJOS5_EESJ_IJEEEEEPSt13_Rb_tree_nodeIS8_EDpOT_
FN:611,_ZNSt8_Rb_treeINSt7__cxx1112basic_stringIcSt11char_traitsIcESaIcEEES5_St9_IdentityIS5_ESt4lessIS5_ESaIS5_EE14_M_create_nodeIJRKS5_EEEPSt13_Rb_tree_nodeIS5_EDpOT_
FN:611,_ZNSt8_Rb_treeINSt7__cxx1112basic_stringIcSt11char_traitsIcESaIcEEESt4pairIKS5_St6vectorISt10shared_ptrI17RegistryEntryBaseESaISB_EEESt10_Select1stISE_ESt4lessIS5_ESaISE_EE14_M_create_nodeIJRKSt21piecewise_construct_tSt5tupleIJRS7_EESP_IJEEEEEPSt13_Rb_tree_nodeISE_EDpOT_
FN:611,_ZNSt8_Rb_treeI13MooseEnumItemSt4pairIKS0_NSt7__cxx1112basic_stringIcSt11char_traitsIcESaIcEEEESt10_Select1stIS9_ESt4lessIS0_ESaIS9_EE14_M_create_nodeIJRKS9_EEEPSt13_Rb_tree_nodeIS9_EDpOT_
FN:611,_ZNSt8_Rb_treeI13MooseEnumItemS0_St9_IdentityIS0_ESt4lessIS0_ESaIS0_EE14_M_create_nodeIJRKS0_EEEPSt13_Rb_tree_nodeIS0_EDpOT_
FN:611,_ZNSt8_Rb_treeINSt7__cxx1112basic_stringIcSt11char_traitsIcESaIcEEESt4pairIKS5_St10unique_ptrI23AppFactoryBuildInfoBaseSt14default_deleteIS9_EEESt10_Select1stISD_ESt4lessIS5_ESaISD_EE14_M_create_nodeIJRKSt21piecewise_construct_tSt5tupleIJRS7_EESO_IJEEEEEPSt13_Rb_tree_nodeISD_EDpOT_
FN:631,_ZNSt8_Rb_treeI17PostprocessorNameSt4pairIKS0_St10unique_ptrIdSt14default_deleteIdEEESt10_Select1stIS7_ESt4lessIS0_ESaIS7_EE12_M_drop_nodeEPSt13_Rb_tree_nodeIS7_E
FN:631,_ZNSt8_Rb_treeINSt7__cxx1112basic_stringIcSt11char_traitsIcESaIcEEESt4pairIKS5_S5_ESt10_Select1stIS8_ESt4lessIS5_ESaIS8_EE12_M_drop_nodeEPSt13_Rb_tree_nodeIS8_E
FN:631,_ZNSt8_Rb_treeI13MooseEnumItemS0_St9_IdentityIS0_ESt4lessIS0_ESaIS0_EE12_M_drop_nodeEPSt13_Rb_tree_nodeIS0_E
FN:631,_ZNSt8_Rb_treeINSt7__cxx1112basic_stringIcSt11char_traitsIcESaIcEEESt4pairIKS5_St10unique_ptrI23AppFactoryBuildInfoBaseSt14default_deleteIS9_EEESt10_Select1stISD_ESt4lessIS5_ESaISD_EE12_M_drop_nodeEPSt13_Rb_tree_nodeISD_E
FN:631,_ZNSt8_Rb_treeINSt7__cxx1112basic_stringIcSt11char_traitsIcESaIcEEESt4pairIKS5_St6vectorISt10shared_ptrI17RegistryEntryBaseESaISB_EEESt10_Select1stISE_ESt4lessIS5_ESaISE_EE12_M_drop_nodeEPSt13_Rb_tree_nodeISE_E
FN:631,_ZNSt8_Rb_treeINSt7__cxx1112basic_stringIcSt11char_traitsIcESaIcEEESt4pairIKS5_St10unique_ptrIN7libMesh10Parameters5ValueESt14default_deleteISB_EEESt10_Select1stISF_ESt4lessIvESaISF_EE12_M_drop_nodeEPSt13_Rb_tree_nodeISF_E
FN:631,_ZNSt8_Rb_treeINSt7__cxx1112basic_stringIcSt11char_traitsIcESaIcEEESt4pairIKS5_N15InputParameters8MetadataEESt10_Select1stISA_ESt4lessIS5_ESaISA_EE12_M_drop_nodeEPSt13_Rb_tree_nodeISA_E
FN:889,_ZNSt8_Rb_treeI13MooseEnumItemSt4pairIKS0_NSt7__cxx1112basic_stringIcSt11char_traitsIcESaIcEEEESt10_Select1stIS9_ESt4lessIS0_ESaIS9_EE7_M_copyILb0ENSF_20_Reuse_or_alloc_nodeEEEPSt13_Rb_tree_nodeIS9_ERKSF_RT0_
FN:889,_ZNSt8_Rb_treeI13MooseEnumItemS0_St9_IdentityIS0_ESt4lessIS0_ESaIS0_EE7_M_copyILb0ENS6_20_Reuse_or_alloc_nodeEEEPSt13_Rb_tree_nodeIS0_ERKS6_RT0_
FN:889,_ZNSt8_Rb_treeI13MooseEnumItemSt4pairIKS0_S0_ESt10_Select1stIS3_ESt4lessIS0_ESaIS3_EE7_M_copyILb0ENS9_20_Reuse_or_alloc_nodeEEEPSt13_Rb_tree_nodeIS3_ERKS9_RT0_
FN:1100,_ZNSt8_Rb_treeINSt7__cxx1112basic_stringIcSt11char_traitsIcESaIcEEES5_St9_IdentityIS5_ESt4lessIS5_ESaIS5_EE22_M_insert_range_uniqueIPKS5_EENSt9enable_ifIXsrSt7is_sameIS5_NSt15iterator_traitsIT_E10value_typeEE5valueEvE4typeESI_SI_
FN:1254,_ZNSt8_Rb_treeINSt7__cxx1112basic_stringIcSt11char_traitsIcESaIcEEESt4pairIKS5_St10unique_ptrIN7libMesh10Parameters5ValueESt14default_deleteISB_EEESt10_Select1stISF_ESt4lessIvESaISF_EE5clearEv
FN:1254,_ZNSt8_Rb_treeIN5Moose7FaceArgESt4pairIKS1_N11MetaPhysicL10DualNumberIdNS4_28SemiDynamicSparseNumberArrayIdmNS4_8NWrapperILm64EEEEELb1EEEESt10_Select1stISB_ESt4lessIS1_ESaISB_EE5clearEv
FN:1254,_ZNSt8_Rb_treeIN5Moose7ElemArgESt4pairIKS1_dESt10_Select1stIS4_ESt4lessIS1_ESaIS4_EE5clearEv
FN:1254,_ZNSt8_Rb_treeIN5Moose7NodeArgESt4pairIKS1_N11MetaPhysicL10DualNumberIdNS4_28SemiDynamicSparseNumberArrayIdmNS4_8NWrapperILm64EEEEELb1EEEESt10_Select1stISB_ESt4lessIS1_ESaISB_EE5clearEv
FN:1254,_ZNSt8_Rb_treeIN5Moose7FaceArgESt4pairIKS1_dESt10_Select1stIS4_ESt4lessIS1_ESaIS4_EE5clearEv
FN:1254,_ZNSt8_Rb_treeIN5Moose7NodeArgESt4pairIKS1_dESt10_Select1stIS4_ESt4lessIS1_ESaIS4_EE5clearEv
FN:1254,_ZNSt8_Rb_treeIN5Moose7ElemArgESt4pairIKS1_N11MetaPhysicL10DualNumberIdNS4_28SemiDynamicSparseNumberArrayIdmNS4_8NWrapperILm64EEEEELb1EEEESt10_Select1stISB_ESt4lessIS1_ESaISB_EE5clearEv
FN:1305,_ZNKSt8_Rb_treeINSt7__cxx1112basic_stringIcSt11char_traitsIcESaIcEEESt4pairIKS5_St10unique_ptrIN7libMesh10Parameters5ValueESt14default_deleteISB_EEESt10_Select1stISF_ESt4lessIvESaISF_EE10_M_find_trISt17basic_string_viewIcS3_EvEESt23_Rb_tree_const_iteratorISF_ERKT_
FN:1334,_ZNKSt8_Rb_treeINSt7__cxx1112basic_stringIcSt11char_traitsIcESaIcEEESt4pairIKS5_St10unique_ptrIN7libMesh10Parameters5ValueESt14default_deleteISB_EEESt10_Select1stISF_ESt4lessIvESaISF_EE17_M_lower_bound_trISt17basic_string_viewIcS3_EvEESt23_Rb_tree_const_iteratorISF_ERKT_
FN:1641,_ZNSt8_Rb_treeINSt7__cxx1112basic_stringIcSt11char_traitsIcESaIcEEESt4pairIKS5_St6vectorISt10shared_ptrI17RegistryEntryBaseESaISB_EEESt10_Select1stISE_ESt4lessIS5_ESaISE_EE10_Auto_nodeD2Ev
FN:1641,_ZNSt8_Rb_treeINSt7__cxx1112basic_stringIcSt11char_traitsIcESaIcEEESt4pairIKS5_S5_ESt10_Select1stIS8_ESt4lessIS5_ESaIS8_EE10_Auto_nodeD2Ev
FN:1641,_ZNSt8_Rb_treeINSt7__cxx1112basic_stringIcSt11char_traitsIcESaIcEEESt4pairIKS5_St10unique_ptrIN7libMesh10Parameters5ValueESt14default_deleteISB_EEESt10_Select1stISF_ESt4lessIvESaISF_EE10_Auto_nodeD2Ev
FN:1641,_ZNSt8_Rb_treeINSt7__cxx1112basic_stringIcSt11char_traitsIcESaIcEEESt4pairIKS5_St10unique_ptrI23AppFactoryBuildInfoBaseSt14default_deleteIS9_EEESt10_Select1stISD_ESt4lessIS5_ESaISD_EE10_Auto_nodeD2Ev
FN:1641,_ZNSt8_Rb_treeIN5Moose7FaceArgESt4pairIKS1_dESt10_Select1stIS4_ESt4lessIS1_ESaIS4_EE10_Auto_nodeD2Ev
FN:1641,_ZNSt8_Rb_treeIN5Moose7FaceArgESt4pairIKS1_N11MetaPhysicL10DualNumberIdNS4_28SemiDynamicSparseNumberArrayIdmNS4_8NWrapperILm64EEEEELb1EEEESt10_Select1stISB_ESt4lessIS1_ESaISB_EE10_Auto_nodeD2Ev
FN:1641,_ZNSt8_Rb_treeINSt7__cxx1112basic_stringIcSt11char_traitsIcESaIcEEESt4pairIKS5_N15InputParameters8MetadataEESt10_Select1stISA_ESt4lessIS5_ESaISA_EE10_Auto_nodeD2Ev
FN:1641,_ZNSt8_Rb_treeIN5Moose7ElemArgESt4pairIKS1_dESt10_Select1stIS4_ESt4lessIS1_ESaIS4_EE10_Auto_nodeD2Ev
FN:1641,_ZNSt8_Rb_treeIN5Moose7ElemArgESt4pairIKS1_N11MetaPhysicL10DualNumberIdNS4_28SemiDynamicSparseNumberArrayIdmNS4_8NWrapperILm64EEEEELb1EEEESt10_Select1stISB_ESt4lessIS1_ESaISB_EE10_Auto_nodeD2Ev
FN:1656,_ZNSt8_Rb_treeINSt7__cxx1112basic_stringIcSt11char_traitsIcESaIcEEESt4pairIKS5_St10unique_ptrIN7libMesh10Parameters5ValueESt14default_deleteISB_EEESt10_Select1stISF_ESt4lessIvESaISF_EE10_Auto_node9_M_insertES6_IPSt18_Rb_tree_node_baseSO_E
FN:1656,_ZNSt8_Rb_treeIN5Moose7FaceArgESt4pairIKS1_dESt10_Select1stIS4_ESt4lessIS1_ESaIS4_EE10_Auto_node9_M_insertES2_IPSt18_Rb_tree_node_baseSD_E
FN:1656,_ZNSt8_Rb_treeINSt7__cxx1112basic_stringIcSt11char_traitsIcESaIcEEESt4pairIKS5_St6vectorISt10shared_ptrI17RegistryEntryBaseESaISB_EEESt10_Select1stISE_ESt4lessIS5_ESaISE_EE10_Auto_node9_M_insertES6_IPSt18_Rb_tree_node_baseSN_E
FN:1656,_ZNSt8_Rb_treeIN5Moose7ElemArgESt4pairIKS1_dESt10_Select1stIS4_ESt4lessIS1_ESaIS4_EE10_Auto_node9_M_insertES2_IPSt18_Rb_tree_node_baseSD_E
FN:1656,_ZNSt8_Rb_treeIN5Moose7ElemArgESt4pairIKS1_N11MetaPhysicL10DualNumberIdNS4_28SemiDynamicSparseNumberArrayIdmNS4_8NWrapperILm64EEEEELb1EEEESt10_Select1stISB_ESt4lessIS1_ESaISB_EE10_Auto_node9_M_insertES2_IPSt18_Rb_tree_node_baseSK_E
FN:1656,_ZNSt8_Rb_treeINSt7__cxx1112basic_stringIcSt11char_traitsIcESaIcEEESt4pairIKS5_St10unique_ptrI23AppFactoryBuildInfoBaseSt14default_deleteIS9_EEESt10_Select1stISD_ESt4lessIS5_ESaISD_EE10_Auto_node9_M_insertES6_IPSt18_Rb_tree_node_baseSM_E
FN:1656,_ZNSt8_Rb_treeINSt7__cxx1112basic_stringIcSt11char_traitsIcESaIcEEESt4pairIKS5_S5_ESt10_Select1stIS8_ESt4lessIS5_ESaIS8_EE10_Auto_node9_M_insertES6_IPSt18_Rb_tree_node_baseSH_E
FN:1656,_ZNSt8_Rb_treeINSt7__cxx1112basic_stringIcSt11char_traitsIcESaIcEEESt4pairIKS5_N15InputParameters8MetadataEESt10_Select1stISA_ESt4lessIS5_ESaISA_EE10_Auto_node9_M_insertES6_IPSt18_Rb_tree_node_baseSJ_E
FN:1656,_ZNSt8_Rb_treeIN5Moose7FaceArgESt4pairIKS1_N11MetaPhysicL10DualNumberIdNS4_28SemiDynamicSparseNumberArrayIdmNS4_8NWrapperILm64EEEEELb1EEEESt10_Select1stISB_ESt4lessIS1_ESaISB_EE10_Auto_node9_M_insertES2_IPSt18_Rb_tree_node_baseSK_E
FN:1779,_ZNSt8_Rb_treeI13MooseEnumItemSt4pairIKS0_S0_ESt10_Select1stIS3_ESt4lessIS0_ESaIS3_EEaSERKS9_
FN:1779,_ZNSt8_Rb_treeI13MooseEnumItemS0_St9_IdentityIS0_ESt4lessIS0_ESaIS0_EEaSERKS6_
FN:1779,_ZNSt8_Rb_treeI13MooseEnumItemSt4pairIKS0_NSt7__cxx1112basic_stringIcSt11char_traitsIcESaIcEEEESt10_Select1stIS9_ESt4lessIS0_ESaIS9_EEaSERKSF_
FN:1819,_ZNSt8_Rb_treeINSt7__cxx1112basic_stringIcSt11char_traitsIcESaIcEEES5_St9_IdentityIS5_ESt4lessIS5_ESaIS5_EE10_M_insert_IRKS5_NSB_11_Alloc_nodeEEESt17_Rb_tree_iteratorIS5_EPSt18_Rb_tree_node_baseSJ_OT_RT0_
FN:1893,_ZNSt8_Rb_treeI13MooseEnumItemSt4pairIKS0_NSt7__cxx1112basic_stringIcSt11char_traitsIcESaIcEEEESt10_Select1stIS9_ESt4lessIS0_ESaIS9_EE7_M_copyILb0ENSF_20_Reuse_or_alloc_nodeEEEPSt13_Rb_tree_nodeIS9_ESK_PSt18_Rb_tree_node_baseRT0_
FN:1893,_ZNSt8_Rb_treeI13MooseEnumItemS0_St9_IdentityIS0_ESt4lessIS0_ESaIS0_EE7_M_copyILb0ENS6_20_Reuse_or_alloc_nodeEEEPSt13_Rb_tree_nodeIS0_ESB_PSt18_Rb_tree_node_baseRT0_
FN:1893,_ZNSt8_Rb_treeI13MooseEnumItemSt4pairIKS0_S0_ESt10_Select1stIS3_ESt4lessIS0_ESaIS3_EE7_M_copyILb0ENS9_20_Reuse_or_alloc_nodeEEEPSt13_Rb_tree_nodeIS3_ESE_PSt18_Rb_tree_node_baseRT0_
FN:1931,_ZNSt8_Rb_treeIN5Moose7FaceArgESt4pairIKS1_dESt10_Select1stIS4_ESt4lessIS1_ESaIS4_EE8_M_eraseEPSt13_Rb_tree_nodeIS4_E
FN:1931,_ZNSt8_Rb_treeINSt7__cxx1112basic_stringIcSt11char_traitsIcESaIcEEES5_St9_IdentityIS5_ESt4lessIS5_ESaIS5_EE8_M_eraseEPSt13_Rb_tree_nodeIS5_E
FN:1931,_ZNSt8_Rb_treeINSt7__cxx1112basic_stringIcSt11char_traitsIcESaIcEEESt4pairIKS5_St10unique_ptrIN7libMesh10Parameters5ValueESt14default_deleteISB_EEESt10_Select1stISF_ESt4lessIvESaISF_EE8_M_eraseEPSt13_Rb_tree_nodeISF_E
FN:1931,_ZNSt8_Rb_treeINSt7__cxx1112basic_stringIcSt11char_traitsIcESaIcEEESt4pairIKS5_S5_ESt10_Select1stIS8_ESt4lessIS5_ESaIS8_EE8_M_eraseEPSt13_Rb_tree_nodeIS8_E
FN:1931,_ZNSt8_Rb_treeIN5Moose7FaceArgESt4pairIKS1_N11MetaPhysicL10DualNumberIdNS4_28SemiDynamicSparseNumberArrayIdmNS4_8NWrapperILm64EEEEELb1EEEESt10_Select1stISB_ESt4lessIS1_ESaISB_EE8_M_eraseEPSt13_Rb_tree_nodeISB_E
FN:1931,_ZNSt8_Rb_treeIttSt9_IdentityItESt4lessItESaItEE8_M_eraseEPSt13_Rb_tree_nodeItE
FN:1931,_ZNSt8_Rb_treeI17PostprocessorNameSt4pairIKS0_St10unique_ptrIdSt14default_deleteIdEEESt10_Select1stIS7_ESt4lessIS0_ESaIS7_EE8_M_eraseEPSt13_Rb_tree_nodeIS7_E
FN:1931,_ZNSt8_Rb_treeI10OutputNameS0_St9_IdentityIS0_ESt4lessIS0_ESaIS0_EE8_M_eraseEPSt13_Rb_tree_nodeIS0_E
FN:1931,_ZNSt8_Rb_treeI14UserObjectNameS0_St9_IdentityIS0_ESt4lessIS0_ESaIS0_EE8_M_eraseEPSt13_Rb_tree_nodeIS0_E
FN:1931,_ZNSt8_Rb_treeI13MooseEnumItemSt4pairIKS0_NSt7__cxx1112basic_stringIcSt11char_traitsIcESaIcEEEESt10_Select1stIS9_ESt4lessIS0_ESaIS9_EE8_M_eraseEPSt13_Rb_tree_nodeIS9_E
FN:1931,_ZNSt8_Rb_treeIN5Moose7ElemArgESt4pairIKS1_N11MetaPhysicL10DualNumberIdNS4_28SemiDynamicSparseNumberArrayIdmNS4_8NWrapperILm64EEEEELb1EEEESt10_Select1stISB_ESt4lessIS1_ESaISB_EE8_M_eraseEPSt13_Rb_tree_nodeISB_E
FN:1931,_ZNSt8_Rb_treeIN5Moose7ElemArgESt4pairIKS1_dESt10_Select1stIS4_ESt4lessIS1_ESaIS4_EE8_M_eraseEPSt13_Rb_tree_nodeIS4_E
FN:1931,_ZNSt8_Rb_treeIssSt9_IdentityIsESt4lessIsESaIsEE8_M_eraseEPSt13_Rb_tree_nodeIsE
FN:1931,_ZNSt8_Rb_treeINSt7__cxx1112basic_stringIcSt11char_traitsIcESaIcEEESt4pairIKS5_S6_IS5_S5_EESt10_Select1stIS9_ESt4lessIS5_ESaIS9_EE8_M_eraseEPSt13_Rb_tree_nodeIS9_E
FN:1931,_ZNSt8_Rb_treeI13MooseEnumItemSt4pairIKS0_S0_ESt10_Select1stIS3_ESt4lessIS0_ESaIS3_EE8_M_eraseEPSt13_Rb_tree_nodeIS3_E
FN:1931,_ZNSt8_Rb_treeIN5Moose7NodeArgESt4pairIKS1_dESt10_Select1stIS4_ESt4lessIS1_ESaIS4_EE8_M_eraseEPSt13_Rb_tree_nodeIS4_E
FN:1931,_ZNSt8_Rb_treeIP22MooseVariableFieldBaseS1_St9_IdentityIS1_ESt4lessIS1_ESaIS1_EE8_M_eraseEPSt13_Rb_tree_nodeIS1_E
FN:1931,_ZNSt8_Rb_treeIjjSt9_IdentityIjESt4lessIjESaIjEE8_M_eraseEPSt13_Rb_tree_nodeIjE
FN:1931,_ZNSt8_Rb_treeIN5Moose7NodeArgESt4pairIKS1_N11MetaPhysicL10DualNumberIdNS4_28SemiDynamicSparseNumberArrayIdmNS4_8NWrapperILm64EEEEELb1EEEESt10_Select1stISB_ESt4lessIS1_ESaISB_EE8_M_eraseEPSt13_Rb_tree_nodeISB_E
FN:1931,_ZNSt8_Rb_treeINSt7__cxx1112basic_stringIcSt11char_traitsIcESaIcEEESt4pairIKS5_N15InputParameters8MetadataEESt10_Select1stISA_ESt4lessIS5_ESaISA_EE8_M_eraseEPSt13_Rb_tree_nodeISA_E
FN:1931,_ZNSt8_Rb_treeIP18MooseVariableFieldIdES2_St9_IdentityIS2_ESt4lessIS2_ESaIS2_EE8_M_eraseEPSt13_Rb_tree_nodeIS2_E
FN:1931,_ZNSt8_Rb_treeI13MooseEnumItemS0_St9_IdentityIS0_ESt4lessIS0_ESaIS0_EE8_M_eraseEPSt13_Rb_tree_nodeIS0_E
FN:1948,_ZNSt8_Rb_treeIN5Moose7FaceArgESt4pairIKS1_N11MetaPhysicL10DualNumberIdNS4_28SemiDynamicSparseNumberArrayIdmNS4_8NWrapperILm64EEEEELb1EEEESt10_Select1stISB_ESt4lessIS1_ESaISB_EE14_M_lower_boundEPSt13_Rb_tree_nodeISB_EPSt18_Rb_tree_node_baseRS3_
FN:1948,_ZNSt8_Rb_treeINSt7__cxx1112basic_stringIcSt11char_traitsIcESaIcEEESt4pairIKS5_S5_ESt10_Select1stIS8_ESt4lessIS5_ESaIS8_EE14_M_lower_boundEPSt13_Rb_tree_nodeIS8_EPSt18_Rb_tree_node_baseRS7_
FN:1948,_ZNSt8_Rb_treeIN5Moose7ElemArgESt4pairIKS1_dESt10_Select1stIS4_ESt4lessIS1_ESaIS4_EE14_M_lower_boundEPSt13_Rb_tree_nodeIS4_EPSt18_Rb_tree_node_baseRS3_
FN:1948,_ZNSt8_Rb_treeINSt7__cxx1112basic_stringIcSt11char_traitsIcESaIcEEESt4pairIKS5_St10unique_ptrIN7libMesh10Parameters5ValueESt14default_deleteISB_EEESt10_Select1stISF_ESt4lessIvESaISF_EE14_M_lower_boundEPSt13_Rb_tree_nodeISF_EPSt18_Rb_tree_node_baseRS7_
FN:1948,_ZNSt8_Rb_treeIN5Moose7ElemArgESt4pairIKS1_N11MetaPhysicL10DualNumberIdNS4_28SemiDynamicSparseNumberArrayIdmNS4_8NWrapperILm64EEEEELb1EEEESt10_Select1stISB_ESt4lessIS1_ESaISB_EE14_M_lower_boundEPSt13_Rb_tree_nodeISB_EPSt18_Rb_tree_node_baseRS3_
FN:1948,_ZNSt8_Rb_treeINSt7__cxx1112basic_stringIcSt11char_traitsIcESaIcEEESt4pairIKS5_St6vectorISt10shared_ptrI17RegistryEntryBaseESaISB_EEESt10_Select1stISE_ESt4lessIS5_ESaISE_EE14_M_lower_boundEPSt13_Rb_tree_nodeISE_EPSt18_Rb_tree_node_baseRS7_
FN:1948,_ZNSt8_Rb_treeIN5Moose7FaceArgESt4pairIKS1_dESt10_Select1stIS4_ESt4lessIS1_ESaIS4_EE14_M_lower_boundEPSt13_Rb_tree_nodeIS4_EPSt18_Rb_tree_node_baseRS3_
FN:1948,_ZNSt8_Rb_treeINSt7__cxx1112basic_stringIcSt11char_traitsIcESaIcEEESt4pairIKS5_St10unique_ptrI23AppFactoryBuildInfoBaseSt14default_deleteIS9_EEESt10_Select1stISD_ESt4lessIS5_ESaISD_EE14_M_lower_boundEPSt13_Rb_tree_nodeISD_EPSt18_Rb_tree_node_baseRS7_
FN:1948,_ZNSt8_Rb_treeINSt7__cxx1112basic_stringIcSt11char_traitsIcESaIcEEESt4pairIKS5_N15InputParameters8MetadataEESt10_Select1stISA_ESt4lessIS5_ESaISA_EE14_M_lower_boundEPSt13_Rb_tree_nodeISA_EPSt18_Rb_tree_node_baseRS7_
FN:1964,_ZNKSt8_Rb_treeINSt7__cxx1112basic_stringIcSt11char_traitsIcESaIcEEESt4pairIKS5_St10unique_ptrI23AppFactoryBuildInfoBaseSt14default_deleteIS9_EEESt10_Select1stISD_ESt4lessIS5_ESaISD_EE14_M_lower_boundEPKSt13_Rb_tree_nodeISD_EPKSt18_Rb_tree_node_baseRS7_
FN:1964,_ZNKSt8_Rb_treeINSt7__cxx1112basic_stringIcSt11char_traitsIcESaIcEEESt4pairIKS5_St10unique_ptrIN7libMesh10Parameters5ValueESt14default_deleteISB_EEESt10_Select1stISF_ESt4lessIvESaISF_EE14_M_lower_boundEPKSt13_Rb_tree_nodeISF_EPKSt18_Rb_tree_node_baseRS7_
FN:1964,_ZNKSt8_Rb_treeI13MooseEnumItemS0_St9_IdentityIS0_ESt4lessIS0_ESaIS0_EE14_M_lower_boundEPKSt13_Rb_tree_nodeIS0_EPKSt18_Rb_tree_node_baseRKS0_
FN:2109,_ZNSt8_Rb_treeINSt7__cxx1112basic_stringIcSt11char_traitsIcESaIcEEESt4pairIKS5_St6vectorISt10shared_ptrI17RegistryEntryBaseESaISB_EEESt10_Select1stISE_ESt4lessIS5_ESaISE_EE24_M_get_insert_unique_posERS7_
FN:2109,_ZNSt8_Rb_treeINSt7__cxx1112basic_stringIcSt11char_traitsIcESaIcEEESt4pairIKS5_N15InputParameters8MetadataEESt10_Select1stISA_ESt4lessIS5_ESaISA_EE24_M_get_insert_unique_posERS7_
FN:2109,_ZNSt8_Rb_treeIN5Moose7FaceArgESt4pairIKS1_dESt10_Select1stIS4_ESt4lessIS1_ESaIS4_EE24_M_get_insert_unique_posERS3_
FN:2109,_ZNSt8_Rb_treeINSt7__cxx1112basic_stringIcSt11char_traitsIcESaIcEEESt4pairIKS5_St10unique_ptrIN7libMesh10Parameters5ValueESt14default_deleteISB_EEESt10_Select1stISF_ESt4lessIvESaISF_EE24_M_get_insert_unique_posERS7_
FN:2109,_ZNSt8_Rb_treeIN5Moose7ElemArgESt4pairIKS1_dESt10_Select1stIS4_ESt4lessIS1_ESaIS4_EE24_M_get_insert_unique_posERS3_
FN:2109,_ZNSt8_Rb_treeIN5Moose7FaceArgESt4pairIKS1_N11MetaPhysicL10DualNumberIdNS4_28SemiDynamicSparseNumberArrayIdmNS4_8NWrapperILm64EEEEELb1EEEESt10_Select1stISB_ESt4lessIS1_ESaISB_EE24_M_get_insert_unique_posERS3_
FN:2109,_ZNSt8_Rb_treeINSt7__cxx1112basic_stringIcSt11char_traitsIcESaIcEEES5_St9_IdentityIS5_ESt4lessIS5_ESaIS5_EE24_M_get_insert_unique_posERKS5_
FN:2109,_ZNSt8_Rb_treeINSt7__cxx1112basic_stringIcSt11char_traitsIcESaIcEEESt4pairIKS5_S5_ESt10_Select1stIS8_ESt4lessIS5_ESaIS8_EE24_M_get_insert_unique_posERS7_
FN:2109,_ZNSt8_Rb_treeINSt7__cxx1112basic_stringIcSt11char_traitsIcESaIcEEESt4pairIKS5_St10unique_ptrI23AppFactoryBuildInfoBaseSt14default_deleteIS9_EEESt10_Select1stISD_ESt4lessIS5_ESaISD_EE24_M_get_insert_unique_posERS7_
FN:2109,_ZNSt8_Rb_treeIN5Moose7ElemArgESt4pairIKS1_N11MetaPhysicL10DualNumberIdNS4_28SemiDynamicSparseNumberArrayIdmNS4_8NWrapperILm64EEEEELb1EEEESt10_Select1stISB_ESt4lessIS1_ESaISB_EE24_M_get_insert_unique_posERS3_
FN:2163,_ZNSt8_Rb_treeINSt7__cxx1112basic_stringIcSt11char_traitsIcESaIcEEES5_St9_IdentityIS5_ESt4lessIS5_ESaIS5_EE16_M_insert_uniqueIRKS5_EESt4pairISt17_Rb_tree_iteratorIS5_EbEOT_
FN:2211,_ZNSt8_Rb_treeIN5Moose7ElemArgESt4pairIKS1_dESt10_Select1stIS4_ESt4lessIS1_ESaIS4_EE29_M_get_insert_hint_unique_posESt23_Rb_tree_const_iteratorIS4_ERS3_
FN:2211,_ZNSt8_Rb_treeIN5Moose7FaceArgESt4pairIKS1_dESt10_Select1stIS4_ESt4lessIS1_ESaIS4_EE29_M_get_insert_hint_unique_posESt23_Rb_tree_const_iteratorIS4_ERS3_
FN:2211,_ZNSt8_Rb_treeINSt7__cxx1112basic_stringIcSt11char_traitsIcESaIcEEESt4pairIKS5_St10unique_ptrI23AppFactoryBuildInfoBaseSt14default_deleteIS9_EEESt10_Select1stISD_ESt4lessIS5_ESaISD_EE29_M_get_insert_hint_unique_posESt23_Rb_tree_const_iteratorISD_ERS7_
FN:2211,_ZNSt8_Rb_treeINSt7__cxx1112basic_stringIcSt11char_traitsIcESaIcEEESt4pairIKS5_S5_ESt10_Select1stIS8_ESt4lessIS5_ESaIS8_EE29_M_get_insert_hint_unique_posESt23_Rb_tree_const_iteratorIS8_ERS7_
FN:2211,_ZNSt8_Rb_treeINSt7__cxx1112basic_stringIcSt11char_traitsIcESaIcEEESt4pairIKS5_St6vectorISt10shared_ptrI17RegistryEntryBaseESaISB_EEESt10_Select1stISE_ESt4lessIS5_ESaISE_EE29_M_get_insert_hint_unique_posESt23_Rb_tree_const_iteratorISE_ERS7_
FN:2211,_ZNSt8_Rb_treeINSt7__cxx1112basic_stringIcSt11char_traitsIcESaIcEEESt4pairIKS5_N15InputParameters8MetadataEESt10_Select1stISA_ESt4lessIS5_ESaISA_EE29_M_get_insert_hint_unique_posESt23_Rb_tree_const_iteratorISA_ERS7_
FN:2211,_ZNSt8_Rb_treeIN5Moose7FaceArgESt4pairIKS1_N11MetaPhysicL10DualNumberIdNS4_28SemiDynamicSparseNumberArrayIdmNS4_8NWrapperILm64EEEEELb1EEEESt10_Select1stISB_ESt4lessIS1_ESaISB_EE29_M_get_insert_hint_unique_posESt23_Rb_tree_const_iteratorISB_ERS3_
FN:2211,_ZNSt8_Rb_treeIN5Moose7ElemArgESt4pairIKS1_N11MetaPhysicL10DualNumberIdNS4_28SemiDynamicSparseNumberArrayIdmNS4_8NWrapperILm64EEEEELb1EEEESt10_Select1stISB_ESt4lessIS1_ESaISB_EE29_M_get_insert_hint_unique_posESt23_Rb_tree_const_iteratorISB_ERS3_
FN:2211,_ZNSt8_Rb_treeINSt7__cxx1112basic_stringIcSt11char_traitsIcESaIcEEES5_St9_IdentityIS5_ESt4lessIS5_ESaIS5_EE29_M_get_insert_hint_unique_posESt23_Rb_tree_const_iteratorIS5_ERKS5_
FN:2211,_ZNSt8_Rb_treeINSt7__cxx1112basic_stringIcSt11char_traitsIcESaIcEEESt4pairIKS5_St10unique_ptrIN7libMesh10Parameters5ValueESt14default_deleteISB_EEESt10_Select1stISF_ESt4lessIvESaISF_EE29_M_get_insert_hint_unique_posESt23_Rb_tree_const_iteratorISF_ERS7_
FN:2272,_ZNSt8_Rb_treeINSt7__cxx1112basic_stringIcSt11char_traitsIcESaIcEEES5_St9_IdentityIS5_ESt4lessIS5_ESaIS5_EE17_M_insert_unique_IRKS5_NSB_11_Alloc_nodeEEESt17_Rb_tree_iteratorIS5_ESt23_Rb_tree_const_iteratorIS5_EOT_RT0_
FN:2378,_ZNSt8_Rb_treeINSt7__cxx1112basic_stringIcSt11char_traitsIcESaIcEEESt4pairIKS5_St10unique_ptrI23AppFactoryBuildInfoBaseSt14default_deleteIS9_EEESt10_Select1stISD_ESt4lessIS5_ESaISD_EE14_M_insert_nodeEPSt18_Rb_tree_node_baseSL_PSt13_Rb_tree_nodeISD_E
FN:2378,_ZNSt8_Rb_treeIN5Moose7ElemArgESt4pairIKS1_dESt10_Select1stIS4_ESt4lessIS1_ESaIS4_EE14_M_insert_nodeEPSt18_Rb_tree_node_baseSC_PSt13_Rb_tree_nodeIS4_E
FN:2378,_ZNSt8_Rb_treeINSt7__cxx1112basic_stringIcSt11char_traitsIcESaIcEEESt4pairIKS5_St6vectorISt10shared_ptrI17RegistryEntryBaseESaISB_EEESt10_Select1stISE_ESt4lessIS5_ESaISE_EE14_M_insert_nodeEPSt18_Rb_tree_node_baseSM_PSt13_Rb_tree_nodeISE_E
FN:2378,_ZNSt8_Rb_treeINSt7__cxx1112basic_stringIcSt11char_traitsIcESaIcEEESt4pairIKS5_St10unique_ptrIN7libMesh10Parameters5ValueESt14default_deleteISB_EEESt10_Select1stISF_ESt4lessIvESaISF_EE14_M_insert_nodeEPSt18_Rb_tree_node_baseSN_PSt13_Rb_tree_nodeISF_E
FN:2378,_ZNSt8_Rb_treeIN5Moose7FaceArgESt4pairIKS1_N11MetaPhysicL10DualNumberIdNS4_28SemiDynamicSparseNumberArrayIdmNS4_8NWrapperILm64EEEEELb1EEEESt10_Select1stISB_ESt4lessIS1_ESaISB_EE14_M_insert_nodeEPSt18_Rb_tree_node_baseSJ_PSt13_Rb_tree_nodeISB_E
FN:2378,_ZNSt8_Rb_treeINSt7__cxx1112basic_stringIcSt11char_traitsIcESaIcEEESt4pairIKS5_N15InputParameters8MetadataEESt10_Select1stISA_ESt4lessIS5_ESaISA_EE14_M_insert_nodeEPSt18_Rb_tree_node_baseSI_PSt13_Rb_tree_nodeISA_E
FN:2378,_ZNSt8_Rb_treeIN5Moose7FaceArgESt4pairIKS1_dESt10_Select1stIS4_ESt4lessIS1_ESaIS4_EE14_M_insert_nodeEPSt18_Rb_tree_node_baseSC_PSt13_Rb_tree_nodeIS4_E
FN:2378,_ZNSt8_Rb_treeINSt7__cxx1112basic_stringIcSt11char_traitsIcESaIcEEESt4pairIKS5_S5_ESt10_Select1stIS8_ESt4lessIS5_ESaIS8_EE14_M_insert_nodeEPSt18_Rb_tree_node_baseSG_PSt13_Rb_tree_nodeIS8_E
FN:2378,_ZNSt8_Rb_treeIN5Moose7ElemArgESt4pairIKS1_N11MetaPhysicL10DualNumberIdNS4_28SemiDynamicSparseNumberArrayIdmNS4_8NWrapperILm64EEEEELb1EEEESt10_Select1stISB_ESt4lessIS1_ESaISB_EE14_M_insert_nodeEPSt18_Rb_tree_node_baseSJ_PSt13_Rb_tree_nodeISB_E
FN:2459,_ZNSt8_Rb_treeIN5Moose7FaceArgESt4pairIKS1_N11MetaPhysicL10DualNumberIdNS4_28SemiDynamicSparseNumberArrayIdmNS4_8NWrapperILm64EEEEELb1EEEESt10_Select1stISB_ESt4lessIS1_ESaISB_EE22_M_emplace_hint_uniqueIJRKSt21piecewise_construct_tSt5tupleIJRS3_EESM_IJOSA_EEEEESt17_Rb_tree_iteratorISB_ESt23_Rb_tree_const_iteratorISB_EDpOT_
FN:2459,_ZNSt8_Rb_treeIN5Moose7ElemArgESt4pairIKS1_dESt10_Select1stIS4_ESt4lessIS1_ESaIS4_EE22_M_emplace_hint_uniqueIJRKSt21piecewise_construct_tSt5tupleIJRS3_EESF_IJOdEEEEESt17_Rb_tree_iteratorIS4_ESt23_Rb_tree_const_iteratorIS4_EDpOT_
FN:2459,_ZNSt8_Rb_treeINSt7__cxx1112basic_stringIcSt11char_traitsIcESaIcEEESt4pairIKS5_St10unique_ptrI23AppFactoryBuildInfoBaseSt14default_deleteIS9_EEESt10_Select1stISD_ESt4lessIS5_ESaISD_EE22_M_emplace_hint_uniqueIJRKSt21piecewise_construct_tSt5tupleIJRS7_EESO_IJEEEEESt17_Rb_tree_iteratorISD_ESt23_Rb_tree_const_iteratorISD_EDpOT_
FN:2459,_ZNSt8_Rb_treeIN5Moose7FaceArgESt4pairIKS1_dESt10_Select1stIS4_ESt4lessIS1_ESaIS4_EE22_M_emplace_hint_uniqueIJRKSt21piecewise_construct_tSt5tupleIJRS3_EESF_IJOdEEEEESt17_Rb_tree_iteratorIS4_ESt23_Rb_tree_const_iteratorIS4_EDpOT_
FN:2459,_ZNSt8_Rb_treeIN5Moose7ElemArgESt4pairIKS1_N11MetaPhysicL10DualNumberIdNS4_28SemiDynamicSparseNumberArrayIdmNS4_8NWrapperILm64EEEEELb1EEEESt10_Select1stISB_ESt4lessIS1_ESaISB_EE22_M_emplace_hint_uniqueIJRKSt21piecewise_construct_tSt5tupleIJRS3_EESM_IJOSA_EEEEESt17_Rb_tree_iteratorISB_ESt23_Rb_tree_const_iteratorISB_EDpOT_
FN:2459,_ZNSt8_Rb_treeINSt7__cxx1112basic_stringIcSt11char_traitsIcESaIcEEESt4pairIKS5_S5_ESt10_Select1stIS8_ESt4lessIS5_ESaIS8_EE22_M_emplace_hint_uniqueIJRKSt21piecewise_construct_tSt5tupleIJOS5_EESJ_IJEEEEESt17_Rb_tree_iteratorIS8_ESt23_Rb_tree_const_iteratorIS8_EDpOT_
FN:2459,_ZNSt8_Rb_treeINSt7__cxx1112basic_stringIcSt11char_traitsIcESaIcEEESt4pairIKS5_St6vectorISt10shared_ptrI17RegistryEntryBaseESaISB_EEESt10_Select1stISE_ESt4lessIS5_ESaISE_EE22_M_emplace_hint_uniqueIJRKSt21piecewise_construct_tSt5tupleIJRS7_EESP_IJEEEEESt17_Rb_tree_iteratorISE_ESt23_Rb_tree_const_iteratorISE_EDpOT_
FN:2459,_ZNSt8_Rb_treeINSt7__cxx1112basic_stringIcSt11char_traitsIcESaIcEEESt4pairIKS5_St10unique_ptrIN7libMesh10Parameters5ValueESt14default_deleteISB_EEESt10_Select1stISF_ESt4lessIvESaISF_EE22_M_emplace_hint_uniqueIJRKSt21piecewise_construct_tSt5tupleIJRS7_EESQ_IJEEEEESt17_Rb_tree_iteratorISF_ESt23_Rb_tree_const_iteratorISF_EDpOT_
FN:2459,_ZNSt8_Rb_treeINSt7__cxx1112basic_stringIcSt11char_traitsIcESaIcEEESt4pairIKS5_N15InputParameters8MetadataEESt10_Select1stISA_ESt4lessIS5_ESaISA_EE22_M_emplace_hint_uniqueIJRKSt21piecewise_construct_tSt5tupleIJRS7_EESL_IJEEEEESt17_Rb_tree_iteratorISA_ESt23_Rb_tree_const_iteratorISA_EDpOT_
FN:2543,_ZNKSt8_Rb_treeI13MooseEnumItemS0_St9_IdentityIS0_ESt4lessIS0_ESaIS0_EE4findERKS0_
FN:2543,_ZNKSt8_Rb_treeINSt7__cxx1112basic_stringIcSt11char_traitsIcESaIcEEESt4pairIKS5_St10unique_ptrIN7libMesh10Parameters5ValueESt14default_deleteISB_EEESt10_Select1stISF_ESt4lessIvESaISF_EE4findERS7_
FN:2543,_ZNKSt8_Rb_treeINSt7__cxx1112basic_stringIcSt11char_traitsIcESaIcEEESt4pairIKS5_St10unique_ptrI23AppFactoryBuildInfoBaseSt14default_deleteIS9_EEESt10_Select1stISD_ESt4lessIS5_ESaISD_EE4findERS7_
FNDA:0,_ZNSt8_Rb_treeINSt7__cxx1112basic_stringIcSt11char_traitsIcESaIcEEESt4pairIKS5_St10unique_ptrI23AppFactoryBuildInfoBaseSt14default_deleteIS9_EEESt10_Select1stISD_ESt4lessIS5_ESaISD_EE17_M_construct_nodeIJRKSt21piecewise_construct_tSt5tupleIJRS7_EESO_IJEEEEEvPSt13_Rb_tree_nodeISD_EDpOT_
FNDA:0,_ZNSt8_Rb_treeIN5Moose7ElemArgESt4pairIKS1_dESt10_Select1stIS4_ESt4lessIS1_ESaIS4_EE8_M_eraseEPSt13_Rb_tree_nodeIS4_E
FNDA:366,_ZNSt8_Rb_treeIssSt9_IdentityIsESt4lessIsESaIsEE8_M_eraseEPSt13_Rb_tree_nodeIsE
FNDA:11,_ZNSt8_Rb_treeINSt7__cxx1112basic_stringIcSt11char_traitsIcESaIcEEESt4pairIKS5_St10unique_ptrIN7libMesh10Parameters5ValueESt14default_deleteISB_EEESt10_Select1stISF_ESt4lessIvESaISF_EE17_M_construct_nodeIJRKSt21piecewise_construct_tSt5tupleIJRS7_EESQ_IJEEEEEvPSt13_Rb_tree_nodeISF_EDpOT_
FNDA:0,_ZNSt8_Rb_treeIN5Moose7ElemArgESt4pairIKS1_N11MetaPhysicL10DualNumberIdNS4_28SemiDynamicSparseNumberArrayIdmNS4_8NWrapperILm64EEEEELb1EEEESt10_Select1stISB_ESt4lessIS1_ESaISB_EE22_M_emplace_hint_uniqueIJRKSt21piecewise_construct_tSt5tupleIJRS3_EESM_IJOSA_EEEEESt17_Rb_tree_iteratorISB_ESt23_Rb_tree_const_iteratorISB_EDpOT_
FNDA:11,_ZNSt8_Rb_treeINSt7__cxx1112basic_stringIcSt11char_traitsIcESaIcEEESt4pairIKS5_N15InputParameters8MetadataEESt10_Select1stISA_ESt4lessIS5_ESaISA_EE14_M_insert_nodeEPSt18_Rb_tree_node_baseSI_PSt13_Rb_tree_nodeISA_E
FNDA:0,_ZNSt8_Rb_treeINSt7__cxx1112basic_stringIcSt11char_traitsIcESaIcEEESt4pairIKS5_St6vectorISt10shared_ptrI17RegistryEntryBaseESaISB_EEESt10_Select1stISE_ESt4lessIS5_ESaISE_EE12_M_drop_nodeEPSt13_Rb_tree_nodeISE_E
FNDA:20,_ZNSt8_Rb_treeINSt7__cxx1112basic_stringIcSt11char_traitsIcESaIcEEESt4pairIKS5_S6_IS5_S5_EESt10_Select1stIS9_ESt4lessIS5_ESaIS9_EE8_M_eraseEPSt13_Rb_tree_nodeIS9_E
FNDA:0,_ZNSt8_Rb_treeINSt7__cxx1112basic_stringIcSt11char_traitsIcESaIcEEESt4pairIKS5_N15InputParameters8MetadataEESt10_Select1stISA_ESt4lessIS5_ESaISA_EE29_M_get_insert_hint_unique_posESt23_Rb_tree_const_iteratorISA_ERS7_
FNDA:1204,_ZNSt8_Rb_treeI13MooseEnumItemSt4pairIKS0_S0_ESt10_Select1stIS3_ESt4lessIS0_ESaIS3_EE8_M_eraseEPSt13_Rb_tree_nodeIS3_E
FNDA:0,_ZNKSt8_Rb_treeINSt7__cxx1112basic_stringIcSt11char_traitsIcESaIcEEESt4pairIKS5_St10unique_ptrI23AppFactoryBuildInfoBaseSt14default_deleteIS9_EEESt10_Select1stISD_ESt4lessIS5_ESaISD_EE14_M_lower_boundEPKSt13_Rb_tree_nodeISD_EPKSt18_Rb_tree_node_baseRS7_
FNDA:0,_ZNSt8_Rb_treeIN5Moose7NodeArgESt4pairIKS1_dESt10_Select1stIS4_ESt4lessIS1_ESaIS4_EE8_M_eraseEPSt13_Rb_tree_nodeIS4_E
FNDA:0,_ZNSt8_Rb_treeIN5Moose7FaceArgESt4pairIKS1_N11MetaPhysicL10DualNumberIdNS4_28SemiDynamicSparseNumberArrayIdmNS4_8NWrapperILm64EEEEELb1EEEESt10_Select1stISB_ESt4lessIS1_ESaISB_EE29_M_get_insert_hint_unique_posESt23_Rb_tree_const_iteratorISB_ERS3_
FNDA:0,_ZNSt8_Rb_treeIN5Moose7FaceArgESt4pairIKS1_N11MetaPhysicL10DualNumberIdNS4_28SemiDynamicSparseNumberArrayIdmNS4_8NWrapperILm64EEEEELb1EEEESt10_Select1stISB_ESt4lessIS1_ESaISB_EE10_Auto_node9_M_insertES2_IPSt18_Rb_tree_node_baseSK_E
FNDA:740,_ZNSt8_Rb_treeINSt7__cxx1112basic_stringIcSt11char_traitsIcESaIcEEESt4pairIKS5_St6vectorISt10shared_ptrI17RegistryEntryBaseESaISB_EEESt10_Select1stISE_ESt4lessIS5_ESaISE_EE14_M_lower_boundEPSt13_Rb_tree_nodeISE_EPSt18_Rb_tree_node_baseRS7_
FNDA:11,_ZNSt8_Rb_treeINSt7__cxx1112basic_stringIcSt11char_traitsIcESaIcEEESt4pairIKS5_N15InputParameters8MetadataEESt10_Select1stISA_ESt4lessIS5_ESaISA_EE10_Auto_nodeD2Ev
FNDA:0,_ZNSt8_Rb_treeIN5Moose7ElemArgESt4pairIKS1_N11MetaPhysicL10DualNumberIdNS4_28SemiDynamicSparseNumberArrayIdmNS4_8NWrapperILm64EEEEELb1EEEESt10_Select1stISB_ESt4lessIS1_ESaISB_EE14_M_lower_boundEPSt13_Rb_tree_nodeISB_EPSt18_Rb_tree_node_baseRS3_
FNDA:0,_ZNSt8_Rb_treeIN5Moose7ElemArgESt4pairIKS1_dESt10_Select1stIS4_ESt4lessIS1_ESaIS4_EE14_M_create_nodeIJRKSt21piecewise_construct_tSt5tupleIJRS3_EESF_IJOdEEEEEPSt13_Rb_tree_nodeIS4_EDpOT_
FNDA:0,_ZNSt8_Rb_treeINSt7__cxx1112basic_stringIcSt11char_traitsIcESaIcEEES5_St9_IdentityIS5_ESt4lessIS5_ESaIS5_EE24_M_get_insert_unique_posERKS5_
FNDA:0,_ZNSt8_Rb_treeIN5Moose7FaceArgESt4pairIKS1_dESt10_Select1stIS4_ESt4lessIS1_ESaIS4_EE14_M_insert_nodeEPSt18_Rb_tree_node_baseSC_PSt13_Rb_tree_nodeIS4_E
FNDA:740,_ZNSt8_Rb_treeINSt7__cxx1112basic_stringIcSt11char_traitsIcESaIcEEESt4pairIKS5_St10unique_ptrIN7libMesh10Parameters5ValueESt14default_deleteISB_EEESt10_Select1stISF_ESt4lessIvESaISF_EE12_M_drop_nodeEPSt13_Rb_tree_nodeISF_E
FNDA:434,_ZNSt8_Rb_treeIP22MooseVariableFieldBaseS1_St9_IdentityIS1_ESt4lessIS1_ESaIS1_EE8_M_eraseEPSt13_Rb_tree_nodeIS1_E
FNDA:0,_ZNSt8_Rb_treeIN5Moose7FaceArgESt4pairIKS1_N11MetaPhysicL10DualNumberIdNS4_28SemiDynamicSparseNumberArrayIdmNS4_8NWrapperILm64EEEEELb1EEEESt10_Select1stISB_ESt4lessIS1_ESaISB_EE14_M_create_nodeIJRKSt21piecewise_construct_tSt5tupleIJRS3_EESM_IJOSA_EEEEEPSt13_Rb_tree_nodeISB_EDpOT_
FNDA:0,_ZNSt8_Rb_treeIN5Moose7ElemArgESt4pairIKS1_N11MetaPhysicL10DualNumberIdNS4_28SemiDynamicSparseNumberArrayIdmNS4_8NWrapperILm64EEEEELb1EEEESt10_Select1stISB_ESt4lessIS1_ESaISB_EE14_M_create_nodeIJRKSt21piecewise_construct_tSt5tupleIJRS3_EESM_IJOSA_EEEEEPSt13_Rb_tree_nodeISB_EDpOT_
FNDA:740,_ZNSt8_Rb_treeINSt7__cxx1112basic_stringIcSt11char_traitsIcESaIcEEESt4pairIKS5_S5_ESt10_Select1stIS8_ESt4lessIS5_ESaIS8_EE22_M_emplace_hint_uniqueIJRKSt21piecewise_construct_tSt5tupleIJOS5_EESJ_IJEEEEESt17_Rb_tree_iteratorIS8_ESt23_Rb_tree_const_iteratorIS8_EDpOT_
FNDA:40,_ZNSt8_Rb_treeINSt7__cxx1112basic_stringIcSt11char_traitsIcESaIcEEES5_St9_IdentityIS5_ESt4lessIS5_ESaIS5_EE17_M_construct_nodeIJRKS5_EEEvPSt13_Rb_tree_nodeIS5_EDpOT_
FNDA:740,_ZNSt8_Rb_treeINSt7__cxx1112basic_stringIcSt11char_traitsIcESaIcEEESt4pairIKS5_S5_ESt10_Select1stIS8_ESt4lessIS5_ESaIS8_EE14_M_create_nodeIJRKSt21piecewise_construct_tSt5tupleIJOS5_EESJ_IJEEEEEPSt13_Rb_tree_nodeIS8_EDpOT_
FNDA:40,_ZNSt8_Rb_treeINSt7__cxx1112basic_stringIcSt11char_traitsIcESaIcEEES5_St9_IdentityIS5_ESt4lessIS5_ESaIS5_EE14_M_create_nodeIJRKS5_EEEPSt13_Rb_tree_nodeIS5_EDpOT_
FNDA:11,_ZNSt8_Rb_treeINSt7__cxx1112basic_stringIcSt11char_traitsIcESaIcEEESt4pairIKS5_N15InputParameters8MetadataEESt10_Select1stISA_ESt4lessIS5_ESaISA_EE17_M_construct_nodeIJRKSt21piecewise_construct_tSt5tupleIJRS7_EESL_IJEEEEEvPSt13_Rb_tree_nodeISA_EDpOT_
FNDA:11,_ZNKSt8_Rb_treeINSt7__cxx1112basic_stringIcSt11char_traitsIcESaIcEEESt4pairIKS5_St10unique_ptrIN7libMesh10Parameters5ValueESt14default_deleteISB_EEESt10_Select1stISF_ESt4lessIvESaISF_EE10_M_find_trISt17basic_string_viewIcS3_EvEESt23_Rb_tree_const_iteratorISF_ERKT_
FNDA:0,_ZNSt8_Rb_treeI13MooseEnumItemS0_St9_IdentityIS0_ESt4lessIS0_ESaIS0_EEaSERKS6_
FNDA:1315,_ZNSt8_Rb_treeIjjSt9_IdentityIjESt4lessIjESaIjEE8_M_eraseEPSt13_Rb_tree_nodeIjE
FNDA:740,_ZNSt8_Rb_treeINSt7__cxx1112basic_stringIcSt11char_traitsIcESaIcEEESt4pairIKS5_N15InputParameters8MetadataEESt10_Select1stISA_ESt4lessIS5_ESaISA_EE12_M_drop_nodeEPSt13_Rb_tree_nodeISA_E
FNDA:0,_ZNSt8_Rb_treeI13MooseEnumItemSt4pairIKS0_NSt7__cxx1112basic_stringIcSt11char_traitsIcESaIcEEEESt10_Select1stIS9_ESt4lessIS0_ESaIS9_EEaSERKSF_
FNDA:0,_ZNSt8_Rb_treeI13MooseEnumItemSt4pairIKS0_S0_ESt10_Select1stIS3_ESt4lessIS0_ESaIS3_EE7_M_copyILb0ENS9_20_Reuse_or_alloc_nodeEEEPSt13_Rb_tree_nodeIS3_ERKS9_RT0_
FNDA:0,_ZNSt8_Rb_treeIN5Moose7ElemArgESt4pairIKS1_N11MetaPhysicL10DualNumberIdNS4_28SemiDynamicSparseNumberArrayIdmNS4_8NWrapperILm64EEEEELb1EEEESt10_Select1stISB_ESt4lessIS1_ESaISB_EE29_M_get_insert_hint_unique_posESt23_Rb_tree_const_iteratorISB_ERS3_
FNDA:0,_ZNSt8_Rb_treeI13MooseEnumItemSt4pairIKS0_NSt7__cxx1112basic_stringIcSt11char_traitsIcESaIcEEEESt10_Select1stIS9_ESt4lessIS0_ESaIS9_EE20_Reuse_or_alloc_node10_M_extractEv
FNDA:0,_ZNSt8_Rb_treeIN5Moose7ElemArgESt4pairIKS1_dESt10_Select1stIS4_ESt4lessIS1_ESaIS4_EE10_Auto_nodeD2Ev
FNDA:40,_ZNSt8_Rb_treeINSt7__cxx1112basic_stringIcSt11char_traitsIcESaIcEEESt4pairIKS5_St6vectorISt10shared_ptrI17RegistryEntryBaseESaISB_EEESt10_Select1stISE_ESt4lessIS5_ESaISE_EE14_M_create_nodeIJRKSt21piecewise_construct_tSt5tupleIJRS7_EESP_IJEEEEEPSt13_Rb_tree_nodeISE_EDpOT_
FNDA:40,_ZNSt8_Rb_treeINSt7__cxx1112basic_stringIcSt11char_traitsIcESaIcEEES5_St9_IdentityIS5_ESt4lessIS5_ESaIS5_EE17_M_insert_unique_IRKS5_NSB_11_Alloc_nodeEEESt17_Rb_tree_iteratorIS5_ESt23_Rb_tree_const_iteratorIS5_EOT_RT0_
FNDA:40,_ZNSt8_Rb_treeINSt7__cxx1112basic_stringIcSt11char_traitsIcESaIcEEESt4pairIKS5_St6vectorISt10shared_ptrI17RegistryEntryBaseESaISB_EEESt10_Select1stISE_ESt4lessIS5_ESaISE_EE22_M_emplace_hint_uniqueIJRKSt21piecewise_construct_tSt5tupleIJRS7_EESP_IJEEEEESt17_Rb_tree_iteratorISE_ESt23_Rb_tree_const_iteratorISE_EDpOT_
FNDA:0,_ZNSt8_Rb_treeINSt7__cxx1112basic_stringIcSt11char_traitsIcESaIcEEESt4pairIKS5_St10unique_ptrI23AppFactoryBuildInfoBaseSt14default_deleteIS9_EEESt10_Select1stISD_ESt4lessIS5_ESaISD_EE14_M_lower_boundEPSt13_Rb_tree_nodeISD_EPSt18_Rb_tree_node_baseRS7_
FNDA:0,_ZNKSt8_Rb_treeINSt7__cxx1112basic_stringIcSt11char_traitsIcESaIcEEESt4pairIKS5_St10unique_ptrIN7libMesh10Parameters5ValueESt14default_deleteISB_EEESt10_Select1stISF_ESt4lessIvESaISF_EE4findERS7_
FNDA:0,_ZNSt8_Rb_treeIN5Moose7NodeArgESt4pairIKS1_N11MetaPhysicL10DualNumberIdNS4_28SemiDynamicSparseNumberArrayIdmNS4_8NWrapperILm64EEEEELb1EEEESt10_Select1stISB_ESt4lessIS1_ESaISB_EE8_M_eraseEPSt13_Rb_tree_nodeISB_E
FNDA:0,_ZNSt8_Rb_treeI13MooseEnumItemSt4pairIKS0_S0_ESt10_Select1stIS3_ESt4lessIS0_ESaIS3_EE20_Reuse_or_alloc_node10_M_extractEv
FNDA:740,_ZNSt8_Rb_treeINSt7__cxx1112basic_stringIcSt11char_traitsIcESaIcEEESt4pairIKS5_S5_ESt10_Select1stIS8_ESt4lessIS5_ESaIS8_EE14_M_insert_nodeEPSt18_Rb_tree_node_baseSG_PSt13_Rb_tree_nodeIS8_E
FNDA:0,_ZNKSt8_Rb_treeINSt7__cxx1112basic_stringIcSt11char_traitsIcESaIcEEESt4pairIKS5_St10unique_ptrIN7libMesh10Parameters5ValueESt14default_deleteISB_EEESt10_Select1stISF_ESt4lessIvESaISF_EE14_M_lower_boundEPKSt13_Rb_tree_nodeISF_EPKSt18_Rb_tree_node_baseRS7_
FNDA:0,_ZNSt8_Rb_treeIN5Moose7FaceArgESt4pairIKS1_dESt10_Select1stIS4_ESt4lessIS1_ESaIS4_EE14_M_lower_boundEPSt13_Rb_tree_nodeIS4_EPSt18_Rb_tree_node_baseRS3_
FNDA:0,_ZNSt8_Rb_treeI13MooseEnumItemS0_St9_IdentityIS0_ESt4lessIS0_ESaIS0_EE7_M_copyILb0ENS6_20_Reuse_or_alloc_nodeEEEPSt13_Rb_tree_nodeIS0_ESB_PSt18_Rb_tree_node_baseRT0_
FNDA:0,_ZNSt8_Rb_treeIN5Moose7ElemArgESt4pairIKS1_N11MetaPhysicL10DualNumberIdNS4_28SemiDynamicSparseNumberArrayIdmNS4_8NWrapperILm64EEEEELb1EEEESt10_Select1stISB_ESt4lessIS1_ESaISB_EE10_Auto_nodeD2Ev
FNDA:0,_ZNSt8_Rb_treeINSt7__cxx1112basic_stringIcSt11char_traitsIcESaIcEEESt4pairIKS5_S5_ESt10_Select1stIS8_ESt4lessIS5_ESaIS8_EE24_M_get_insert_unique_posERS7_
FNDA:0,_ZNSt8_Rb_treeINSt7__cxx1112basic_stringIcSt11char_traitsIcESaIcEEES5_St9_IdentityIS5_ESt4lessIS5_ESaIS5_EE29_M_get_insert_hint_unique_posESt23_Rb_tree_const_iteratorIS5_ERKS5_
FNDA:0,_ZNSt8_Rb_treeIN5Moose7ElemArgESt4pairIKS1_N11MetaPhysicL10DualNumberIdNS4_28SemiDynamicSparseNumberArrayIdmNS4_8NWrapperILm64EEEEELb1EEEESt10_Select1stISB_ESt4lessIS1_ESaISB_EE14_M_insert_nodeEPSt18_Rb_tree_node_baseSJ_PSt13_Rb_tree_nodeISB_E
FNDA:0,_ZNKSt8_Rb_treeI13MooseEnumItemS0_St9_IdentityIS0_ESt4lessIS0_ESaIS0_EE14_M_lower_boundEPKSt13_Rb_tree_nodeIS0_EPKSt18_Rb_tree_node_baseRKS0_
FNDA:0,_ZNSt8_Rb_treeI13MooseEnumItemSt4pairIKS0_NSt7__cxx1112basic_stringIcSt11char_traitsIcESaIcEEEESt10_Select1stIS9_ESt4lessIS0_ESaIS9_EE14_M_create_nodeIJRKS9_EEEPSt13_Rb_tree_nodeIS9_EDpOT_
FNDA:0,_ZNSt8_Rb_treeI13MooseEnumItemS0_St9_IdentityIS0_ESt4lessIS0_ESaIS0_EE20_Reuse_or_alloc_node10_M_extractEv
FNDA:711,_ZNSt8_Rb_treeINSt7__cxx1112basic_stringIcSt11char_traitsIcESaIcEEESt4pairIKS5_N15InputParameters8MetadataEESt10_Select1stISA_ESt4lessIS5_ESaISA_EE14_M_lower_boundEPSt13_Rb_tree_nodeISA_EPSt18_Rb_tree_node_baseRS7_
FNDA:0,_ZNSt8_Rb_treeI13MooseEnumItemS0_St9_IdentityIS0_ESt4lessIS0_ESaIS0_EE14_M_create_nodeIJRKS0_EEEPSt13_Rb_tree_nodeIS0_EDpOT_
FNDA:0,_ZNSt8_Rb_treeIN5Moose7ElemArgESt4pairIKS1_N11MetaPhysicL10DualNumberIdNS4_28SemiDynamicSparseNumberArrayIdmNS4_8NWrapperILm64EEEEELb1EEEESt10_Select1stISB_ESt4lessIS1_ESaISB_EE24_M_get_insert_unique_posERS3_
FNDA:0,_ZNSt8_Rb_treeINSt7__cxx1112basic_stringIcSt11char_traitsIcESaIcEEESt4pairIKS5_St10unique_ptrI23AppFactoryBuildInfoBaseSt14default_deleteIS9_EEESt10_Select1stISD_ESt4lessIS5_ESaISD_EE24_M_get_insert_unique_posERS7_
FNDA:0,_ZNSt8_Rb_treeINSt7__cxx1112basic_stringIcSt11char_traitsIcESaIcEEESt4pairIKS5_St10unique_ptrI23AppFactoryBuildInfoBaseSt14default_deleteIS9_EEESt10_Select1stISD_ESt4lessIS5_ESaISD_EE14_M_create_nodeIJRKSt21piecewise_construct_tSt5tupleIJRS7_EESO_IJEEEEEPSt13_Rb_tree_nodeISD_EDpOT_
FNDA:0,_ZNSt8_Rb_treeIN5Moose7FaceArgESt4pairIKS1_dESt10_Select1stIS4_ESt4lessIS1_ESaIS4_EE5clearEv
FNDA:11,_ZNSt8_Rb_treeINSt7__cxx1112basic_stringIcSt11char_traitsIcESaIcEEESt4pairIKS5_N15InputParameters8MetadataEESt10_Select1stISA_ESt4lessIS5_ESaISA_EE22_M_emplace_hint_uniqueIJRKSt21piecewise_construct_tSt5tupleIJRS7_EESL_IJEEEEESt17_Rb_tree_iteratorISA_ESt23_Rb_tree_const_iteratorISA_EDpOT_
FNDA:11,_ZNSt8_Rb_treeINSt7__cxx1112basic_stringIcSt11char_traitsIcESaIcEEESt4pairIKS5_St10unique_ptrIN7libMesh10Parameters5ValueESt14default_deleteISB_EEESt10_Select1stISF_ESt4lessIvESaISF_EE22_M_emplace_hint_uniqueIJRKSt21piecewise_construct_tSt5tupleIJRS7_EESQ_IJEEEEESt17_Rb_tree_iteratorISF_ESt23_Rb_tree_const_iteratorISF_EDpOT_
FNDA:760,_ZNSt8_Rb_treeINSt7__cxx1112basic_stringIcSt11char_traitsIcESaIcEEESt4pairIKS5_N15InputParameters8MetadataEESt10_Select1stISA_ESt4lessIS5_ESaISA_EE8_M_eraseEPSt13_Rb_tree_nodeISA_E
FNDA:0,_ZNSt8_Rb_treeI13MooseEnumItemSt4pairIKS0_S0_ESt10_Select1stIS3_ESt4lessIS0_ESaIS3_EE7_M_copyILb0ENS9_20_Reuse_or_alloc_nodeEEEPSt13_Rb_tree_nodeIS3_ESE_PSt18_Rb_tree_node_baseRT0_
FNDA:0,_ZNSt8_Rb_treeIN5Moose7NodeArgESt4pairIKS1_dESt10_Select1stIS4_ESt4lessIS1_ESaIS4_EE5clearEv
FNDA:0,_ZNSt8_Rb_treeI13MooseEnumItemSt4pairIKS0_NSt7__cxx1112basic_stringIcSt11char_traitsIcESaIcEEEESt10_Select1stIS9_ESt4lessIS0_ESaIS9_EE17_M_construct_nodeIJRKS9_EEEvPSt13_Rb_tree_nodeIS9_EDpOT_
FNDA:5528,_ZNSt8_Rb_treeI13MooseEnumItemS0_St9_IdentityIS0_ESt4lessIS0_ESaIS0_EE8_M_eraseEPSt13_Rb_tree_nodeIS0_E
FNDA:0,_ZNKSt8_Rb_treeINSt7__cxx1112basic_stringIcSt11char_traitsIcESaIcEEESt4pairIKS5_St10unique_ptrI23AppFactoryBuildInfoBaseSt14default_deleteIS9_EEESt10_Select1stISD_ESt4lessIS5_ESaISD_EE4findERS7_
FNDA:226,_ZNSt8_Rb_treeIP18MooseVariableFieldIdES2_St9_IdentityIS2_ESt4lessIS2_ESaIS2_EE8_M_eraseEPSt13_Rb_tree_nodeIS2_E
FNDA:0,_ZNSt8_Rb_treeIN5Moose7ElemArgESt4pairIKS1_N11MetaPhysicL10DualNumberIdNS4_28SemiDynamicSparseNumberArrayIdmNS4_8NWrapperILm64EEEEELb1EEEESt10_Select1stISB_ESt4lessIS1_ESaISB_EE5clearEv
FNDA:6107717,_ZNSt8_Rb_treeINSt7__cxx1112basic_stringIcSt11char_traitsIcESaIcEEESt4pairIKS5_St10unique_ptrIN7libMesh10Parameters5ValueESt14default_deleteISB_EEESt10_Select1stISF_ESt4lessIvESaISF_EE29_M_get_insert_hint_unique_posESt23_Rb_tree_const_iteratorISF_ERS7_
FNDA:0,_ZNSt8_Rb_treeIN5Moose7ElemArgESt4pairIKS1_dESt10_Select1stIS4_ESt4lessIS1_ESaIS4_EE22_M_emplace_hint_uniqueIJRKSt21piecewise_construct_tSt5tupleIJRS3_EESF_IJOdEEEEESt17_Rb_tree_iteratorIS4_ESt23_Rb_tree_const_iteratorIS4_EDpOT_
FNDA:0,_ZNSt8_Rb_treeIN5Moose7FaceArgESt4pairIKS1_dESt10_Select1stIS4_ESt4lessIS1_ESaIS4_EE8_M_eraseEPSt13_Rb_tree_nodeIS4_E
FNDA:11,_ZNSt8_Rb_treeINSt7__cxx1112basic_stringIcSt11char_traitsIcESaIcEEESt4pairIKS5_St10unique_ptrIN7libMesh10Parameters5ValueESt14default_deleteISB_EEESt10_Select1stISF_ESt4lessIvESaISF_EE14_M_create_nodeIJRKSt21piecewise_construct_tSt5tupleIJRS7_EESQ_IJEEEEEPSt13_Rb_tree_nodeISF_EDpOT_
FNDA:0,_ZNSt8_Rb_treeIN5Moose7ElemArgESt4pairIKS1_dESt10_Select1stIS4_ESt4lessIS1_ESaIS4_EE29_M_get_insert_hint_unique_posESt23_Rb_tree_const_iteratorIS4_ERS3_
FNDA:40,_ZNSt8_Rb_treeINSt7__cxx1112basic_stringIcSt11char_traitsIcESaIcEEES5_St9_IdentityIS5_ESt4lessIS5_ESaIS5_EE10_M_insert_IRKS5_NSB_11_Alloc_nodeEEESt17_Rb_tree_iteratorIS5_EPSt18_Rb_tree_node_baseSJ_OT_RT0_
FNDA:11,_ZNSt8_Rb_treeINSt7__cxx1112basic_stringIcSt11char_traitsIcESaIcEEESt4pairIKS5_St10unique_ptrIN7libMesh10Parameters5ValueESt14default_deleteISB_EEESt10_Select1stISF_ESt4lessIvESaISF_EE10_Auto_node9_M_insertES6_IPSt18_Rb_tree_node_baseSO_E
FNDA:0,_ZNSt8_Rb_treeINSt7__cxx1112basic_stringIcSt11char_traitsIcESaIcEEES5_St9_IdentityIS5_ESt4lessIS5_ESaIS5_EE16_M_insert_uniqueIRKS5_EESt4pairISt17_Rb_tree_iteratorIS5_EbEOT_
FNDA:0,_ZNSt8_Rb_treeIN5Moose7FaceArgESt4pairIKS1_N11MetaPhysicL10DualNumberIdNS4_28SemiDynamicSparseNumberArrayIdmNS4_8NWrapperILm64EEEEELb1EEEESt10_Select1stISB_ESt4lessIS1_ESaISB_EE22_M_emplace_hint_uniqueIJRKSt21piecewise_construct_tSt5tupleIJRS3_EESM_IJOSA_EEEEESt17_Rb_tree_iteratorISB_ESt23_Rb_tree_const_iteratorISB_EDpOT_
FNDA:0,_ZNSt8_Rb_treeI13MooseEnumItemSt4pairIKS0_NSt7__cxx1112basic_stringIcSt11char_traitsIcESaIcEEEESt10_Select1stIS9_ESt4lessIS0_ESaIS9_EE7_M_copyILb0ENSF_20_Reuse_or_alloc_nodeEEEPSt13_Rb_tree_nodeIS9_ERKSF_RT0_
FNDA:40,_ZNSt8_Rb_treeINSt7__cxx1112basic_stringIcSt11char_traitsIcESaIcEEESt4pairIKS5_St6vectorISt10shared_ptrI17RegistryEntryBaseESaISB_EEESt10_Select1stISE_ESt4lessIS5_ESaISE_EE17_M_construct_nodeIJRKSt21piecewise_construct_tSt5tupleIJRS7_EESP_IJEEEEEvPSt13_Rb_tree_nodeISE_EDpOT_
FNDA:0,_ZNSt8_Rb_treeIN5Moose7FaceArgESt4pairIKS1_dESt10_Select1stIS4_ESt4lessIS1_ESaIS4_EE10_Auto_node9_M_insertES2_IPSt18_Rb_tree_node_baseSD_E
FNDA:0,_ZNKSt8_Rb_treeI13MooseEnumItemS0_St9_IdentityIS0_ESt4lessIS0_ESaIS0_EE4findERKS0_
FNDA:0,_ZNSt8_Rb_treeINSt7__cxx1112basic_stringIcSt11char_traitsIcESaIcEEESt4pairIKS5_S5_ESt10_Select1stIS8_ESt4lessIS5_ESaIS8_EE12_M_drop_nodeEPSt13_Rb_tree_nodeIS8_E
FNDA:2259,_ZNSt8_Rb_treeINSt7__cxx1112basic_stringIcSt11char_traitsIcESaIcEEES5_St9_IdentityIS5_ESt4lessIS5_ESaIS5_EE8_M_eraseEPSt13_Rb_tree_nodeIS5_E
FNDA:0,_ZNSt8_Rb_treeI17PostprocessorNameSt4pairIKS0_St10unique_ptrIdSt14default_deleteIdEEESt10_Select1stIS7_ESt4lessIS0_ESaIS7_EE12_M_drop_nodeEPSt13_Rb_tree_nodeIS7_E
FNDA:0,_ZNSt8_Rb_treeI13MooseEnumItemSt4pairIKS0_S0_ESt10_Select1stIS3_ESt4lessIS0_ESaIS3_EE20_Reuse_or_alloc_nodeclIRKS3_EEPSt13_Rb_tree_nodeIS3_EOT_
FNDA:0,_ZNSt8_Rb_treeIN5Moose7FaceArgESt4pairIKS1_dESt10_Select1stIS4_ESt4lessIS1_ESaIS4_EE29_M_get_insert_hint_unique_posESt23_Rb_tree_const_iteratorIS4_ERS3_
FNDA:0,_ZNSt8_Rb_treeIN5Moose7FaceArgESt4pairIKS1_N11MetaPhysicL10DualNumberIdNS4_28SemiDynamicSparseNumberArrayIdmNS4_8NWrapperILm64EEEEELb1EEEESt10_Select1stISB_ESt4lessIS1_ESaISB_EE14_M_lower_boundEPSt13_Rb_tree_nodeISB_EPSt18_Rb_tree_node_baseRS3_
FNDA:40,_ZNSt8_Rb_treeINSt7__cxx1112basic_stringIcSt11char_traitsIcESaIcEEESt4pairIKS5_St6vectorISt10shared_ptrI17RegistryEntryBaseESaISB_EEESt10_Select1stISE_ESt4lessIS5_ESaISE_EE10_Auto_node9_M_insertES6_IPSt18_Rb_tree_node_baseSN_E
FNDA:0,_ZNSt8_Rb_treeI13MooseEnumItemS0_St9_IdentityIS0_ESt4lessIS0_ESaIS0_EE20_Reuse_or_alloc_nodeC2ERS6_
FNDA:0,_ZNSt8_Rb_treeINSt7__cxx1112basic_stringIcSt11char_traitsIcESaIcEEESt4pairIKS5_St10unique_ptrIN7libMesh10Parameters5ValueESt14default_deleteISB_EEESt10_Select1stISF_ESt4lessIvESaISF_EE5clearEv
FNDA:740,_ZNSt8_Rb_treeINSt7__cxx1112basic_stringIcSt11char_traitsIcESaIcEEESt4pairIKS5_S5_ESt10_Select1stIS8_ESt4lessIS5_ESaIS8_EE14_M_lower_boundEPSt13_Rb_tree_nodeIS8_EPSt18_Rb_tree_node_baseRS7_
FNDA:0,_ZNSt8_Rb_treeI13MooseEnumItemS0_St9_IdentityIS0_ESt4lessIS0_ESaIS0_EE17_M_construct_nodeIJRKS0_EEEvPSt13_Rb_tree_nodeIS0_EDpOT_
FNDA:0,_ZNSt8_Rb_treeI13MooseEnumItemSt4pairIKS0_NSt7__cxx1112basic_stringIcSt11char_traitsIcESaIcEEEESt10_Select1stIS9_ESt4lessIS0_ESaIS9_EE20_Reuse_or_alloc_nodeclIRKS9_EEPSt13_Rb_tree_nodeIS9_EOT_
FNDA:0,_ZNSt8_Rb_treeINSt7__cxx1112basic_stringIcSt11char_traitsIcESaIcEEESt4pairIKS5_St6vectorISt10shared_ptrI17RegistryEntryBaseESaISB_EEESt10_Select1stISE_ESt4lessIS5_ESaISE_EE24_M_get_insert_unique_posERS7_
FNDA:0,_ZNSt8_Rb_treeINSt7__cxx1112basic_stringIcSt11char_traitsIcESaIcEEESt4pairIKS5_St10unique_ptrI23AppFactoryBuildInfoBaseSt14default_deleteIS9_EEESt10_Select1stISD_ESt4lessIS5_ESaISD_EE29_M_get_insert_hint_unique_posESt23_Rb_tree_const_iteratorISD_ERS7_
FNDA:0,_ZNSt8_Rb_treeINSt7__cxx1112basic_stringIcSt11char_traitsIcESaIcEEESt4pairIKS5_S5_ESt10_Select1stIS8_ESt4lessIS5_ESaIS8_EE29_M_get_insert_hint_unique_posESt23_Rb_tree_const_iteratorIS8_ERS7_
FNDA:40,_ZNSt8_Rb_treeINSt7__cxx1112basic_stringIcSt11char_traitsIcESaIcEEESt4pairIKS5_St6vectorISt10shared_ptrI17RegistryEntryBaseESaISB_EEESt10_Select1stISE_ESt4lessIS5_ESaISE_EE10_Auto_nodeD2Ev
FNDA:760,_ZNSt8_Rb_treeINSt7__cxx1112basic_stringIcSt11char_traitsIcESaIcEEESt4pairIKS5_St10unique_ptrIN7libMesh10Parameters5ValueESt14default_deleteISB_EEESt10_Select1stISF_ESt4lessIvESaISF_EE8_M_eraseEPSt13_Rb_tree_nodeISF_E
FNDA:0,_ZNSt8_Rb_treeIN5Moose7ElemArgESt4pairIKS1_dESt10_Select1stIS4_ESt4lessIS1_ESaIS4_EE14_M_lower_boundEPSt13_Rb_tree_nodeIS4_EPSt18_Rb_tree_node_baseRS3_
FNDA:0,_ZNSt8_Rb_treeI13MooseEnumItemSt4pairIKS0_S0_ESt10_Select1stIS3_ESt4lessIS0_ESaIS3_EE14_M_create_nodeIJRKS3_EEEPSt13_Rb_tree_nodeIS3_EDpOT_
FNDA:0,_ZNSt8_Rb_treeIN5Moose7FaceArgESt4pairIKS1_N11MetaPhysicL10DualNumberIdNS4_28SemiDynamicSparseNumberArrayIdmNS4_8NWrapperILm64EEEEELb1EEEESt10_Select1stISB_ESt4lessIS1_ESaISB_EE8_M_eraseEPSt13_Rb_tree_nodeISB_E
FNDA:0,_ZNSt8_Rb_treeIN5Moose7ElemArgESt4pairIKS1_dESt10_Select1stIS4_ESt4lessIS1_ESaIS4_EE10_Auto_node9_M_insertES2_IPSt18_Rb_tree_node_baseSD_E
FNDA:0,_ZNSt8_Rb_treeINSt7__cxx1112basic_stringIcSt11char_traitsIcESaIcEEESt4pairIKS5_St10unique_ptrI23AppFactoryBuildInfoBaseSt14default_deleteIS9_EEESt10_Select1stISD_ESt4lessIS5_ESaISD_EE14_M_insert_nodeEPSt18_Rb_tree_node_baseSL_PSt13_Rb_tree_nodeISD_E
FNDA:20,_ZNSt8_Rb_treeINSt7__cxx1112basic_stringIcSt11char_traitsIcESaIcEEESt4pairIKS5_S5_ESt10_Select1stIS8_ESt4lessIS5_ESaIS8_EE8_M_eraseEPSt13_Rb_tree_nodeIS8_E
FNDA:0,_ZNSt8_Rb_treeIN5Moose7ElemArgESt4pairIKS1_dESt10_Select1stIS4_ESt4lessIS1_ESaIS4_EE14_M_insert_nodeEPSt18_Rb_tree_node_baseSC_PSt13_Rb_tree_nodeIS4_E
FNDA:0,_ZNSt8_Rb_treeINSt7__cxx1112basic_stringIcSt11char_traitsIcESaIcEEESt4pairIKS5_St10unique_ptrI23AppFactoryBuildInfoBaseSt14default_deleteIS9_EEESt10_Select1stISD_ESt4lessIS5_ESaISD_EE22_M_emplace_hint_uniqueIJRKSt21piecewise_construct_tSt5tupleIJRS7_EESO_IJEEEEESt17_Rb_tree_iteratorISD_ESt23_Rb_tree_const_iteratorISD_EDpOT_
FNDA:572,_ZNSt8_Rb_treeIttSt9_IdentityItESt4lessItESaItEE8_M_eraseEPSt13_Rb_tree_nodeItE
FNDA:0,_ZNSt8_Rb_treeINSt7__cxx1112basic_stringIcSt11char_traitsIcESaIcEEESt4pairIKS5_St6vectorISt10shared_ptrI17RegistryEntryBaseESaISB_EEESt10_Select1stISE_ESt4lessIS5_ESaISE_EE29_M_get_insert_hint_unique_posESt23_Rb_tree_const_iteratorISE_ERS7_
FNDA:11,_ZNSt8_Rb_treeINSt7__cxx1112basic_stringIcSt11char_traitsIcESaIcEEESt4pairIKS5_N15InputParameters8MetadataEESt10_Select1stISA_ESt4lessIS5_ESaISA_EE14_M_create_nodeIJRKSt21piecewise_construct_tSt5tupleIJRS7_EESL_IJEEEEEPSt13_Rb_tree_nodeISA_EDpOT_
FNDA:0,_ZNSt8_Rb_treeI13MooseEnumItemSt4pairIKS0_NSt7__cxx1112basic_stringIcSt11char_traitsIcESaIcEEEESt10_Select1stIS9_ESt4lessIS0_ESaIS9_EE7_M_copyILb0ENSF_20_Reuse_or_alloc_nodeEEEPSt13_Rb_tree_nodeIS9_ESK_PSt18_Rb_tree_node_baseRT0_
FNDA:3584,_ZNSt8_Rb_treeI13MooseEnumItemS0_St9_IdentityIS0_ESt4lessIS0_ESaIS0_EE12_M_drop_nodeEPSt13_Rb_tree_nodeIS0_E
FNDA:740,_ZNSt8_Rb_treeINSt7__cxx1112basic_stringIcSt11char_traitsIcESaIcEEESt4pairIKS5_S5_ESt10_Select1stIS8_ESt4lessIS5_ESaIS8_EE10_Auto_nodeD2Ev
FNDA:0,_ZNSt8_Rb_treeINSt7__cxx1112basic_stringIcSt11char_traitsIcESaIcEEESt4pairIKS5_N15InputParameters8MetadataEESt10_Select1stISA_ESt4lessIS5_ESaISA_EE24_M_get_insert_unique_posERS7_
FNDA:0,_ZNSt8_Rb_treeI13MooseEnumItemSt4pairIKS0_S0_ESt10_Select1stIS3_ESt4lessIS0_ESaIS3_EE17_M_construct_nodeIJRKS3_EEEvPSt13_Rb_tree_nodeIS3_EDpOT_
FNDA:0,_ZNSt8_Rb_treeI13MooseEnumItemSt4pairIKS0_S0_ESt10_Select1stIS3_ESt4lessIS0_ESaIS3_EE20_Reuse_or_alloc_nodeC2ERS9_
FNDA:11,_ZNKSt8_Rb_treeINSt7__cxx1112basic_stringIcSt11char_traitsIcESaIcEEESt4pairIKS5_St10unique_ptrIN7libMesh10Parameters5ValueESt14default_deleteISB_EEESt10_Select1stISF_ESt4lessIvESaISF_EE17_M_lower_bound_trISt17basic_string_viewIcS3_EvEESt23_Rb_tree_const_iteratorISF_ERKT_
FNDA:0,_ZNSt8_Rb_treeIN5Moose7FaceArgESt4pairIKS1_dESt10_Select1stIS4_ESt4lessIS1_ESaIS4_EE24_M_get_insert_unique_posERS3_
FNDA:40,_ZNSt8_Rb_treeINSt7__cxx1112basic_stringIcSt11char_traitsIcESaIcEEESt4pairIKS5_St6vectorISt10shared_ptrI17RegistryEntryBaseESaISB_EEESt10_Select1stISE_ESt4lessIS5_ESaISE_EE14_M_insert_nodeEPSt18_Rb_tree_node_baseSM_PSt13_Rb_tree_nodeISE_E
FNDA:226,_ZNSt8_Rb_treeI17PostprocessorNameSt4pairIKS0_St10unique_ptrIdSt14default_deleteIdEEESt10_Select1stIS7_ESt4lessIS0_ESaIS7_EE8_M_eraseEPSt13_Rb_tree_nodeIS7_E
FNDA:0,_ZNSt8_Rb_treeIN5Moose7ElemArgESt4pairIKS1_dESt10_Select1stIS4_ESt4lessIS1_ESaIS4_EE5clearEv
FNDA:11,_ZNSt8_Rb_treeINSt7__cxx1112basic_stringIcSt11char_traitsIcESaIcEEESt4pairIKS5_St10unique_ptrIN7libMesh10Parameters5ValueESt14default_deleteISB_EEESt10_Select1stISF_ESt4lessIvESaISF_EE10_Auto_nodeD2Ev
FNDA:0,_ZNSt8_Rb_treeIN5Moose7FaceArgESt4pairIKS1_N11MetaPhysicL10DualNumberIdNS4_28SemiDynamicSparseNumberArrayIdmNS4_8NWrapperILm64EEEEELb1EEEESt10_Select1stISB_ESt4lessIS1_ESaISB_EE5clearEv
FNDA:0,_ZNSt8_Rb_treeINSt7__cxx1112basic_stringIcSt11char_traitsIcESaIcEEESt4pairIKS5_St10unique_ptrI23AppFactoryBuildInfoBaseSt14default_deleteIS9_EEESt10_Select1stISD_ESt4lessIS5_ESaISD_EE10_Auto_nodeD2Ev
FNDA:28,_ZNSt8_Rb_treeI14UserObjectNameS0_St9_IdentityIS0_ESt4lessIS0_ESaIS0_EE8_M_eraseEPSt13_Rb_tree_nodeIS0_E
FNDA:11,_ZNSt8_Rb_treeINSt7__cxx1112basic_stringIcSt11char_traitsIcESaIcEEESt4pairIKS5_St10unique_ptrIN7libMesh10Parameters5ValueESt14default_deleteISB_EEESt10_Select1stISF_ESt4lessIvESaISF_EE14_M_insert_nodeEPSt18_Rb_tree_node_baseSN_PSt13_Rb_tree_nodeISF_E
FNDA:0,_ZNSt8_Rb_treeIN5Moose7ElemArgESt4pairIKS1_N11MetaPhysicL10DualNumberIdNS4_28SemiDynamicSparseNumberArrayIdmNS4_8NWrapperILm64EEEEELb1EEEESt10_Select1stISB_ESt4lessIS1_ESaISB_EE10_Auto_node9_M_insertES2_IPSt18_Rb_tree_node_baseSK_E
FNDA:276,_ZNSt8_Rb_treeI10OutputNameS0_St9_IdentityIS0_ESt4lessIS0_ESaIS0_EE8_M_eraseEPSt13_Rb_tree_nodeIS0_E
FNDA:40,_ZNSt8_Rb_treeINSt7__cxx1112basic_stringIcSt11char_traitsIcESaIcEEES5_St9_IdentityIS5_ESt4lessIS5_ESaIS5_EE22_M_insert_range_uniqueIPKS5_EENSt9enable_ifIXsrSt7is_sameIS5_NSt15iterator_traitsIT_E10value_typeEE5valueEvE4typeESI_SI_
FNDA:0,_ZNSt8_Rb_treeI13MooseEnumItemSt4pairIKS0_NSt7__cxx1112basic_stringIcSt11char_traitsIcESaIcEEEESt10_Select1stIS9_ESt4lessIS0_ESaIS9_EE20_Reuse_or_alloc_nodeC2ERSF_
FNDA:653832,_ZNSt8_Rb_treeINSt7__cxx1112basic_stringIcSt11char_traitsIcESaIcEEESt4pairIKS5_St10unique_ptrIN7libMesh10Parameters5ValueESt14default_deleteISB_EEESt10_Select1stISF_ESt4lessIvESaISF_EE24_M_get_insert_unique_posERS7_
FNDA:0,_ZNSt8_Rb_treeI13MooseEnumItemS0_St9_IdentityIS0_ESt4lessIS0_ESaIS0_EE20_Reuse_or_alloc_nodeclIRKS0_EEPSt13_Rb_tree_nodeIS0_EOT_
FNDA:0,_ZNSt8_Rb_treeIN5Moose7ElemArgESt4pairIKS1_dESt10_Select1stIS4_ESt4lessIS1_ESaIS4_EE24_M_get_insert_unique_posERS3_
FNDA:740,_ZNSt8_Rb_treeINSt7__cxx1112basic_stringIcSt11char_traitsIcESaIcEEESt4pairIKS5_S5_ESt10_Select1stIS8_ESt4lessIS5_ESaIS8_EE10_Auto_node9_M_insertES6_IPSt18_Rb_tree_node_baseSH_E
FNDA:0,_ZNSt8_Rb_treeINSt7__cxx1112basic_stringIcSt11char_traitsIcESaIcEEESt4pairIKS5_St10unique_ptrI23AppFactoryBuildInfoBaseSt14default_deleteIS9_EEESt10_Select1stISD_ESt4lessIS5_ESaISD_EE10_Auto_node9_M_insertES6_IPSt18_Rb_tree_node_baseSM_E
FNDA:0,_ZNSt8_Rb_treeINSt7__cxx1112basic_stringIcSt11char_traitsIcESaIcEEESt4pairIKS5_St10unique_ptrI23AppFactoryBuildInfoBaseSt14default_deleteIS9_EEESt10_Select1stISD_ESt4lessIS5_ESaISD_EE12_M_drop_nodeEPSt13_Rb_tree_nodeISD_E
FNDA:0,_ZNSt8_Rb_treeIN5Moose7FaceArgESt4pairIKS1_dESt10_Select1stIS4_ESt4lessIS1_ESaIS4_EE10_Auto_nodeD2Ev
FNDA:0,_ZNSt8_Rb_treeIN5Moose7FaceArgESt4pairIKS1_dESt10_Select1stIS4_ESt4lessIS1_ESaIS4_EE22_M_emplace_hint_uniqueIJRKSt21piecewise_construct_tSt5tupleIJRS3_EESF_IJOdEEEEESt17_Rb_tree_iteratorIS4_ESt23_Rb_tree_const_iteratorIS4_EDpOT_
FNDA:0,_ZNSt8_Rb_treeIN5Moose7FaceArgESt4pairIKS1_dESt10_Select1stIS4_ESt4lessIS1_ESaIS4_EE14_M_create_nodeIJRKSt21piecewise_construct_tSt5tupleIJRS3_EESF_IJOdEEEEEPSt13_Rb_tree_nodeIS4_EDpOT_
FNDA:11,_ZNSt8_Rb_treeINSt7__cxx1112basic_stringIcSt11char_traitsIcESaIcEEESt4pairIKS5_N15InputParameters8MetadataEESt10_Select1stISA_ESt4lessIS5_ESaISA_EE10_Auto_node9_M_insertES6_IPSt18_Rb_tree_node_baseSJ_E
FNDA:0,_ZNSt8_Rb_treeIN5Moose7ElemArgESt4pairIKS1_N11MetaPhysicL10DualNumberIdNS4_28SemiDynamicSparseNumberArrayIdmNS4_8NWrapperILm64EEEEELb1EEEESt10_Select1stISB_ESt4lessIS1_ESaISB_EE8_M_eraseEPSt13_Rb_tree_nodeISB_E
FNDA:0,_ZNSt8_Rb_treeIN5Moose7FaceArgESt4pairIKS1_N11MetaPhysicL10DualNumberIdNS4_28SemiDynamicSparseNumberArrayIdmNS4_8NWrapperILm64EEEEELb1EEEESt10_Select1stISB_ESt4lessIS1_ESaISB_EE14_M_insert_nodeEPSt18_Rb_tree_node_baseSJ_PSt13_Rb_tree_nodeISB_E
FNDA:1204,_ZNSt8_Rb_treeI13MooseEnumItemSt4pairIKS0_NSt7__cxx1112basic_stringIcSt11char_traitsIcESaIcEEEESt10_Select1stIS9_ESt4lessIS0_ESaIS9_EE8_M_eraseEPSt13_Rb_tree_nodeIS9_E
FNDA:0,_ZNSt8_Rb_treeIN5Moose7FaceArgESt4pairIKS1_N11MetaPhysicL10DualNumberIdNS4_28SemiDynamicSparseNumberArrayIdmNS4_8NWrapperILm64EEEEELb1EEEESt10_Select1stISB_ESt4lessIS1_ESaISB_EE10_Auto_nodeD2Ev
FNDA:11,_ZNSt8_Rb_treeINSt7__cxx1112basic_stringIcSt11char_traitsIcESaIcEEESt4pairIKS5_St10unique_ptrIN7libMesh10Parameters5ValueESt14default_deleteISB_EEESt10_Select1stISF_ESt4lessIvESaISF_EE14_M_lower_boundEPSt13_Rb_tree_nodeISF_EPSt18_Rb_tree_node_baseRS7_
FNDA:0,_ZNSt8_Rb_treeIN5Moose7NodeArgESt4pairIKS1_N11MetaPhysicL10DualNumberIdNS4_28SemiDynamicSparseNumberArrayIdmNS4_8NWrapperILm64EEEEELb1EEEESt10_Select1stISB_ESt4lessIS1_ESaISB_EE5clearEv
FNDA:0,_ZNSt8_Rb_treeI13MooseEnumItemS0_St9_IdentityIS0_ESt4lessIS0_ESaIS0_EE7_M_copyILb0ENS6_20_Reuse_or_alloc_nodeEEEPSt13_Rb_tree_nodeIS0_ERKS6_RT0_
FNDA:0,_ZNSt8_Rb_treeIN5Moose7FaceArgESt4pairIKS1_N11MetaPhysicL10DualNumberIdNS4_28SemiDynamicSparseNumberArrayIdmNS4_8NWrapperILm64EEEEELb1EEEESt10_Select1stISB_ESt4lessIS1_ESaISB_EE24_M_get_insert_unique_posERS3_
FNDA:0,_ZNSt8_Rb_treeI13MooseEnumItemSt4pairIKS0_S0_ESt10_Select1stIS3_ESt4lessIS0_ESaIS3_EEaSERKS9_
FNF:152
FNH:55
DA:114,0
DA:128,0
DA:152,40
DA:174,40
DA:175,40
DA:208,40
DA:209,40
DA:210,40
DA:211,40
DA:282,0
DA:287,0
DA:302,3538410
DA:303,0
DA:350,842
DA:351,802
DA:355,6107717
DA:368,0
DA:369,0
DA:397,0
DA:445,0
DA:446,0
DA:448,0
DA:450,0
DA:452,0
DA:453,0
DA:456,0
DA:457,0
DA:464,0
DA:468,0
DA:470,0
DA:471,0
DA:474,0
DA:475,0
DA:478,0
DA:483,0
DA:485,0
DA:489,0
DA:490,0
DA:492,0
DA:494,0
DA:496,0
DA:498,0
DA:500,0
DA:501,0
DA:503,0
DA:504,0
DA:508,0
DA:511,0
DA:525,40
DA:526,40
DA:531,40
DA:550,842
DA:592,102
DA:601,0
DA:603,0
DA:605,0
DA:607,102
DA:611,842
DA:614,102
DA:615,842
DA:626,6096
DA:631,5064
DA:635,5064
DA:647,0
DA:648,0
DA:649,0
DA:650,0
DA:702,40
DA:717,0
DA:737,660751
DA:747,11
DA:752,6764151
DA:756,11
DA:782,8175
DA:786,22
DA:790,4224
DA:794,22
DA:889,0
DA:892,0
DA:893,0
DA:894,0
DA:895,0
DA:896,0
DA:986,2269
DA:998,653832
DA:1002,0
DA:1006,2202
DA:1010,11
DA:1034,1491672
DA:1100,40
DA:1103,80
DA:1104,40
DA:1105,40
DA:1254,0
DA:1256,0
DA:1258,0
DA:1272,2202
DA:1305,11
DA:1307,11
DA:1308,11
DA:1310,11
DA:1334,11
DA:1338,55
DA:1339,44
DA:1346,11
DA:1636,802
DA:1637,802
DA:1638,802
DA:1641,802
DA:1643,802
DA:1644,0
DA:1645,802
DA:1656,802
DA:1658,802
DA:1659,802
DA:1660,802
DA:1779,0
DA:1782,0
DA:1801,0
DA:1804,0
DA:1805,0
DA:1808,0
DA:1819,40
DA:1828,40
DA:1829,40
DA:1834,40
DA:1835,40
DA:1836,40
DA:1837,40
DA:1893,0
DA:1898,0
DA:1902,0
DA:1903,0
DA:1904,0
DA:1908,0
DA:1911,0
DA:1912,0
DA:1913,0
DA:1914,0
DA:1920,0
DA:1922,0
DA:1923,0
DA:1925,0
DA:1931,15198
DA:1935,21981
DA:1937,6783
DA:1939,5064
DA:1942,15198
DA:1948,2202
DA:1952,12882
DA:1953,10680
DA:1957,2202
DA:1964,0
DA:1968,0
DA:1969,0
DA:1973,0
DA:2109,653832
DA:2116,653832
DA:2120,0
DA:2123,653832
DA:2125,653832
DA:2126,653832
DA:2130,0
DA:2131,0
DA:2132,0
DA:2163,0
DA:2172,0
DA:2174,0
DA:2177,0
DA:2179,0
DA:2182,0
DA:2211,6107717
DA:2219,6107717
DA:2222,1491672
DA:2223,837840
DA:2225,653832
DA:2227,4616045
DA:2231,4616045
DA:2232,1077635
DA:2233,3538410
DA:2235,3538410
DA:2236,2213545
DA:2238,1324865
DA:2241,0
DA:2243,0
DA:2247,0
DA:2248,0
DA:2249,0
DA:2251,0
DA:2252,0
DA:2254,0
DA:2257,0
DA:2261,0
DA:2272,40
DA:2282,40
DA:2284,40
DA:2285,40
DA:2288,0
DA:2378,802
DA:2382,360
DA:2383,1162
DA:2386,802
DA:2387,802
DA:2388,802
DA:2389,802
DA:2459,802
DA:2464,802
DA:2465,802
DA:2466,802
DA:2467,0
DA:2468,802
DA:2543,0
DA:2546,0
DA:2548,0
DA:2549,0
LF:215
LH:109
end_of_record
TN:
SF:/usr/share/miniconda3/envs/moose/lib/gcc/x86_64-conda-linux-gnu/12.3.0/include/c++/bits/stl_uninitialized.h
FN:113,_ZSt16__do_uninit_copyIP12FunctionNameS1_ET0_T_S3_S2_
FN:113,_ZSt16__do_uninit_copyIPKNSt7__cxx1112basic_stringIcSt11char_traitsIcESaIcEEEPS5_ET0_T_SA_S9_
FN:113,_ZSt16__do_uninit_copyIN9__gnu_cxx17__normal_iteratorIPK21NonlinearVariableNameSt6vectorIS2_SaIS2_EEEEPS2_ET0_T_SB_SA_
FN:113,_ZSt16__do_uninit_copyIPK12MaterialNamePS0_ET0_T_S5_S4_
FN:113,_ZSt16__do_uninit_copyIN9__gnu_cxx17__normal_iteratorIPK12FunctionNameSt6vectorIS2_SaIS2_EEEEPS2_ET0_T_SB_SA_
FN:113,_ZSt16__do_uninit_copyIP21NonlinearVariableNameS1_ET0_T_S3_S2_
FN:113,_ZSt16__do_uninit_copyIPKSt4pairIbN11MetaPhysicL10DualNumberIdNS1_28SemiDynamicSparseNumberArrayIdmNS1_8NWrapperILm64EEEEELb1EEEEPS8_ET0_T_SD_SC_
FN:113,_ZSt16__do_uninit_copyIN9__gnu_cxx17__normal_iteratorIPK12MaterialNameSt6vectorIS2_SaIS2_EEEEPS2_ET0_T_SB_SA_
FN:113,_ZSt16__do_uninit_copyISt13move_iteratorIPSt4pairIbN11MetaPhysicL10DualNumberIdNS2_28SemiDynamicSparseNumberArrayIdmNS2_8NWrapperILm64EEEEELb1EEEEESA_ET0_T_SD_SC_
FN:113,_ZSt16__do_uninit_copyIN9__gnu_cxx17__normal_iteratorIPK12BoundaryNameSt6vectorIS2_SaIS2_EEEEPS2_ET0_T_SB_SA_
FN:113,_ZSt16__do_uninit_copyIP12MaterialNameS1_ET0_T_S3_S2_
FN:113,_ZSt16__do_uninit_copyIP12BoundaryNameS1_ET0_T_S3_S2_
FN:113,_ZSt16__do_uninit_copyIPK12FunctionNamePS0_ET0_T_S5_S4_
FN:163,_ZSt18uninitialized_copyISt13move_iteratorIPSt4pairIbN11MetaPhysicL10DualNumberIdNS2_28SemiDynamicSparseNumberArrayIdmNS2_8NWrapperILm64EEEEELb1EEEEESA_ET0_T_SD_SC_
FN:163,_ZSt18uninitialized_copyIN9__gnu_cxx17__normal_iteratorIPK12FunctionNameSt6vectorIS2_SaIS2_EEEEPS2_ET0_T_SB_SA_
FN:163,_ZSt18uninitialized_copyIN9__gnu_cxx17__normal_iteratorIPK21NonlinearVariableNameSt6vectorIS2_SaIS2_EEEEPS2_ET0_T_SB_SA_
FN:163,_ZSt18uninitialized_copyIN9__gnu_cxx17__normal_iteratorIPK12BoundaryNameSt6vectorIS2_SaIS2_EEEEPS2_ET0_T_SB_SA_
FN:163,_ZSt18uninitialized_copyIN9__gnu_cxx17__normal_iteratorIPK12MaterialNameSt6vectorIS2_SaIS2_EEEEPS2_ET0_T_SB_SA_
FN:261,_ZSt18__do_uninit_fill_nIPSt4pairIbN11MetaPhysicL10DualNumberIdNS1_28SemiDynamicSparseNumberArrayIdmNS1_8NWrapperILm64EEEEELb1EEEEmS8_ET_SA_T0_RKT1_
FN:655,_ZNSt27__uninitialized_default_n_1ILb1EE18__uninit_default_nIPPK10MooseArrayIN7libMesh11VectorValueIdEEEmEET_SA_T0_
FN:655,_ZNSt27__uninitialized_default_n_1ILb1EE18__uninit_default_nIPPK8FunctionmEET_S6_T0_
FN:655,_ZNSt27__uninitialized_default_n_1ILb1EE18__uninit_default_nIPPK10MooseArrayIN7libMesh11VectorValueIN11MetaPhysicL10DualNumberIdNS5_28SemiDynamicSparseNumberArrayIdmNS5_8NWrapperILm64EEEEELb1EEEEEEmEET_SH_T0_
FN:1078,_ZSt14__relocate_a_1IPSt6vectorISt4pairIbdESaIS2_EES5_SaIS4_EET0_T_S8_S7_RT1_
FN:1078,_ZSt14__relocate_a_1IPSt6vectorISt4pairIbN11MetaPhysicL10DualNumberIdNS2_28SemiDynamicSparseNumberArrayIdmNS2_8NWrapperILm64EEEEELb1EEEESaIS9_EESC_SaISB_EET0_T_SF_SE_RT1_
FNDA:33,_ZNSt27__uninitialized_default_n_1ILb1EE18__uninit_default_nIPPK10MooseArrayIN7libMesh11VectorValueIN11MetaPhysicL10DualNumberIdNS5_28SemiDynamicSparseNumberArrayIdmNS5_8NWrapperILm64EEEEELb1EEEEEEmEET_SH_T0_
FNDA:0,_ZSt16__do_uninit_copyIP21NonlinearVariableNameS1_ET0_T_S3_S2_
FNDA:0,_ZSt18uninitialized_copyIN9__gnu_cxx17__normal_iteratorIPK12BoundaryNameSt6vectorIS2_SaIS2_EEEEPS2_ET0_T_SB_SA_
FNDA:7,_ZSt18uninitialized_copyIN9__gnu_cxx17__normal_iteratorIPK21NonlinearVariableNameSt6vectorIS2_SaIS2_EEEEPS2_ET0_T_SB_SA_
FNDA:0,_ZSt18__do_uninit_fill_nIPSt4pairIbN11MetaPhysicL10DualNumberIdNS1_28SemiDynamicSparseNumberArrayIdmNS1_8NWrapperILm64EEEEELb1EEEEmS8_ET_SA_T0_RKT1_
FNDA:0,_ZSt14__relocate_a_1IPSt6vectorISt4pairIbN11MetaPhysicL10DualNumberIdNS2_28SemiDynamicSparseNumberArrayIdmNS2_8NWrapperILm64EEEEELb1EEEESaIS9_EESC_SaISB_EET0_T_SF_SE_RT1_
FNDA:0,_ZSt16__do_uninit_copyIPKSt4pairIbN11MetaPhysicL10DualNumberIdNS1_28SemiDynamicSparseNumberArrayIdmNS1_8NWrapperILm64EEEEELb1EEEEPS8_ET0_T_SD_SC_
FNDA:30,_ZSt18uninitialized_copyIN9__gnu_cxx17__normal_iteratorIPK12MaterialNameSt6vectorIS2_SaIS2_EEEEPS2_ET0_T_SB_SA_
FNDA:0,_ZSt16__do_uninit_copyIN9__gnu_cxx17__normal_iteratorIPK12MaterialNameSt6vectorIS2_SaIS2_EEEEPS2_ET0_T_SB_SA_
FNDA:0,_ZSt16__do_uninit_copyIN9__gnu_cxx17__normal_iteratorIPK12BoundaryNameSt6vectorIS2_SaIS2_EEEEPS2_ET0_T_SB_SA_
FNDA:0,_ZSt16__do_uninit_copyISt13move_iteratorIPSt4pairIbN11MetaPhysicL10DualNumberIdNS2_28SemiDynamicSparseNumberArrayIdmNS2_8NWrapperILm64EEEEELb1EEEEESA_ET0_T_SD_SC_
FNDA:0,_ZSt16__do_uninit_copyIP12BoundaryNameS1_ET0_T_S3_S2_
FNDA:0,_ZSt16__do_uninit_copyIP12MaterialNameS1_ET0_T_S3_S2_
FNDA:172,_ZSt16__do_uninit_copyIPK12FunctionNamePS0_ET0_T_S5_S4_
FNDA:0,_ZSt14__relocate_a_1IPSt6vectorISt4pairIbdESaIS2_EES5_SaIS4_EET0_T_S8_S7_RT1_
FNDA:0,_ZSt18uninitialized_copyISt13move_iteratorIPSt4pairIbN11MetaPhysicL10DualNumberIdNS2_28SemiDynamicSparseNumberArrayIdmNS2_8NWrapperILm64EEEEELb1EEEEESA_ET0_T_SD_SC_
FNDA:33,_ZNSt27__uninitialized_default_n_1ILb1EE18__uninit_default_nIPPK10MooseArrayIN7libMesh11VectorValueIdEEEmEET_SA_T0_
FNDA:0,_ZSt16__do_uninit_copyIPKNSt7__cxx1112basic_stringIcSt11char_traitsIcESaIcEEEPS5_ET0_T_SA_S9_
FNDA:0,_ZSt16__do_uninit_copyIN9__gnu_cxx17__normal_iteratorIPK21NonlinearVariableNameSt6vectorIS2_SaIS2_EEEEPS2_ET0_T_SB_SA_
FNDA:0,_ZSt16__do_uninit_copyIP12FunctionNameS1_ET0_T_S3_S2_
FNDA:30,_ZSt18uninitialized_copyIN9__gnu_cxx17__normal_iteratorIPK12FunctionNameSt6vectorIS2_SaIS2_EEEEPS2_ET0_T_SB_SA_
FNDA:0,_ZNSt27__uninitialized_default_n_1ILb1EE18__uninit_default_nIPPK8FunctionmEET_S6_T0_
FNDA:172,_ZSt16__do_uninit_copyIPK12MaterialNamePS0_ET0_T_S5_S4_
FNDA:0,_ZSt16__do_uninit_copyIN9__gnu_cxx17__normal_iteratorIPK12FunctionNameSt6vectorIS2_SaIS2_EEEEPS2_ET0_T_SB_SA_
FNF:24
FNH:7
DA:113,344
DA:119,344
DA:121,344
DA:123,0
DA:126,0
DA:137,344
DA:163,67
DA:185,67
DA:261,0
DA:266,0
DA:268,0
DA:284,0
DA:372,67
DA:382,0
DA:637,0
DA:655,66
DA:657,66
DA:662,66
DA:663,66
DA:665,66
DA:701,66
DA:1078,0
DA:1091,0
DA:1094,0
DA:1104,12
DA:1105,12
DA:1117,0
DA:1119,12
DA:1133,0
LF:29
LH:16
end_of_record
TN:
SF:/usr/share/miniconda3/envs/moose/lib/gcc/x86_64-conda-linux-gnu/12.3.0/include/c++/bits/stl_vector.h
FN:364,_ZNSt12_Vector_baseI13SubdomainNameSaIS0_EED2Ev
FN:364,_ZNSt12_Vector_baseI21NonlinearVariableNameSaIS0_EED2Ev
FN:364,_ZNSt12_Vector_baseISt10unique_ptrIN5Moose15FunctorEnvelopeIN11MetaPhysicL10DualNumberIdNS3_28SemiDynamicSparseNumberArrayIdmNS3_8NWrapperILm64EEEEELb1EEEEESt14default_deleteISA_EESaISD_EED2Ev
FN:364,_ZNSt12_Vector_baseISt10unique_ptrI33OptionalMaterialPropertyProxyBaseI25MaterialPropertyInterfaceESt14default_deleteIS3_EESaIS6_EED2Ev
FN:364,_ZNSt12_Vector_baseISt5tupleIJNSt7__cxx1112basic_stringIcSt11char_traitsIcESaIcEEEN5Moose23RelationshipManagerTypeESt8functionIFvRK15InputParametersRSA_EEEESaISG_EED2Ev
FN:364,_ZNSt12_Vector_baseIP15MooseVariableFEIN7libMesh11VectorValueIdEEESaIS5_EED2Ev
FN:364,_ZNSt12_Vector_baseINSt7__cxx1112basic_stringIcSt11char_traitsIcESaIcEEESaIS5_EED2Ev
FN:364,_ZNSt12_Vector_baseIiSaIiEED2Ev
FN:364,_ZNSt12_Vector_baseIP15MooseVariableFEIN5Eigen6MatrixIdLin1ELi1ELi0ELin1ELi1EEEESaIS5_EED2Ev
FN:364,_ZNSt12_Vector_baseIP15MooseVariableFEIdESaIS2_EED2Ev
FN:364,_ZNSt12_Vector_baseIP21MooseLinearVariableFVIdESaIS2_EED2Ev
FN:364,_ZNSt12_Vector_baseI12MaterialNameSaIS0_EED2Ev
FN:364,_ZNSt12_Vector_baseISt6vectorISt4pairIhhESaIS2_EESaIS4_EED2Ev
FN:364,_ZNSt12_Vector_baseIN11MetaPhysicL10DualNumberIdNS0_28SemiDynamicSparseNumberArrayIdmNS0_8NWrapperILm64EEEEELb1EEESaIS6_EED2Ev
FN:364,_ZNSt12_Vector_baseISt10unique_ptrI33OptionalMaterialPropertyProxyBaseI8MaterialESt14default_deleteIS3_EESaIS6_EED2Ev
FN:364,_ZNSt12_Vector_baseIdSaIdEED2Ev
FN:364,_ZNSt12_Vector_baseISt6vectorIS0_IaSaIaEESaIS2_EESaIS4_EED2Ev
FN:364,_ZNSt12_Vector_baseIP19MooseVariableScalarSaIS1_EED2Ev
FN:364,_ZNSt12_Vector_baseISt6vectorISt4pairIbN11MetaPhysicL10DualNumberIdNS2_28SemiDynamicSparseNumberArrayIdmNS2_8NWrapperILm64EEEEELb1EEEESaIS9_EESaISB_EED2Ev
FN:364,_ZNSt12_Vector_baseI12BoundaryNameSaIS0_EED2Ev
FN:364,_ZNSt12_Vector_baseISt6vectorIS0_ISt4pairIhhESaIS2_EESaIS4_EESaIS6_EED2Ev
FN:364,_ZNSt12_Vector_baseI12FunctionNameSaIS0_EED2Ev
FN:364,_ZNSt12_Vector_baseIPK8FunctionSaIS2_EED2Ev
FN:364,_ZNSt12_Vector_baseItSaItEED2Ev
FN:364,_ZNSt12_Vector_baseIP15MooseVariableFVIdESaIS2_EED2Ev
FN:364,_ZNSt12_Vector_baseISt10unique_ptrI13PropertyValueSt14default_deleteIS1_EESaIS4_EED2Ev
FN:364,_ZNSt12_Vector_baseIjSaIjEED2Ev
FN:364,_ZNSt12_Vector_baseISt4pairIbdESaIS1_EED2Ev
FN:364,_ZNSt12_Vector_baseISt4pairIbN11MetaPhysicL10DualNumberIdNS1_28SemiDynamicSparseNumberArrayIdmNS1_8NWrapperILm64EEEEELb1EEEESaIS8_EED2Ev
FN:364,_ZNSt12_Vector_baseISt6vectorIaSaIaEESaIS2_EED2Ev
FN:364,_ZNSt12_Vector_baseIP22MooseVariableFieldBaseSaIS1_EED2Ev
FN:364,_ZNSt12_Vector_baseIPK10MooseArrayIN7libMesh11VectorValueIdEEESaIS6_EED2Ev
FN:364,_ZNSt12_Vector_baseI15AuxVariableNameSaIS0_EED2Ev
FN:364,_ZNSt12_Vector_baseIP21BVInelasticUpdateBaseSaIS1_EED2Ev
FN:364,_ZNSt12_Vector_baseISt6vectorISt4pairIbdESaIS2_EESaIS4_EED2Ev
FN:364,_ZNSt12_Vector_baseISt3setIP18MooseVariableFieldIdESt4lessIS3_ESaIS3_EESaIS7_EED2Ev
FN:364,_ZNSt12_Vector_baseISt10shared_ptrI17RegistryEntryBaseESaIS2_EED2Ev
FN:364,_ZNSt12_Vector_baseISt10unique_ptrI10MooseArrayIdESt14default_deleteIS2_EESaIS5_EED2Ev
FN:364,_ZNSt12_Vector_baseISt6vectorIS0_IS0_ISt4pairIhhESaIS2_EESaIS4_EESaIS6_EESaIS8_EED2Ev
FN:364,_ZNSt12_Vector_baseIaSaIaEED2Ev
FN:364,_ZNSt12_Vector_baseIPK10MooseArrayIN7libMesh11VectorValueIN11MetaPhysicL10DualNumberIdNS3_28SemiDynamicSparseNumberArrayIdmNS3_8NWrapperILm64EEEEELb1EEEEEESaISD_EED2Ev
FN:364,_ZNSt12_Vector_baseISt4pairIhhESaIS1_EED2Ev
FN:364,_ZNSt12_Vector_baseImSaImEED2Ev
FN:364,_ZNSt12_Vector_baseISt10unique_ptrIN5Moose15FunctorEnvelopeIdEESt14default_deleteIS3_EESaIS6_EED2Ev
FN:393,_ZNSt12_Vector_baseI21NonlinearVariableNameSaIS0_EE17_M_create_storageEm
FN:393,_ZNSt12_Vector_baseIdSaIdEE17_M_create_storageEm
FN:393,_ZNSt12_Vector_baseI12FunctionNameSaIS0_EE17_M_create_storageEm
FN:393,_ZNSt12_Vector_baseIPK10MooseArrayIN7libMesh11VectorValueIdEEESaIS6_EE17_M_create_storageEm
FN:393,_ZNSt12_Vector_baseI12MaterialNameSaIS0_EE17_M_create_storageEm
FN:393,_ZNSt12_Vector_baseIPK10MooseArrayIN7libMesh11VectorValueIN11MetaPhysicL10DualNumberIdNS3_28SemiDynamicSparseNumberArrayIdmNS3_8NWrapperILm64EEEEELb1EEEEEESaISD_EE17_M_create_storageEm
FN:499,_ZNSt6vectorISt10unique_ptrI13PropertyValueSt14default_deleteIS1_EESaIS4_EE11_S_relocateEPS4_S7_S7_RS5_
FN:551,_ZNSt6vectorIPK10MooseArrayIN7libMesh11VectorValueIdEEESaIS6_EEC2EmRKS7_
FN:551,_ZNSt6vectorIPK10MooseArrayIN7libMesh11VectorValueIN11MetaPhysicL10DualNumberIdNS3_28SemiDynamicSparseNumberArrayIdmNS3_8NWrapperILm64EEEEELb1EEEEEESaISD_EEC2EmRKSE_
FN:564,_ZNSt6vectorIdSaIdEEC2EmRKdRKS0_
FN:596,_ZNSt6vectorI12FunctionNameSaIS0_EEC2ERKS2_
FN:596,_ZNSt6vectorI21NonlinearVariableNameSaIS0_EEC2ERKS2_
FN:596,_ZNSt6vectorI12MaterialNameSaIS0_EEC2ERKS2_
FN:673,_ZNSt6vectorI12FunctionNameSaIS0_EEC2ESt16initializer_listIS0_ERKS1_
FN:673,_ZNSt6vectorINSt7__cxx1112basic_stringIcSt11char_traitsIcESaIcEEESaIS5_EEC2ESt16initializer_listIS5_ERKS6_
FN:673,_ZNSt6vectorIdSaIdEEC2ESt16initializer_listIdERKS0_
FN:673,_ZNSt6vectorI12MaterialNameSaIS0_EEC2ESt16initializer_listIS0_ERKS1_
FN:728,_ZNSt6vectorIS_ISt4pairIbN11MetaPhysicL10DualNumberIdNS1_28SemiDynamicSparseNumberArrayIdmNS1_8NWrapperILm64EEEEELb1EEEESaIS8_EESaISA_EED2Ev
FN:728,_ZNSt6vectorISt3setIP18MooseVariableFieldIdESt4lessIS3_ESaIS3_EESaIS7_EED2Ev
FN:728,_ZNSt6vectorIS_IaSaIaEESaIS1_EED2Ev
FN:728,_ZNSt6vectorI13SubdomainNameSaIS0_EED2Ev
FN:728,_ZNSt6vectorISt10unique_ptrI33OptionalMaterialPropertyProxyBaseI25MaterialPropertyInterfaceESt14default_deleteIS3_EESaIS6_EED2Ev
FN:728,_ZNSt6vectorIS_IS_IS_ISt4pairIhhESaIS1_EESaIS3_EESaIS5_EESaIS7_EED2Ev
FN:728,_ZNSt6vectorISt5tupleIJNSt7__cxx1112basic_stringIcSt11char_traitsIcESaIcEEEN5Moose23RelationshipManagerTypeESt8functionIFvRK15InputParametersRSA_EEEESaISG_EED2Ev
FN:728,_ZNSt6vectorISt10shared_ptrI17RegistryEntryBaseESaIS2_EED2Ev
FN:728,_ZNSt6vectorI12FunctionNameSaIS0_EED2Ev
FN:728,_ZNSt6vectorIS_IS_IaSaIaEESaIS1_EESaIS3_EED2Ev
FN:728,_ZNSt6vectorI12MaterialNameSaIS0_EED2Ev
FN:728,_ZNSt6vectorISt10unique_ptrIN5Moose15FunctorEnvelopeIN11MetaPhysicL10DualNumberIdNS3_28SemiDynamicSparseNumberArrayIdmNS3_8NWrapperILm64EEEEELb1EEEEESt14default_deleteISA_EESaISD_EED2Ev
FN:728,_ZNSt6vectorI15AuxVariableNameSaIS0_EED2Ev
FN:728,_ZNSt6vectorIS_ISt4pairIbdESaIS1_EESaIS3_EED2Ev
FN:728,_ZNSt6vectorIS_ISt4pairIhhESaIS1_EESaIS3_EED2Ev
FN:728,_ZNSt6vectorISt10unique_ptrI13PropertyValueSt14default_deleteIS1_EESaIS4_EED2Ev
FN:728,_ZNSt6vectorISt10unique_ptrI10MooseArrayIdESt14default_deleteIS2_EESaIS5_EED2Ev
FN:728,_ZNSt6vectorIS_IS_ISt4pairIhhESaIS1_EESaIS3_EESaIS5_EED2Ev
FN:728,_ZNSt6vectorINSt7__cxx1112basic_stringIcSt11char_traitsIcESaIcEEESaIS5_EED2Ev
FN:728,_ZNSt6vectorISt10unique_ptrIN5Moose15FunctorEnvelopeIdEESt14default_deleteIS3_EESaIS6_EED2Ev
FN:728,_ZNSt6vectorISt10unique_ptrI33OptionalMaterialPropertyProxyBaseI8MaterialESt14default_deleteIS3_EESaIS6_EED2Ev
FN:728,_ZNSt6vectorI12BoundaryNameSaIS0_EED2Ev
FN:728,_ZNSt6vectorI21NonlinearVariableNameSaIS0_EED2Ev
FN:1008,_ZNSt6vectorISt10unique_ptrI13PropertyValueSt14default_deleteIS1_EESaIS4_EE6resizeEm
FN:1008,_ZNSt6vectorIS_ISt4pairIbdESaIS1_EESaIS3_EE6resizeEm
FN:1008,_ZNSt6vectorIS_ISt4pairIbN11MetaPhysicL10DualNumberIdNS1_28SemiDynamicSparseNumberArrayIdmNS1_8NWrapperILm64EEEEELb1EEEESaIS8_EESaISA_EE6resizeEm
FN:1008,_ZNSt6vectorIPK8FunctionSaIS2_EE6resizeEm
FN:1029,_ZNSt6vectorISt4pairIbdESaIS1_EE6resizeEmRKS1_
FN:1029,_ZNSt6vectorISt4pairIbN11MetaPhysicL10DualNumberIdNS1_28SemiDynamicSparseNumberArrayIdmNS1_8NWrapperILm64EEEEELb1EEEESaIS8_EE6resizeEmRKS8_
FN:1276,_ZNSt6vectorIP21BVInelasticUpdateBaseSaIS1_EE9push_backERKS1_
FN:1611,_ZNSt6vectorI21NonlinearVariableNameSaIS0_EE20_M_allocate_and_copyIN9__gnu_cxx17__normal_iteratorIPKS0_S2_EEEEPS0_mT_SA_
FN:1611,_ZNSt6vectorI12FunctionNameSaIS0_EE20_M_allocate_and_copyIN9__gnu_cxx17__normal_iteratorIPKS0_S2_EEEEPS0_mT_SA_
FN:1611,_ZNSt6vectorI12MaterialNameSaIS0_EE20_M_allocate_and_copyIN9__gnu_cxx17__normal_iteratorIPKS0_S2_EEEEPS0_mT_SA_
FN:1611,_ZNSt6vectorI12BoundaryNameSaIS0_EE20_M_allocate_and_copyIN9__gnu_cxx17__normal_iteratorIPKS0_S2_EEEEPS0_mT_SA_
FN:1682,_ZNSt6vectorI12FunctionNameSaIS0_EE19_M_range_initializeIPKS0_EEvT_S6_St20forward_iterator_tag
FN:1682,_ZNSt6vectorINSt7__cxx1112basic_stringIcSt11char_traitsIcESaIcEEESaIS5_EE19_M_range_initializeIPKS5_EEvT_SB_St20forward_iterator_tag
FN:1682,_ZNSt6vectorI12MaterialNameSaIS0_EE19_M_range_initializeIPKS0_EEvT_S6_St20forward_iterator_tag
FN:1682,_ZNSt6vectorIdSaIdEE19_M_range_initializeIPKdEEvT_S5_St20forward_iterator_tag
FN:1891,_ZNKSt6vectorISt10unique_ptrI13PropertyValueSt14default_deleteIS1_EESaIS4_EE12_M_check_lenEmPKc
FN:1891,_ZNKSt6vectorIS_ISt4pairIbdESaIS1_EESaIS3_EE12_M_check_lenEmPKc
FN:1891,_ZNKSt6vectorIP21BVInelasticUpdateBaseSaIS1_EE12_M_check_lenEmPKc
FN:1891,_ZNKSt6vectorIS_ISt4pairIbN11MetaPhysicL10DualNumberIdNS1_28SemiDynamicSparseNumberArrayIdmNS1_8NWrapperILm64EEEEELb1EEEESaIS8_EESaISA_EE12_M_check_lenEmPKc
FN:1891,_ZNKSt6vectorISt4pairIbdESaIS1_EE12_M_check_lenEmPKc
FN:1891,_ZNKSt6vectorIPK8FunctionSaIS2_EE12_M_check_lenEmPKc
FN:1891,_ZNKSt6vectorISt10shared_ptrI17RegistryEntryBaseESaIS2_EE12_M_check_lenEmPKc
FN:1891,_ZNKSt6vectorISt4pairIbN11MetaPhysicL10DualNumberIdNS1_28SemiDynamicSparseNumberArrayIdmNS1_8NWrapperILm64EEEEELb1EEEESaIS8_EE12_M_check_lenEmPKc
FN:1928,_ZNSt6vectorIS_ISt4pairIbdESaIS1_EESaIS3_EE15_M_erase_at_endEPS3_
FN:1928,_ZNSt6vectorISt10unique_ptrI13PropertyValueSt14default_deleteIS1_EESaIS4_EE15_M_erase_at_endEPS4_
FN:1928,_ZNSt6vectorIS_ISt4pairIbN11MetaPhysicL10DualNumberIdNS1_28SemiDynamicSparseNumberArrayIdmNS1_8NWrapperILm64EEEEELb1EEEESaIS8_EESaISA_EE15_M_erase_at_endEPSA_
FNDA:0,_ZNSt12_Vector_baseISt6vectorIS0_IS0_ISt4pairIhhESaIS2_EESaIS4_EESaIS6_EESaIS8_EED2Ev
FNDA:0,_ZNKSt6vectorISt4pairIbdESaIS1_EE12_M_check_lenEmPKc
FNDA:40,_ZNSt6vectorINSt7__cxx1112basic_stringIcSt11char_traitsIcESaIcEEESaIS5_EED2Ev
FNDA:0,_ZNSt6vectorISt10unique_ptrI13PropertyValueSt14default_deleteIS1_EESaIS4_EE15_M_erase_at_endEPS4_
FNDA:0,_ZNSt6vectorINSt7__cxx1112basic_stringIcSt11char_traitsIcESaIcEEESaIS5_EEC2ESt16initializer_listIS5_ERKS6_
FNDA:30,_ZNSt12_Vector_baseI12MaterialNameSaIS0_EE17_M_create_storageEm
FNDA:0,_ZNKSt6vectorIPK8FunctionSaIS2_EE12_M_check_lenEmPKc
FNDA:206,_ZNSt6vectorISt10unique_ptrIN5Moose15FunctorEnvelopeIdEESt14default_deleteIS3_EESaIS6_EED2Ev
FNDA:0,_ZNSt12_Vector_baseIaSaIaEED2Ev
FNDA:33,_ZNSt12_Vector_baseIPK10MooseArrayIN7libMesh11VectorValueIN11MetaPhysicL10DualNumberIdNS3_28SemiDynamicSparseNumberArrayIdmNS3_8NWrapperILm64EEEEELb1EEEEEESaISD_EE17_M_create_storageEm
FNDA:0,_ZNSt6vectorIS_ISt4pairIbN11MetaPhysicL10DualNumberIdNS1_28SemiDynamicSparseNumberArrayIdmNS1_8NWrapperILm64EEEEELb1EEEESaIS8_EESaISA_EE15_M_erase_at_endEPSA_
FNDA:172,_ZNSt6vectorI12MaterialNameSaIS0_EE19_M_range_initializeIPKS0_EEvT_S6_St20forward_iterator_tag
FNDA:30,_ZNSt12_Vector_baseIPK10MooseArrayIN7libMesh11VectorValueIN11MetaPhysicL10DualNumberIdNS3_28SemiDynamicSparseNumberArrayIdmNS3_8NWrapperILm64EEEEELb1EEEEEESaISD_EED2Ev
FNDA:30,_ZNSt6vectorI12MaterialNameSaIS0_EEC2ERKS2_
FNDA:0,_ZNSt6vectorI12BoundaryNameSaIS0_EE20_M_allocate_and_copyIN9__gnu_cxx17__normal_iteratorIPKS0_S2_EEEEPS0_mT_SA_
FNDA:0,_ZNSt6vectorIS_ISt4pairIbN11MetaPhysicL10DualNumberIdNS1_28SemiDynamicSparseNumberArrayIdmNS1_8NWrapperILm64EEEEELb1EEEESaIS8_EESaISA_EE6resizeEm
FNDA:138,_ZNSt6vectorISt10unique_ptrI33OptionalMaterialPropertyProxyBaseI8MaterialESt14default_deleteIS3_EESaIS6_EED2Ev
FNDA:11,_ZNSt6vectorIdSaIdEEC2ESt16initializer_listIdERKS0_
FNDA:0,_ZNKSt6vectorISt4pairIbN11MetaPhysicL10DualNumberIdNS1_28SemiDynamicSparseNumberArrayIdmNS1_8NWrapperILm64EEEEELb1EEEESaIS8_EE12_M_check_lenEmPKc
FNDA:12,_ZNSt6vectorIPK8FunctionSaIS2_EE6resizeEm
FNDA:0,_ZNSt6vectorI12BoundaryNameSaIS0_EED2Ev
FNDA:0,_ZNKSt6vectorISt10shared_ptrI17RegistryEntryBaseESaIS2_EE12_M_check_lenEmPKc
FNDA:172,_ZNSt6vectorI12MaterialNameSaIS0_EEC2ESt16initializer_listIS0_ERKS1_
FNDA:0,_ZNSt12_Vector_baseISt4pairIhhESaIS1_EED2Ev
FNDA:11,_ZNSt6vectorIdSaIdEE19_M_range_initializeIPKdEEvT_S5_St20forward_iterator_tag
FNDA:7,_ZNSt6vectorI21NonlinearVariableNameSaIS0_EED2Ev
FNDA:206,_ZNSt12_Vector_baseISt10unique_ptrIN5Moose15FunctorEnvelopeIdEESt14default_deleteIS3_EESaIS6_EED2Ev
FNDA:226,_ZNSt12_Vector_baseImSaImEED2Ev
FNDA:30,_ZNSt12_Vector_baseI12FunctionNameSaIS0_EE17_M_create_storageEm
FNDA:33,_ZNSt12_Vector_baseIPK10MooseArrayIN7libMesh11VectorValueIdEEESaIS6_EE17_M_create_storageEm
FNDA:0,_ZNSt6vectorISt4pairIbN11MetaPhysicL10DualNumberIdNS1_28SemiDynamicSparseNumberArrayIdmNS1_8NWrapperILm64EEEEELb1EEEESaIS8_EE6resizeEmRKS8_
FNDA:0,_ZNSt12_Vector_baseISt6vectorIaSaIaEESaIS2_EED2Ev
FNDA:0,_ZNSt12_Vector_baseISt4pairIbN11MetaPhysicL10DualNumberIdNS1_28SemiDynamicSparseNumberArrayIdmNS1_8NWrapperILm64EEEEELb1EEEESaIS8_EED2Ev
FNDA:0,_ZNSt6vectorIS_ISt4pairIbdESaIS1_EESaIS3_EED2Ev
FNDA:0,_ZNSt12_Vector_baseISt4pairIbdESaIS1_EED2Ev
FNDA:0,_ZNSt6vectorIS_ISt4pairIhhESaIS1_EESaIS3_EED2Ev
FNDA:338,_ZNSt12_Vector_baseIP22MooseVariableFieldBaseSaIS1_EED2Ev
FNDA:30,_ZNSt12_Vector_baseIPK10MooseArrayIN7libMesh11VectorValueIdEEESaIS6_EED2Ev
FNDA:0,_ZNSt12_Vector_baseISt10shared_ptrI17RegistryEntryBaseESaIS2_EED2Ev
FNDA:0,_ZNSt12_Vector_baseISt6vectorISt4pairIbdESaIS2_EESaIS4_EED2Ev
FNDA:226,_ZNSt12_Vector_baseISt3setIP18MooseVariableFieldIdESt4lessIS3_ESaIS3_EESaIS7_EED2Ev
FNDA:0,_ZNSt6vectorIS_ISt4pairIbdESaIS1_EESaIS3_EE15_M_erase_at_endEPS3_
FNDA:0,_ZNSt6vectorI12FunctionNameSaIS0_EE20_M_allocate_and_copyIN9__gnu_cxx17__normal_iteratorIPKS0_S2_EEEEPS0_mT_SA_
FNDA:30,_ZNSt12_Vector_baseIP21BVInelasticUpdateBaseSaIS1_EED2Ev
FNDA:112,_ZNSt12_Vector_baseI15AuxVariableNameSaIS0_EED2Ev
FNDA:226,_ZNSt6vectorISt10unique_ptrI13PropertyValueSt14default_deleteIS1_EESaIS4_EED2Ev
FNDA:7,_ZNSt6vectorI21NonlinearVariableNameSaIS0_EEC2ERKS2_
FNDA:0,_ZNSt6vectorISt10unique_ptrI10MooseArrayIdESt14default_deleteIS2_EESaIS5_EED2Ev
FNDA:0,_ZNSt12_Vector_baseISt10unique_ptrI10MooseArrayIdESt14default_deleteIS2_EESaIS5_EED2Ev
FNDA:0,_ZNSt6vectorI12MaterialNameSaIS0_EE20_M_allocate_and_copyIN9__gnu_cxx17__normal_iteratorIPKS0_S2_EEEEPS0_mT_SA_
FNDA:0,_ZNKSt6vectorIS_ISt4pairIbN11MetaPhysicL10DualNumberIdNS1_28SemiDynamicSparseNumberArrayIdmNS1_8NWrapperILm64EEEEELb1EEEESaIS8_EESaISA_EE12_M_check_lenEmPKc
FNDA:0,_ZNSt6vectorIS_IS_ISt4pairIhhESaIS1_EESaIS3_EESaIS5_EED2Ev
FNDA:0,_ZNSt6vectorISt10shared_ptrI17RegistryEntryBaseESaIS2_EED2Ev
FNDA:0,_ZNSt12_Vector_baseISt6vectorISt4pairIhhESaIS2_EESaIS4_EED2Ev
FNDA:10936,_ZNSt12_Vector_baseIdSaIdEED2Ev
FNDA:202,_ZNSt6vectorI12FunctionNameSaIS0_EED2Ev
FNDA:138,_ZNSt12_Vector_baseISt10unique_ptrI33OptionalMaterialPropertyProxyBaseI8MaterialESt14default_deleteIS3_EESaIS6_EED2Ev
FNDA:36,_ZNSt12_Vector_baseIN11MetaPhysicL10DualNumberIdNS0_28SemiDynamicSparseNumberArrayIdmNS0_8NWrapperILm64EEEEELb1EEESaIS6_EED2Ev
FNDA:12,_ZNKSt6vectorIP21BVInelasticUpdateBaseSaIS1_EE12_M_check_lenEmPKc
FNDA:0,_ZNSt12_Vector_baseISt6vectorIS0_IaSaIaEESaIS2_EESaIS4_EED2Ev
FNDA:0,_ZNSt12_Vector_baseISt6vectorISt4pairIbN11MetaPhysicL10DualNumberIdNS2_28SemiDynamicSparseNumberArrayIdmNS2_8NWrapperILm64EEEEELb1EEEESaIS9_EESaISB_EED2Ev
FNDA:226,_ZNSt12_Vector_baseIP19MooseVariableScalarSaIS1_EED2Ev
FNDA:0,_ZNSt6vectorIS_IS_IaSaIaEESaIS1_EESaIS3_EED2Ev
FNDA:0,_ZNSt12_Vector_baseI12BoundaryNameSaIS0_EED2Ev
FNDA:0,_ZNSt12_Vector_baseISt6vectorIS0_ISt4pairIhhESaIS2_EESaIS4_EESaIS6_EED2Ev
FNDA:0,_ZNSt6vectorIS_ISt4pairIbdESaIS1_EESaIS3_EE6resizeEm
FNDA:202,_ZNSt12_Vector_baseI12FunctionNameSaIS0_EED2Ev
FNDA:0,_ZNSt6vectorINSt7__cxx1112basic_stringIcSt11char_traitsIcESaIcEEESaIS5_EE19_M_range_initializeIPKS5_EEvT_SB_St20forward_iterator_tag
FNDA:33,_ZNSt6vectorIPK10MooseArrayIN7libMesh11VectorValueIN11MetaPhysicL10DualNumberIdNS3_28SemiDynamicSparseNumberArrayIdmNS3_8NWrapperILm64EEEEELb1EEEEEESaISD_EEC2EmRKSE_
FNDA:30,_ZNSt6vectorI12FunctionNameSaIS0_EEC2ERKS2_
FNDA:30,_ZNSt12_Vector_baseIPK8FunctionSaIS2_EED2Ev
FNDA:112,_ZNSt6vectorI15AuxVariableNameSaIS0_EED2Ev
FNDA:206,_ZNSt6vectorISt10unique_ptrIN5Moose15FunctorEnvelopeIN11MetaPhysicL10DualNumberIdNS3_28SemiDynamicSparseNumberArrayIdmNS3_8NWrapperILm64EEEEELb1EEEEESt14default_deleteISA_EESaISD_EED2Ev
FNDA:202,_ZNSt6vectorI12MaterialNameSaIS0_EED2Ev
FNDA:174,_ZNSt12_Vector_baseIjSaIjEED2Ev
FNDA:12,_ZNSt6vectorIP21BVInelasticUpdateBaseSaIS1_EE9push_backERKS1_
FNDA:226,_ZNSt12_Vector_baseIP15MooseVariableFVIdESaIS2_EED2Ev
FNDA:226,_ZNSt12_Vector_baseISt10unique_ptrI13PropertyValueSt14default_deleteIS1_EESaIS4_EED2Ev
FNDA:206,_ZNSt12_Vector_baseItSaItEED2Ev
FNDA:172,_ZNSt6vectorI12FunctionNameSaIS0_EE19_M_range_initializeIPKS0_EEvT_S6_St20forward_iterator_tag
FNDA:0,_ZNSt6vectorISt10unique_ptrI13PropertyValueSt14default_deleteIS1_EESaIS4_EE6resizeEm
FNDA:7,_ZNSt12_Vector_baseI21NonlinearVariableNameSaIS0_EED2Ev
FNDA:0,_ZNSt6vectorIS_ISt4pairIbN11MetaPhysicL10DualNumberIdNS1_28SemiDynamicSparseNumberArrayIdmNS1_8NWrapperILm64EEEEELb1EEEESaIS8_EESaISA_EED2Ev
FNDA:206,_ZNSt12_Vector_baseI13SubdomainNameSaIS0_EED2Ev
FNDA:7,_ZNSt12_Vector_baseI21NonlinearVariableNameSaIS0_EE17_M_create_storageEm
FNDA:226,_ZNSt6vectorISt3setIP18MooseVariableFieldIdESt4lessIS3_ESaIS3_EESaIS7_EED2Ev
FNDA:206,_ZNSt12_Vector_baseISt10unique_ptrIN5Moose15FunctorEnvelopeIN11MetaPhysicL10DualNumberIdNS3_28SemiDynamicSparseNumberArrayIdmNS3_8NWrapperILm64EEEEELb1EEEEESt14default_deleteISA_EESaISD_EED2Ev
FNDA:0,_ZNSt6vectorISt4pairIbdESaIS1_EE6resizeEmRKS1_
FNDA:206,_ZNSt6vectorI13SubdomainNameSaIS0_EED2Ev
FNDA:20,_ZNSt12_Vector_baseISt5tupleIJNSt7__cxx1112basic_stringIcSt11char_traitsIcESaIcEEEN5Moose23RelationshipManagerTypeESt8functionIFvRK15InputParametersRSA_EEEESaISG_EED2Ev
FNDA:226,_ZNSt12_Vector_baseIP15MooseVariableFEIN7libMesh11VectorValueIdEEESaIS5_EED2Ev
FNDA:226,_ZNSt12_Vector_baseISt10unique_ptrI33OptionalMaterialPropertyProxyBaseI25MaterialPropertyInterfaceESt14default_deleteIS3_EESaIS6_EED2Ev
FNDA:0,_ZNSt6vectorIS_IaSaIaEESaIS1_EED2Ev
FNDA:172,_ZNSt6vectorI12FunctionNameSaIS0_EEC2ESt16initializer_listIS0_ERKS1_
FNDA:40,_ZNSt12_Vector_baseINSt7__cxx1112basic_stringIcSt11char_traitsIcESaIcEEESaIS5_EED2Ev
FNDA:10112,_ZNSt6vectorIdSaIdEEC2EmRKdRKS0_
FNDA:226,_ZNSt6vectorISt10unique_ptrI33OptionalMaterialPropertyProxyBaseI25MaterialPropertyInterfaceESt14default_deleteIS3_EESaIS6_EED2Ev
FNDA:10112,_ZNSt12_Vector_baseIdSaIdEE17_M_create_storageEm
FNDA:0,_ZNSt6vectorI21NonlinearVariableNameSaIS0_EE20_M_allocate_and_copyIN9__gnu_cxx17__normal_iteratorIPKS0_S2_EEEEPS0_mT_SA_
FNDA:28,_ZNSt12_Vector_baseIiSaIiEED2Ev
FNDA:226,_ZNSt12_Vector_baseIP15MooseVariableFEIdESaIS2_EED2Ev
FNDA:20,_ZNSt6vectorISt5tupleIJNSt7__cxx1112basic_stringIcSt11char_traitsIcESaIcEEEN5Moose23RelationshipManagerTypeESt8functionIFvRK15InputParametersRSA_EEEESaISG_EED2Ev
FNDA:0,_ZNSt6vectorIS_IS_IS_ISt4pairIhhESaIS1_EESaIS3_EESaIS5_EESaIS7_EED2Ev
FNDA:226,_ZNSt12_Vector_baseIP15MooseVariableFEIN5Eigen6MatrixIdLin1ELi1ELi0ELin1ELi1EEEESaIS5_EED2Ev
FNDA:0,_ZNKSt6vectorIS_ISt4pairIbdESaIS1_EESaIS3_EE12_M_check_lenEmPKc
FNDA:0,_ZNKSt6vectorISt10unique_ptrI13PropertyValueSt14default_deleteIS1_EESaIS4_EE12_M_check_lenEmPKc
FNDA:0,_ZNSt6vectorISt10unique_ptrI13PropertyValueSt14default_deleteIS1_EESaIS4_EE11_S_relocateEPS4_S7_S7_RS5_
FNDA:202,_ZNSt12_Vector_baseI12MaterialNameSaIS0_EED2Ev
FNDA:33,_ZNSt6vectorIPK10MooseArrayIN7libMesh11VectorValueIdEEESaIS6_EEC2EmRKS7_
FNDA:226,_ZNSt12_Vector_baseIP21MooseLinearVariableFVIdESaIS2_EED2Ev
FNF:110
FNH:64
DA:99,10704
DA:100,93
DA:105,0
DA:106,0
DA:107,0
DA:108,0
DA:299,0
DA:332,10185
DA:364,15437
DA:366,0
DA:367,15437
DA:368,15437
DA:378,10576
DA:386,15449
DA:393,10245
DA:395,10245
DA:396,10245
DA:397,10245
DA:398,10245
DA:499,0
DA:504,0
DA:551,66
DA:552,66
DA:553,66
DA:564,10112
DA:566,10112
DA:567,10112
DA:596,67
DA:598,67
DA:600,67
DA:601,67
DA:604,67
DA:673,355
DA:675,355
DA:677,355
DA:679,355
DA:728,2017
DA:730,2017
DA:733,12363
DA:988,326
DA:1008,12
DA:1010,12
DA:1011,12
DA:1012,0
DA:1013,0
DA:1014,12
DA:1029,0
DA:1031,0
DA:1032,0
DA:1033,0
DA:1034,0
DA:1035,0
DA:1074,172
DA:1075,172
DA:1124,1025898
DA:1143,9714032
DA:1276,12
DA:1278,12
DA:1283,0
DA:1287,12
DA:1288,12
DA:1294,740
DA:1611,0
DA:1617,0
DA:1619,0
DA:1621,0
DA:1624,0
DA:1682,355
DA:1685,355
DA:1687,355
DA:1688,355
DA:1689,355
DA:1693,355
DA:1701,10112
DA:1702,10112
DA:1712,66
DA:1713,66
DA:1828,0
DA:1836,0
DA:1847,0
DA:1891,12
DA:1893,12
DA:1894,0
DA:1896,12
DA:1897,12
DA:1904,10533
DA:1905,0
DA:1928,0
DA:1930,0
DA:1934,0
DA:1937,0
LF:91
LH:60
end_of_record
TN:
SF:/usr/share/miniconda3/envs/moose/lib/gcc/x86_64-conda-linux-gnu/12.3.0/include/c++/bits/unique_ptr.h
FN:89,_ZNKSt14default_deleteI10MooseArrayIN7libMesh11VectorValueIdEEEEclEPS4_
FN:89,_ZNKSt14default_deleteI10MooseArrayIdEEclEPS1_
FN:89,_ZNKSt14default_deleteI10MooseArrayIN11MetaPhysicL10DualNumberIdNS1_28SemiDynamicSparseNumberArrayIdmNS1_8NWrapperILm64EEEEELb1EEEEEclEPS8_
FN:89,_ZNKSt14default_deleteI10MooseArrayIN7libMesh11VectorValueIN11MetaPhysicL10DualNumberIdNS3_28SemiDynamicSparseNumberArrayIdmNS3_8NWrapperILm64EEEEELb1EEEEEEEclEPSB_
FN:89,_ZNKSt14default_deleteI10MooseArrayIN5Eigen6MatrixIdLin1ELi1ELi0ELin1ELi1EEEEEclEPS4_
FN:128,_ZNKSt14default_deleteIA_18RankTwoTensorTemplIdEEclIS1_EENSt9enable_ifIXsrSt14is_convertibleIPA_T_PS2_E5valueEvE4typeEPS7_
FN:128,_ZNKSt14default_deleteIA_N5Eigen6MatrixIdLin1ELi3ELi0ELin1ELi3EEEEclIS2_EENSt9enable_ifIXsrSt14is_convertibleIPA_T_PS3_E5valueEvE4typeEPS8_
FN:128,_ZNKSt14default_deleteIA_N11MetaPhysicL10DualNumberIdNS0_28SemiDynamicSparseNumberArrayIdmNS0_8NWrapperILm64EEEEELb1EEEEclIS6_EENSt9enable_ifIXsrSt14is_convertibleIPA_T_PS7_E5valueEvE4typeEPSC_
FN:128,_ZNKSt14default_deleteIA_18RankTwoTensorTemplIN11MetaPhysicL10DualNumberIdNS1_28SemiDynamicSparseNumberArrayIdmNS1_8NWrapperILm64EEEEELb1EEEEEclIS8_EENSt9enable_ifIXsrSt14is_convertibleIPA_T_PS9_E5valueEvE4typeEPSE_
FN:128,_ZNKSt14default_deleteIA_N5Eigen6MatrixIdLin1ELi1ELi0ELin1ELi1EEEEclIS2_EENSt9enable_ifIXsrSt14is_convertibleIPA_T_PS3_E5valueEvE4typeEPS8_
FN:128,_ZNKSt14default_deleteIA_N7libMesh11TensorValueIN11MetaPhysicL10DualNumberIdNS2_28SemiDynamicSparseNumberArrayIdmNS2_8NWrapperILm64EEEEELb1EEEEEEclIS9_EENSt9enable_ifIXsrSt14is_convertibleIPA_T_PSA_E5valueEvE4typeEPSF_
FN:128,_ZNKSt14default_deleteIA_N7libMesh11TensorValueIdEEEclIS2_EENSt9enable_ifIXsrSt14is_convertibleIPA_T_PS3_E5valueEvE4typeEPS8_
FN:128,_ZNKSt14default_deleteIA_N7libMesh11VectorValueIN11MetaPhysicL10DualNumberIdNS2_28SemiDynamicSparseNumberArrayIdmNS2_8NWrapperILm64EEEEELb1EEEEEEclIS9_EENSt9enable_ifIXsrSt14is_convertibleIPA_T_PSA_E5valueEvE4typeEPSF_
FN:181,_ZNSt15__uniq_ptr_implIN7libMesh10Parameters5ValueESt14default_deleteIS2_EEaSEOS5_
FN:181,_ZNSt15__uniq_ptr_implI13PropertyValueSt14default_deleteIS0_EEaSEOS3_
FN:390,_ZNSt10unique_ptrIN7libMesh10Parameters9ParameterISt6vectorI12MaterialNameSaIS4_EEEESt14default_deleteIS7_EED2Ev
FN:390,_ZNSt10unique_ptrIN7libMesh10Parameters9ParameterISt6vectorI12BoundaryNameSaIS4_EEEESt14default_deleteIS7_EED2Ev
FN:390,_ZNSt10unique_ptrI38BVFVMultiPhaseSaturationTimeDerivativeSt14default_deleteIS0_EED2Ev
FN:390,_ZNSt10unique_ptrI20BVConstantDispersionSt14default_deleteIS0_EED2Ev
FN:390,_ZNSt10unique_ptrI18BVEqvStrainRateAuxSt14default_deleteIS0_EED2Ev
FN:390,_ZNSt10unique_ptrIN7libMesh10Parameters9ParameterI21NonlinearVariableNameEESt14default_deleteIS4_EED2Ev
FN:390,_ZNSt10unique_ptrIN7libMesh10Parameters9ParameterI9MooseEnumEESt14default_deleteIS4_EED2Ev
FN:390,_ZNSt10unique_ptrI20BVStressComponentAuxSt14default_deleteIS0_EED2Ev
FN:390,_ZNSt10unique_ptrI19BVLubby2ModelUpdateSt14default_deleteIS0_EED2Ev
FN:390,_ZNSt10unique_ptrI18ADMaterialPropertyI18RankTwoTensorTemplIdEESt14default_deleteIS3_EED2Ev
FN:390,_ZNSt10unique_ptrI33OptionalMaterialPropertyProxyBaseI8MaterialESt14default_deleteIS2_EED2Ev
FN:390,_ZNSt10unique_ptrIN7libMesh10Parameters9ParameterIjEESt14default_deleteIS3_EED2Ev
FN:390,_ZNSt10unique_ptrI18BVDarcyVelocityAuxSt14default_deleteIS0_EED2Ev
FN:390,_ZNSt10unique_ptrI20BVStrainComponentAuxSt14default_deleteIS0_EED2Ev
FN:390,_ZNSt10unique_ptrI25BVSinglePhaseFlowMaterialSt14default_deleteIS0_EED2Ev
FN:390,_ZNSt10unique_ptrI16MaterialPropertyI18RankTwoTensorTemplIdEESt14default_deleteIS3_EED2Ev
FN:390,_ZNSt10unique_ptrI12BVPressureBCSt14default_deleteIS0_EED2Ev
FN:390,_ZNSt10unique_ptrIN7libMesh10Parameters9ParameterIdEESt14default_deleteIS3_EED2Ev
FN:390,_ZNSt10unique_ptrI27BVCapillaryPressurePowerLawSt14default_deleteIS0_EED2Ev
FN:390,_ZNSt10unique_ptrI23AppFactoryBuildInfoBaseSt14default_deleteIS0_EED2Ev
FN:390,_ZNSt10unique_ptrIN5Moose11FunctorBaseIN11MetaPhysicL10DualNumberIdNS2_28SemiDynamicSparseNumberArrayIdmNS2_8NWrapperILm64EEEEELb1EEEEESt14default_deleteIS9_EED2Ev
FN:390,_ZNSt10unique_ptrIN7libMesh10Parameters9ParameterIbEESt14default_deleteIS3_EED2Ev
FN:390,_ZNSt10unique_ptrIN7libMesh10Parameters9ParameterItEESt14default_deleteIS3_EED2Ev
FN:390,_ZNSt10unique_ptrIN7libMesh10Parameters9ParameterISt6vectorI21NonlinearVariableNameSaIS4_EEEESt14default_deleteIS7_EED2Ev
FN:390,_ZNSt10unique_ptrI13PropertyValueSt14default_deleteIS0_EED2Ev
FN:390,_ZNSt10unique_ptrIN5Moose11FunctorBaseIdEESt14default_deleteIS2_EED2Ev
FN:390,_ZNSt10unique_ptrIN7libMesh10Parameters9ParameterIP13FEProblemBaseEESt14default_deleteIS5_EED2Ev
FN:390,_ZNSt10unique_ptrI20BVMechanicalMaterialSt14default_deleteIS0_EED2Ev
FN:390,_ZNSt10unique_ptrI10MooseArrayIN7libMesh11VectorValueIN11MetaPhysicL10DualNumberIdNS3_28SemiDynamicSparseNumberArrayIdmNS3_8NWrapperILm64EEEEELb1EEEEEESt14default_deleteISB_EED2Ev
FN:390,_ZNSt10unique_ptrI27BVFVMultiPhasePressureDarcySt14default_deleteIS0_EED2Ev
FN:390,_ZNSt10unique_ptrI16MaterialPropertyIdESt14default_deleteIS1_EED2Ev
FN:390,_ZNSt10unique_ptrI18BVConstantPorositySt14default_deleteIS0_EED2Ev
FN:390,_ZNSt10unique_ptrIdSt14default_deleteIdEED2Ev
FN:390,_ZNSt10unique_ptrINSt13__future_base12_Result_baseENS1_8_DeleterEED2Ev
FN:390,_ZNSt10unique_ptrI18BVStressDivergenceSt14default_deleteIS0_EED2Ev
FN:390,_ZNSt10unique_ptrI33OptionalMaterialPropertyProxyBaseI25MaterialPropertyInterfaceESt14default_deleteIS2_EED2Ev
FN:390,_ZNSt10unique_ptrI17BVFluidPropertiesSt14default_deleteIS0_EED2Ev
FN:390,_ZNSt10unique_ptrI22BVConstantPermeabilitySt14default_deleteIS0_EED2Ev
FN:390,_ZNSt10unique_ptrI29BVFVSinglePhaseTimeDerivativeSt14default_deleteIS0_EED2Ev
FN:390,_ZNSt10unique_ptrI26BVKelvinViscoelasticUpdateSt14default_deleteIS0_EED2Ev
FN:390,_ZNSt10unique_ptrI16BVMisesStressAuxSt14default_deleteIS0_EED2Ev
FN:390,_ZNSt10unique_ptrI10MooseArrayIN11MetaPhysicL10DualNumberIdNS1_28SemiDynamicSparseNumberArrayIdmNS1_8NWrapperILm64EEEEELb1EEEESt14default_deleteIS8_EED2Ev
FN:390,_ZNSt10unique_ptrI18ADMaterialPropertyIdESt14default_deleteIS1_EED2Ev
FN:390,_ZNSt10unique_ptrI31BVSinglePhaseFlowSoluteMaterialSt14default_deleteIS0_EED2Ev
FN:390,_ZNSt10unique_ptrI10MooseArrayIdESt14default_deleteIS1_EED2Ev
FN:390,_ZNSt10unique_ptrIN7libMesh10Parameters9ParameterI14UserObjectNameEESt14default_deleteIS4_EED2Ev
FN:390,_ZNSt10unique_ptrI19BVBurgerModelUpdateSt14default_deleteIS0_EED2Ev
FN:390,_ZNSt10unique_ptrI20BVFVSinglePhaseDarcySt14default_deleteIS0_EED2Ev
FN:390,_ZNSt10unique_ptrI29BVFVMultiPhaseSaturationDarcySt14default_deleteIS0_EED2Ev
FN:390,_ZNSt10unique_ptrI24BVMultiPhaseFlowMaterialSt14default_deleteIS0_EED2Ev
FN:390,_ZNSt10unique_ptrI35BVFVSinglePhaseSoluteTimeDerivativeSt14default_deleteIS0_EED2Ev
FN:390,_ZNSt10unique_ptrIN7libMesh10Parameters9ParameterI12FunctionNameEESt14default_deleteIS4_EED2Ev
FN:390,_ZNSt10unique_ptrI19AppFactoryBuildInfoI9BeaverAppESt14default_deleteIS2_EED2Ev
FN:390,_ZNSt10unique_ptrIN7libMesh10Parameters5ValueESt14default_deleteIS2_EED2Ev
FN:390,_ZNSt10unique_ptrI10MooseArrayIN7libMesh11VectorValueIdEEESt14default_deleteIS4_EED2Ev
FN:390,_ZNSt10unique_ptrI27BVMaxwellViscoelasticUpdateSt14default_deleteIS0_EED2Ev
FN:390,_ZNSt10unique_ptrI10MooseArrayIN5Eigen6MatrixIdLin1ELi1ELi0ELin1ELi1EEEESt14default_deleteIS4_EED2Ev
FN:390,_ZNSt10unique_ptrI30BVRelativePermeabilityPowerLawSt14default_deleteIS0_EED2Ev
FN:390,_ZNSt10unique_ptrI18BVSinglePhaseDarcySt14default_deleteIS0_EED2Ev
FN:390,_ZNSt10unique_ptrI26BVFVSinglePhaseSoluteDarcySt14default_deleteIS0_EED2Ev
FN:390,_ZNSt10unique_ptrI23BVPoroMechanicsMaterialSt14default_deleteIS0_EED2Ev
FN:390,_ZNSt10unique_ptrIN7libMesh10Parameters9ParameterINSt7__cxx1112basic_stringIcSt11char_traitsIcESaIcEEEEESt14default_deleteIS9_EED2Ev
FN:390,_ZNSt10unique_ptrI14BVEqvStrainAuxSt14default_deleteIS0_EED2Ev
FN:390,_ZNSt10unique_ptrI36BVFVMultiPhasePressureTimeDerivativeSt14default_deleteIS0_EED2Ev
FN:390,_ZNSt10unique_ptrI27BVSinglePhaseTimeDerivativeSt14default_deleteIS0_EED2Ev
FN:390,_ZNSt10unique_ptrI17BVShearTractionBCSt14default_deleteIS0_EED2Ev
FN:390,_ZNSt10unique_ptrI13BVPressureAuxSt14default_deleteIS0_EED2Ev
FN:390,_ZNSt10unique_ptrIN7libMesh10Parameters9ParameterISt6vectorI12FunctionNameSaIS4_EEEESt14default_deleteIS7_EED2Ev
FN:422,_ZNSt10unique_ptrIN7libMesh10Parameters5ValueESt14default_deleteIS2_EEaSINS1_9ParameterISt6vectorI12BoundaryNameSaIS9_EEEES3_ISC_EEENSt9enable_ifIXsrSt6__and_IJSF_IJSt14is_convertibleINS_IT_T0_E7pointerEPS2_ESt6__not_ISt8is_arrayISH_EEEESt13is_assignableIRS4_OSI_EEE5valueERS5_E4typeEOSJ_
FN:422,_ZNSt10unique_ptrIN7libMesh10Parameters5ValueESt14default_deleteIS2_EEaSINS1_9ParameterI12FunctionNameEES3_IS9_EEENSt9enable_ifIXsrSt6__and_IJSC_IJSt14is_convertibleINS_IT_T0_E7pointerEPS2_ESt6__not_ISt8is_arrayISE_EEEESt13is_assignableIRS4_OSF_EEE5valueERS5_E4typeEOSG_
FN:422,_ZNSt10unique_ptrIN7libMesh10Parameters5ValueESt14default_deleteIS2_EEaSINS1_9ParameterIdEES3_IS8_EEENSt9enable_ifIXsrSt6__and_IJSB_IJSt14is_convertibleINS_IT_T0_E7pointerEPS2_ESt6__not_ISt8is_arrayISD_EEEESt13is_assignableIRS4_OSE_EEE5valueERS5_E4typeEOSF_
FN:422,_ZNSt10unique_ptrIN7libMesh10Parameters5ValueESt14default_deleteIS2_EEaSINS1_9ParameterI9MooseEnumEES3_IS9_EEENSt9enable_ifIXsrSt6__and_IJSC_IJSt14is_convertibleINS_IT_T0_E7pointerEPS2_ESt6__not_ISt8is_arrayISE_EEEESt13is_assignableIRS4_OSF_EEE5valueERS5_E4typeEOSG_
FN:422,_ZNSt10unique_ptrIN7libMesh10Parameters5ValueESt14default_deleteIS2_EEaSINS1_9ParameterISt6vectorI21NonlinearVariableNameSaIS9_EEEES3_ISC_EEENSt9enable_ifIXsrSt6__and_IJSF_IJSt14is_convertibleINS_IT_T0_E7pointerEPS2_ESt6__not_ISt8is_arrayISH_EEEESt13is_assignableIRS4_OSI_EEE5valueERS5_E4typeEOSJ_
FN:422,_ZNSt10unique_ptrIN7libMesh10Parameters5ValueESt14default_deleteIS2_EEaSINS1_9ParameterI14UserObjectNameEES3_IS9_EEENSt9enable_ifIXsrSt6__and_IJSC_IJSt14is_convertibleINS_IT_T0_E7pointerEPS2_ESt6__not_ISt8is_arrayISE_EEEESt13is_assignableIRS4_OSF_EEE5valueERS5_E4typeEOSG_
FN:422,_ZNSt10unique_ptrIN7libMesh10Parameters5ValueESt14default_deleteIS2_EEaSINS1_9ParameterI21NonlinearVariableNameEES3_IS9_EEENSt9enable_ifIXsrSt6__and_IJSC_IJSt14is_convertibleINS_IT_T0_E7pointerEPS2_ESt6__not_ISt8is_arrayISE_EEEESt13is_assignableIRS4_OSF_EEE5valueERS5_E4typeEOSG_
FN:422,_ZNSt10unique_ptrI23AppFactoryBuildInfoBaseSt14default_deleteIS0_EEaSI19AppFactoryBuildInfoI9BeaverAppES1_IS7_EEENSt9enable_ifIXsrSt6__and_IJSA_IJSt14is_convertibleINS_IT_T0_E7pointerEPS0_ESt6__not_ISt8is_arrayISC_EEEESt13is_assignableIRS2_OSD_EEE5valueERS3_E4typeEOSE_
FN:422,_ZNSt10unique_ptrIN7libMesh10Parameters5ValueESt14default_deleteIS2_EEaSINS1_9ParameterItEES3_IS8_EEENSt9enable_ifIXsrSt6__and_IJSB_IJSt14is_convertibleINS_IT_T0_E7pointerEPS2_ESt6__not_ISt8is_arrayISD_EEEESt13is_assignableIRS4_OSE_EEE5valueERS5_E4typeEOSF_
FN:422,_ZNSt10unique_ptrIN7libMesh10Parameters5ValueESt14default_deleteIS2_EEaSINS1_9ParameterISt6vectorI12MaterialNameSaIS9_EEEES3_ISC_EEENSt9enable_ifIXsrSt6__and_IJSF_IJSt14is_convertibleINS_IT_T0_E7pointerEPS2_ESt6__not_ISt8is_arrayISH_EEEESt13is_assignableIRS4_OSI_EEE5valueERS5_E4typeEOSJ_
FN:422,_ZNSt10unique_ptrIN7libMesh10Parameters5ValueESt14default_deleteIS2_EEaSINS1_9ParameterIjEES3_IS8_EEENSt9enable_ifIXsrSt6__and_IJSB_IJSt14is_convertibleINS_IT_T0_E7pointerEPS2_ESt6__not_ISt8is_arrayISD_EEEESt13is_assignableIRS4_OSE_EEE5valueERS5_E4typeEOSF_
FN:422,_ZNSt10unique_ptrIN7libMesh10Parameters5ValueESt14default_deleteIS2_EEaSINS1_9ParameterISt6vectorI12FunctionNameSaIS9_EEEES3_ISC_EEENSt9enable_ifIXsrSt6__and_IJSF_IJSt14is_convertibleINS_IT_T0_E7pointerEPS2_ESt6__not_ISt8is_arrayISH_EEEESt13is_assignableIRS4_OSI_EEE5valueERS5_E4typeEOSJ_
FN:422,_ZNSt10unique_ptrIN7libMesh10Parameters5ValueESt14default_deleteIS2_EEaSINS1_9ParameterINSt7__cxx1112basic_stringIcSt11char_traitsIcESaIcEEEEES3_ISE_EEENSt9enable_ifIXsrSt6__and_IJSH_IJSt14is_convertibleINS_IT_T0_E7pointerEPS2_ESt6__not_ISt8is_arrayISJ_EEEESt13is_assignableIRS4_OSK_EEE5valueERS5_E4typeEOSL_
FN:422,_ZNSt10unique_ptrIN7libMesh10Parameters5ValueESt14default_deleteIS2_EEaSINS1_9ParameterIbEES3_IS8_EEENSt9enable_ifIXsrSt6__and_IJSB_IJSt14is_convertibleINS_IT_T0_E7pointerEPS2_ESt6__not_ISt8is_arrayISD_EEEESt13is_assignableIRS4_OSE_EEE5valueERS5_E4typeEOSF_
FN:665,_ZNSt10unique_ptrIA_18RankTwoTensorTemplIdESt14default_deleteIS2_EED2Ev
FN:665,_ZNSt10unique_ptrIA_N5Eigen6MatrixIdLin1ELi3ELi0ELin1ELi3EEESt14default_deleteIS3_EED2Ev
FN:665,_ZNSt10unique_ptrIA_18RankTwoTensorTemplIN11MetaPhysicL10DualNumberIdNS1_28SemiDynamicSparseNumberArrayIdmNS1_8NWrapperILm64EEEEELb1EEEESt14default_deleteIS9_EED2Ev
FN:665,_ZNSt10unique_ptrIA_N7libMesh11TensorValueIdEESt14default_deleteIS3_EED2Ev
FN:665,_ZNSt10unique_ptrIA_N7libMesh11TensorValueIN11MetaPhysicL10DualNumberIdNS2_28SemiDynamicSparseNumberArrayIdmNS2_8NWrapperILm64EEEEELb1EEEEESt14default_deleteISA_EED2Ev
FN:665,_ZNSt10unique_ptrIA_N7libMesh11VectorValueIN11MetaPhysicL10DualNumberIdNS2_28SemiDynamicSparseNumberArrayIdmNS2_8NWrapperILm64EEEEELb1EEEEESt14default_deleteISA_EED2Ev
FN:665,_ZNSt10unique_ptrIA_N5Eigen6MatrixIdLin1ELi1ELi0ELin1ELi1EEESt14default_deleteIS3_EED2Ev
FN:665,_ZNSt10unique_ptrIA_N11MetaPhysicL10DualNumberIdNS0_28SemiDynamicSparseNumberArrayIdmNS0_8NWrapperILm64EEEEELb1EEESt14default_deleteIS7_EED2Ev
FN:1064,_ZSt11make_uniqueIN7libMesh10Parameters9ParameterI9MooseEnumEEJEENSt8__detail9_MakeUniqIT_E15__single_objectEDpOT0_
FN:1064,_ZSt11make_uniqueI27BVCapillaryPressurePowerLawJRK15InputParametersEENSt8__detail9_MakeUniqIT_E15__single_objectEDpOT0_
FN:1064,_ZSt11make_uniqueI13BVPressureAuxJRK15InputParametersEENSt8__detail9_MakeUniqIT_E15__single_objectEDpOT0_
FN:1064,_ZSt11make_uniqueI20BVMechanicalMaterialJRK15InputParametersEENSt8__detail9_MakeUniqIT_E15__single_objectEDpOT0_
FN:1064,_ZSt11make_uniqueIN7libMesh10Parameters9ParameterI12FunctionNameEEJEENSt8__detail9_MakeUniqIT_E15__single_objectEDpOT0_
FN:1064,_ZSt11make_uniqueI19BVLubby2ModelUpdateJRK15InputParametersEENSt8__detail9_MakeUniqIT_E15__single_objectEDpOT0_
FN:1064,_ZSt11make_uniqueI29BVFVMultiPhaseSaturationDarcyJRK15InputParametersEENSt8__detail9_MakeUniqIT_E15__single_objectEDpOT0_
FN:1064,_ZSt11make_uniqueI18BVEqvStrainRateAuxJRK15InputParametersEENSt8__detail9_MakeUniqIT_E15__single_objectEDpOT0_
FN:1064,_ZSt11make_uniqueI30BVRelativePermeabilityPowerLawJRK15InputParametersEENSt8__detail9_MakeUniqIT_E15__single_objectEDpOT0_
FN:1064,_ZSt11make_uniqueIN7libMesh10Parameters9ParameterISt6vectorI12BoundaryNameSaIS4_EEEEJEENSt8__detail9_MakeUniqIT_E15__single_objectEDpOT0_
FN:1064,_ZSt11make_uniqueI18BVStressDivergenceJRK15InputParametersEENSt8__detail9_MakeUniqIT_E15__single_objectEDpOT0_
FN:1064,_ZSt11make_uniqueIN7libMesh10Parameters9ParameterISt6vectorI12MaterialNameSaIS4_EEEEJEENSt8__detail9_MakeUniqIT_E15__single_objectEDpOT0_
FN:1064,_ZSt11make_uniqueI26BVKelvinViscoelasticUpdateJRK15InputParametersEENSt8__detail9_MakeUniqIT_E15__single_objectEDpOT0_
FN:1064,_ZSt11make_uniqueI18ADMaterialPropertyIdEJRKjEENSt8__detail9_MakeUniqIT_E15__single_objectEDpOT0_
FN:1064,_ZSt11make_uniqueI16MaterialPropertyIdEJRKjEENSt8__detail9_MakeUniqIT_E15__single_objectEDpOT0_
FN:1064,_ZSt11make_uniqueI20BVConstantDispersionJRK15InputParametersEENSt8__detail9_MakeUniqIT_E15__single_objectEDpOT0_
FN:1064,_ZSt11make_uniqueI12BVPressureBCJRK15InputParametersEENSt8__detail9_MakeUniqIT_E15__single_objectEDpOT0_
FN:1064,_ZSt11make_uniqueI27BVFVMultiPhasePressureDarcyJRK15InputParametersEENSt8__detail9_MakeUniqIT_E15__single_objectEDpOT0_
FN:1064,_ZSt11make_uniqueI23BVPoroMechanicsMaterialJRK15InputParametersEENSt8__detail9_MakeUniqIT_E15__single_objectEDpOT0_
FN:1064,_ZSt11make_uniqueIN7libMesh10Parameters9ParameterISt6vectorI12FunctionNameSaIS4_EEEEJEENSt8__detail9_MakeUniqIT_E15__single_objectEDpOT0_
FN:1064,_ZSt11make_uniqueI27BVMaxwellViscoelasticUpdateJRK15InputParametersEENSt8__detail9_MakeUniqIT_E15__single_objectEDpOT0_
FN:1064,_ZSt11make_uniqueIN7libMesh10Parameters9ParameterIjEEJEENSt8__detail9_MakeUniqIT_E15__single_objectEDpOT0_
FN:1064,_ZSt11make_uniqueIN7libMesh10Parameters9ParameterINSt7__cxx1112basic_stringIcSt11char_traitsIcESaIcEEEEEJEENSt8__detail9_MakeUniqIT_E15__single_objectEDpOT0_
FN:1064,_ZSt11make_uniqueIN7libMesh10Parameters9ParameterIP13FEProblemBaseEEJEENSt8__detail9_MakeUniqIT_E15__single_objectEDpOT0_
FN:1064,_ZSt11make_uniqueIN7libMesh10Parameters9ParameterIdEEJEENSt8__detail9_MakeUniqIT_E15__single_objectEDpOT0_
FN:1064,_ZSt11make_uniqueI17BVShearTractionBCJRK15InputParametersEENSt8__detail9_MakeUniqIT_E15__single_objectEDpOT0_
FN:1064,_ZSt11make_uniqueI16MaterialPropertyI18RankTwoTensorTemplIdEEJRKjEENSt8__detail9_MakeUniqIT_E15__single_objectEDpOT0_
FN:1064,_ZSt11make_uniqueI18BVDarcyVelocityAuxJRK15InputParametersEENSt8__detail9_MakeUniqIT_E15__single_objectEDpOT0_
FN:1064,_ZSt11make_uniqueI38BVFVMultiPhaseSaturationTimeDerivativeJRK15InputParametersEENSt8__detail9_MakeUniqIT_E15__single_objectEDpOT0_
FN:1064,_ZSt11make_uniqueIN7libMesh10Parameters9ParameterISt6vectorI21NonlinearVariableNameSaIS4_EEEEJEENSt8__detail9_MakeUniqIT_E15__single_objectEDpOT0_
FN:1064,_ZSt11make_uniqueI14BVEqvStrainAuxJRK15InputParametersEENSt8__detail9_MakeUniqIT_E15__single_objectEDpOT0_
FN:1064,_ZSt11make_uniqueI18BVConstantPorosityJRK15InputParametersEENSt8__detail9_MakeUniqIT_E15__single_objectEDpOT0_
FN:1064,_ZSt11make_uniqueIN7libMesh10Parameters9ParameterI21NonlinearVariableNameEEJEENSt8__detail9_MakeUniqIT_E15__single_objectEDpOT0_
FN:1064,_ZSt11make_uniqueI22BVConstantPermeabilityJRK15InputParametersEENSt8__detail9_MakeUniqIT_E15__single_objectEDpOT0_
FN:1064,_ZSt11make_uniqueI24BVMultiPhaseFlowMaterialJRK15InputParametersEENSt8__detail9_MakeUniqIT_E15__single_objectEDpOT0_
FN:1064,_ZSt11make_uniqueI26BVFVSinglePhaseSoluteDarcyJRK15InputParametersEENSt8__detail9_MakeUniqIT_E15__single_objectEDpOT0_
FN:1064,_ZSt11make_uniqueI16BVMisesStressAuxJRK15InputParametersEENSt8__detail9_MakeUniqIT_E15__single_objectEDpOT0_
FN:1064,_ZSt11make_uniqueI19AppFactoryBuildInfoI9BeaverAppEJEENSt8__detail9_MakeUniqIT_E15__single_objectEDpOT0_
FN:1064,_ZSt11make_uniqueI16MaterialPropertyI18RankTwoTensorTemplIdEEJjEENSt8__detail9_MakeUniqIT_E15__single_objectEDpOT0_
FN:1064,_ZSt11make_uniqueI19BVBurgerModelUpdateJRK15InputParametersEENSt8__detail9_MakeUniqIT_E15__single_objectEDpOT0_
FN:1064,_ZSt11make_uniqueI29BVFVSinglePhaseTimeDerivativeJRK15InputParametersEENSt8__detail9_MakeUniqIT_E15__single_objectEDpOT0_
FN:1064,_ZSt11make_uniqueI17BVFluidPropertiesJRK15InputParametersEENSt8__detail9_MakeUniqIT_E15__single_objectEDpOT0_
FN:1064,_ZSt11make_uniqueI36BVFVMultiPhasePressureTimeDerivativeJRK15InputParametersEENSt8__detail9_MakeUniqIT_E15__single_objectEDpOT0_
FN:1064,_ZSt11make_uniqueIN7libMesh10Parameters9ParameterItEEJEENSt8__detail9_MakeUniqIT_E15__single_objectEDpOT0_
FN:1064,_ZSt11make_uniqueI18BVSinglePhaseDarcyJRK15InputParametersEENSt8__detail9_MakeUniqIT_E15__single_objectEDpOT0_
FN:1064,_ZSt11make_uniqueI18ADMaterialPropertyI18RankTwoTensorTemplIdEEJRKjEENSt8__detail9_MakeUniqIT_E15__single_objectEDpOT0_
FN:1064,_ZSt11make_uniqueIN7libMesh10Parameters9ParameterI14UserObjectNameEEJEENSt8__detail9_MakeUniqIT_E15__single_objectEDpOT0_
FN:1064,_ZSt11make_uniqueIN7libMesh10Parameters9ParameterIbEEJEENSt8__detail9_MakeUniqIT_E15__single_objectEDpOT0_
FN:1064,_ZSt11make_uniqueI20BVStrainComponentAuxJRK15InputParametersEENSt8__detail9_MakeUniqIT_E15__single_objectEDpOT0_
FN:1064,_ZSt11make_uniqueI27BVSinglePhaseTimeDerivativeJRK15InputParametersEENSt8__detail9_MakeUniqIT_E15__single_objectEDpOT0_
FN:1064,_ZSt11make_uniqueI31BVSinglePhaseFlowSoluteMaterialJRK15InputParametersEENSt8__detail9_MakeUniqIT_E15__single_objectEDpOT0_
FN:1064,_ZSt11make_uniqueI35BVFVSinglePhaseSoluteTimeDerivativeJRK15InputParametersEENSt8__detail9_MakeUniqIT_E15__single_objectEDpOT0_
FN:1064,_ZSt11make_uniqueI25BVSinglePhaseFlowMaterialJRK15InputParametersEENSt8__detail9_MakeUniqIT_E15__single_objectEDpOT0_
FN:1064,_ZSt11make_uniqueI20BVStressComponentAuxJRK15InputParametersEENSt8__detail9_MakeUniqIT_E15__single_objectEDpOT0_
FN:1064,_ZSt11make_uniqueI16MaterialPropertyIdEJjEENSt8__detail9_MakeUniqIT_E15__single_objectEDpOT0_
FN:1064,_ZSt11make_uniqueI20BVFVSinglePhaseDarcyJRK15InputParametersEENSt8__detail9_MakeUniqIT_E15__single_objectEDpOT0_
FNDA:33,_ZNSt10unique_ptrI20BVMechanicalMaterialSt14default_deleteIS0_EED2Ev
FNDA:0,_ZNSt10unique_ptrIN7libMesh10Parameters9ParameterIP13FEProblemBaseEESt14default_deleteIS5_EED2Ev
FNDA:0,_ZSt11make_uniqueIN7libMesh10Parameters9ParameterIjEEJEENSt8__detail9_MakeUniqIT_E15__single_objectEDpOT0_
FNDA:0,_ZNSt10unique_ptrIN5Moose11FunctorBaseIdEESt14default_deleteIS2_EED2Ev
FNDA:0,_ZNSt10unique_ptrI16MaterialPropertyIdESt14default_deleteIS1_EED2Ev
FNDA:0,_ZNSt10unique_ptrI27BVFVMultiPhasePressureDarcySt14default_deleteIS0_EED2Ev
FNDA:0,_ZSt11make_uniqueIN7libMesh10Parameters9ParameterIP13FEProblemBaseEEJEENSt8__detail9_MakeUniqIT_E15__single_objectEDpOT0_
FNDA:0,_ZNKSt14default_deleteI10MooseArrayIN7libMesh11VectorValueIdEEEEclEPS4_
FNDA:0,_ZNSt10unique_ptrI10MooseArrayIN7libMesh11VectorValueIN11MetaPhysicL10DualNumberIdNS3_28SemiDynamicSparseNumberArrayIdmNS3_8NWrapperILm64EEEEELb1EEEEEESt14default_deleteISB_EED2Ev
FNDA:0,_ZSt11make_uniqueIN7libMesh10Parameters9ParameterINSt7__cxx1112basic_stringIcSt11char_traitsIcESaIcEEEEEJEENSt8__detail9_MakeUniqIT_E15__single_objectEDpOT0_
FNDA:6,_ZSt11make_uniqueI23BVPoroMechanicsMaterialJRK15InputParametersEENSt8__detail9_MakeUniqIT_E15__single_objectEDpOT0_
FNDA:0,_ZNSt10unique_ptrI23AppFactoryBuildInfoBaseSt14default_deleteIS0_EED2Ev
FNDA:0,_ZNSt10unique_ptrI27BVCapillaryPressurePowerLawSt14default_deleteIS0_EED2Ev
FNDA:11,_ZNSt10unique_ptrIN7libMesh10Parameters9ParameterISt6vectorI21NonlinearVariableNameSaIS4_EEEESt14default_deleteIS7_EED2Ev
FNDA:0,_ZNSt10unique_ptrI13PropertyValueSt14default_deleteIS0_EED2Ev
FNDA:0,_ZNSt10unique_ptrIN7libMesh10Parameters9ParameterItEESt14default_deleteIS3_EED2Ev
FNDA:0,_ZNSt10unique_ptrIN7libMesh10Parameters9ParameterIbEESt14default_deleteIS3_EED2Ev
FNDA:0,_ZNSt10unique_ptrIN7libMesh10Parameters5ValueESt14default_deleteIS2_EEaSINS1_9ParameterI14UserObjectNameEES3_IS9_EEENSt9enable_ifIXsrSt6__and_IJSC_IJSt14is_convertibleINS_IT_T0_E7pointerEPS2_ESt6__not_ISt8is_arrayISE_EEEESt13is_assignableIRS4_OSF_EEE5valueERS5_E4typeEOSG_
FNDA:0,_ZNSt10unique_ptrIN5Moose11FunctorBaseIN11MetaPhysicL10DualNumberIdNS2_28SemiDynamicSparseNumberArrayIdmNS2_8NWrapperILm64EEEEELb1EEEEESt14default_deleteIS9_EED2Ev
FNDA:0,_ZSt11make_uniqueIN7libMesh10Parameters9ParameterISt6vectorI12FunctionNameSaIS4_EEEEJEENSt8__detail9_MakeUniqIT_E15__single_objectEDpOT0_
FNDA:3,_ZSt11make_uniqueI27BVMaxwellViscoelasticUpdateJRK15InputParametersEENSt8__detail9_MakeUniqIT_E15__single_objectEDpOT0_
FNDA:31,_ZNSt10unique_ptrI18BVStressDivergenceSt14default_deleteIS0_EED2Ev
FNDA:0,_ZSt11make_uniqueI38BVFVMultiPhaseSaturationTimeDerivativeJRK15InputParametersEENSt8__detail9_MakeUniqIT_E15__single_objectEDpOT0_
FNDA:0,_ZNKSt14default_deleteIA_N5Eigen6MatrixIdLin1ELi1ELi0ELin1ELi1EEEEclIS2_EENSt9enable_ifIXsrSt14is_convertibleIPA_T_PS3_E5valueEvE4typeEPS8_
FNDA:8,_ZSt11make_uniqueI18BVDarcyVelocityAuxJRK15InputParametersEENSt8__detail9_MakeUniqIT_E15__single_objectEDpOT0_
FNDA:1,_ZNSt10unique_ptrI29BVFVSinglePhaseTimeDerivativeSt14default_deleteIS0_EED2Ev
FNDA:2,_ZSt11make_uniqueI14BVEqvStrainAuxJRK15InputParametersEENSt8__detail9_MakeUniqIT_E15__single_objectEDpOT0_
FNDA:24,_ZNSt10unique_ptrI17BVFluidPropertiesSt14default_deleteIS0_EED2Ev
FNDA:30,_ZNSt10unique_ptrI22BVConstantPermeabilitySt14default_deleteIS0_EED2Ev
FNDA:11,_ZSt11make_uniqueIN7libMesh10Parameters9ParameterISt6vectorI21NonlinearVariableNameSaIS4_EEEEJEENSt8__detail9_MakeUniqIT_E15__single_objectEDpOT0_
FNDA:0,_ZNSt10unique_ptrI33OptionalMaterialPropertyProxyBaseI25MaterialPropertyInterfaceESt14default_deleteIS2_EED2Ev
FNDA:0,_ZNSt10unique_ptrIN7libMesh10Parameters5ValueESt14default_deleteIS2_EEaSINS1_9ParameterI21NonlinearVariableNameEES3_IS9_EEENSt9enable_ifIXsrSt6__and_IJSC_IJSt14is_convertibleINS_IT_T0_E7pointerEPS2_ESt6__not_ISt8is_arrayISE_EEEESt13is_assignableIRS4_OSF_EEE5valueERS5_E4typeEOSG_
FNDA:0,_ZNSt15__uniq_ptr_implIN7libMesh10Parameters5ValueESt14default_deleteIS2_EEaSEOS5_
FNDA:0,_ZSt11make_uniqueI16MaterialPropertyI18RankTwoTensorTemplIdEEJRKjEENSt8__detail9_MakeUniqIT_E15__single_objectEDpOT0_
FNDA:0,_ZNSt10unique_ptrINSt13__future_base12_Result_baseENS1_8_DeleterEED2Ev
FNDA:0,_ZSt11make_uniqueI17BVShearTractionBCJRK15InputParametersEENSt8__detail9_MakeUniqIT_E15__single_objectEDpOT0_
FNDA:0,_ZNKSt14default_deleteIA_18RankTwoTensorTemplIN11MetaPhysicL10DualNumberIdNS1_28SemiDynamicSparseNumberArrayIdmNS1_8NWrapperILm64EEEEELb1EEEEEclIS8_EENSt9enable_ifIXsrSt14is_convertibleIPA_T_PS9_E5valueEvE4typeEPSE_
FNDA:0,_ZNSt10unique_ptrIdSt14default_deleteIdEED2Ev
FNDA:12,_ZNSt10unique_ptrI18BVConstantPorositySt14default_deleteIS0_EED2Ev
FNDA:0,_ZSt11make_uniqueIN7libMesh10Parameters9ParameterIdEEJEENSt8__detail9_MakeUniqIT_E15__single_objectEDpOT0_
FNDA:2,_ZNSt10unique_ptrI18BVEqvStrainRateAuxSt14default_deleteIS0_EED2Ev
FNDA:0,_ZSt11make_uniqueI27BVCapillaryPressurePowerLawJRK15InputParametersEENSt8__detail9_MakeUniqIT_E15__single_objectEDpOT0_
FNDA:1,_ZSt11make_uniqueI13BVPressureAuxJRK15InputParametersEENSt8__detail9_MakeUniqIT_E15__single_objectEDpOT0_
FNDA:0,_ZNSt10unique_ptrI20BVConstantDispersionSt14default_deleteIS0_EED2Ev
FNDA:0,_ZNSt10unique_ptrIN7libMesh10Parameters5ValueESt14default_deleteIS2_EEaSINS1_9ParameterIdEES3_IS8_EEENSt9enable_ifIXsrSt6__and_IJSB_IJSt14is_convertibleINS_IT_T0_E7pointerEPS2_ESt6__not_ISt8is_arrayISD_EEEESt13is_assignableIRS4_OSE_EEE5valueERS5_E4typeEOSF_
FNDA:0,_ZNSt10unique_ptrIN7libMesh10Parameters9ParameterI9MooseEnumEESt14default_deleteIS4_EED2Ev
FNDA:0,_ZNSt10unique_ptrIN7libMesh10Parameters9ParameterI21NonlinearVariableNameEESt14default_deleteIS4_EED2Ev
FNDA:0,_ZSt11make_uniqueIN7libMesh10Parameters9ParameterI12FunctionNameEEJEENSt8__detail9_MakeUniqIT_E15__single_objectEDpOT0_
FNDA:3,_ZSt11make_uniqueI19BVLubby2ModelUpdateJRK15InputParametersEENSt8__detail9_MakeUniqIT_E15__single_objectEDpOT0_
FNDA:226,_ZNSt10unique_ptrIA_N5Eigen6MatrixIdLin1ELi3ELi0ELin1ELi3EEESt14default_deleteIS3_EED2Ev
FNDA:33,_ZSt11make_uniqueI20BVMechanicalMaterialJRK15InputParametersEENSt8__detail9_MakeUniqIT_E15__single_objectEDpOT0_
FNDA:0,_ZNSt10unique_ptrIN7libMesh10Parameters5ValueESt14default_deleteIS2_EEaSINS1_9ParameterI12FunctionNameEES3_IS9_EEENSt9enable_ifIXsrSt6__and_IJSC_IJSt14is_convertibleINS_IT_T0_E7pointerEPS2_ESt6__not_ISt8is_arrayISE_EEEESt13is_assignableIRS4_OSF_EEE5valueERS5_E4typeEOSG_
FNDA:0,_ZNSt10unique_ptrIN7libMesh10Parameters9ParameterISt6vectorI12BoundaryNameSaIS4_EEEESt14default_deleteIS7_EED2Ev
FNDA:0,_ZNKSt14default_deleteIA_18RankTwoTensorTemplIdEEclIS1_EENSt9enable_ifIXsrSt14is_convertibleIPA_T_PS2_E5valueEvE4typeEPS7_
FNDA:0,_ZNSt10unique_ptrIA_18RankTwoTensorTemplIdESt14default_deleteIS2_EED2Ev
FNDA:0,_ZNSt10unique_ptrIN7libMesh10Parameters5ValueESt14default_deleteIS2_EEaSINS1_9ParameterISt6vectorI12BoundaryNameSaIS9_EEEES3_ISC_EEENSt9enable_ifIXsrSt6__and_IJSF_IJSt14is_convertibleINS_IT_T0_E7pointerEPS2_ESt6__not_ISt8is_arrayISH_EEEESt13is_assignableIRS4_OSI_EEE5valueERS5_E4typeEOSJ_
FNDA:0,_ZNSt10unique_ptrIN7libMesh10Parameters9ParameterISt6vectorI12MaterialNameSaIS4_EEEESt14default_deleteIS7_EED2Ev
FNDA:0,_ZNSt10unique_ptrI38BVFVMultiPhaseSaturationTimeDerivativeSt14default_deleteIS0_EED2Ev
FNDA:0,_ZSt11make_uniqueIN7libMesh10Parameters9ParameterI9MooseEnumEEJEENSt8__detail9_MakeUniqIT_E15__single_objectEDpOT0_
FNDA:20,_ZNSt10unique_ptrI12BVPressureBCSt14default_deleteIS0_EED2Ev
FNDA:0,_ZNSt10unique_ptrI16MaterialPropertyI18RankTwoTensorTemplIdEESt14default_deleteIS3_EED2Ev
FNDA:0,_ZNKSt14default_deleteIA_N11MetaPhysicL10DualNumberIdNS0_28SemiDynamicSparseNumberArrayIdmNS0_8NWrapperILm64EEEEELb1EEEEclIS6_EENSt9enable_ifIXsrSt14is_convertibleIPA_T_PS7_E5valueEvE4typeEPSC_
FNDA:24,_ZNSt10unique_ptrI25BVSinglePhaseFlowMaterialSt14default_deleteIS0_EED2Ev
FNDA:0,_ZNSt10unique_ptrIN7libMesh10Parameters5ValueESt14default_deleteIS2_EEaSINS1_9ParameterI9MooseEnumEES3_IS9_EEENSt9enable_ifIXsrSt6__and_IJSC_IJSt14is_convertibleINS_IT_T0_E7pointerEPS2_ESt6__not_ISt8is_arrayISE_EEEESt13is_assignableIRS4_OSF_EEE5valueERS5_E4typeEOSG_
FNDA:6,_ZNSt10unique_ptrI20BVStrainComponentAuxSt14default_deleteIS0_EED2Ev
FNDA:8,_ZNSt10unique_ptrI18BVDarcyVelocityAuxSt14default_deleteIS0_EED2Ev
FNDA:0,_ZSt11make_uniqueI27BVFVMultiPhasePressureDarcyJRK15InputParametersEENSt8__detail9_MakeUniqIT_E15__single_objectEDpOT0_
FNDA:11,_ZNSt10unique_ptrIN7libMesh10Parameters5ValueESt14default_deleteIS2_EEaSINS1_9ParameterISt6vectorI21NonlinearVariableNameSaIS9_EEEES3_ISC_EEENSt9enable_ifIXsrSt6__and_IJSF_IJSt14is_convertibleINS_IT_T0_E7pointerEPS2_ESt6__not_ISt8is_arrayISH_EEEESt13is_assignableIRS4_OSI_EEE5valueERS5_E4typeEOSJ_
FNDA:0,_ZNSt10unique_ptrIN7libMesh10Parameters9ParameterIdEESt14default_deleteIS3_EED2Ev
FNDA:20,_ZSt11make_uniqueI12BVPressureBCJRK15InputParametersEENSt8__detail9_MakeUniqIT_E15__single_objectEDpOT0_
FNDA:0,_ZSt11make_uniqueI20BVConstantDispersionJRK15InputParametersEENSt8__detail9_MakeUniqIT_E15__single_objectEDpOT0_
FNDA:0,_ZSt11make_uniqueI16MaterialPropertyIdEJRKjEENSt8__detail9_MakeUniqIT_E15__single_objectEDpOT0_
FNDA:0,_ZSt11make_uniqueIN7libMesh10Parameters9ParameterISt6vectorI12MaterialNameSaIS4_EEEEJEENSt8__detail9_MakeUniqIT_E15__single_objectEDpOT0_
FNDA:0,_ZNKSt14default_deleteIA_N5Eigen6MatrixIdLin1ELi3ELi0ELin1ELi3EEEEclIS2_EENSt9enable_ifIXsrSt14is_convertibleIPA_T_PS3_E5valueEvE4typeEPS8_
FNDA:3,_ZSt11make_uniqueI26BVKelvinViscoelasticUpdateJRK15InputParametersEENSt8__detail9_MakeUniqIT_E15__single_objectEDpOT0_
FNDA:31,_ZSt11make_uniqueI18BVStressDivergenceJRK15InputParametersEENSt8__detail9_MakeUniqIT_E15__single_objectEDpOT0_
FNDA:0,_ZNSt10unique_ptrI18ADMaterialPropertyI18RankTwoTensorTemplIdEESt14default_deleteIS3_EED2Ev
FNDA:0,_ZSt11make_uniqueI30BVRelativePermeabilityPowerLawJRK15InputParametersEENSt8__detail9_MakeUniqIT_E15__single_objectEDpOT0_
FNDA:0,_ZSt11make_uniqueIN7libMesh10Parameters9ParameterISt6vectorI12BoundaryNameSaIS4_EEEEJEENSt8__detail9_MakeUniqIT_E15__single_objectEDpOT0_
FNDA:0,_ZNSt10unique_ptrIA_18RankTwoTensorTemplIN11MetaPhysicL10DualNumberIdNS1_28SemiDynamicSparseNumberArrayIdmNS1_8NWrapperILm64EEEEELb1EEEESt14default_deleteIS9_EED2Ev
FNDA:2,_ZSt11make_uniqueI18BVEqvStrainRateAuxJRK15InputParametersEENSt8__detail9_MakeUniqIT_E15__single_objectEDpOT0_
FNDA:3,_ZNSt10unique_ptrI19BVLubby2ModelUpdateSt14default_deleteIS0_EED2Ev
FNDA:0,_ZSt11make_uniqueI29BVFVMultiPhaseSaturationDarcyJRK15InputParametersEENSt8__detail9_MakeUniqIT_E15__single_objectEDpOT0_
FNDA:7,_ZNSt10unique_ptrI20BVStressComponentAuxSt14default_deleteIS0_EED2Ev
FNDA:0,_ZNSt10unique_ptrIN7libMesh10Parameters9ParameterIjEESt14default_deleteIS3_EED2Ev
FNDA:0,_ZSt11make_uniqueI18ADMaterialPropertyIdEJRKjEENSt8__detail9_MakeUniqIT_E15__single_objectEDpOT0_
FNDA:0,_ZNSt10unique_ptrI33OptionalMaterialPropertyProxyBaseI8MaterialESt14default_deleteIS2_EED2Ev
FNDA:3,_ZSt11make_uniqueI27BVSinglePhaseTimeDerivativeJRK15InputParametersEENSt8__detail9_MakeUniqIT_E15__single_objectEDpOT0_
FNDA:6,_ZSt11make_uniqueI20BVStrainComponentAuxJRK15InputParametersEENSt8__detail9_MakeUniqIT_E15__single_objectEDpOT0_
FNDA:0,_ZSt11make_uniqueIN7libMesh10Parameters9ParameterIbEEJEENSt8__detail9_MakeUniqIT_E15__single_objectEDpOT0_
FNDA:0,_ZSt11make_uniqueIN7libMesh10Parameters9ParameterI14UserObjectNameEEJEENSt8__detail9_MakeUniqIT_E15__single_objectEDpOT0_
FNDA:6,_ZNSt10unique_ptrI23BVPoroMechanicsMaterialSt14default_deleteIS0_EED2Ev
FNDA:0,_ZSt11make_uniqueI31BVSinglePhaseFlowSoluteMaterialJRK15InputParametersEENSt8__detail9_MakeUniqIT_E15__single_objectEDpOT0_
FNDA:0,_ZNSt10unique_ptrIN7libMesh10Parameters5ValueESt14default_deleteIS2_EEaSINS1_9ParameterIjEES3_IS8_EEENSt9enable_ifIXsrSt6__and_IJSB_IJSt14is_convertibleINS_IT_T0_E7pointerEPS2_ESt6__not_ISt8is_arrayISD_EEEESt13is_assignableIRS4_OSE_EEE5valueERS5_E4typeEOSF_
FNDA:0,_ZSt11make_uniqueIN7libMesh10Parameters9ParameterItEEJEENSt8__detail9_MakeUniqIT_E15__single_objectEDpOT0_
FNDA:0,_ZNSt10unique_ptrI10MooseArrayIN5Eigen6MatrixIdLin1ELi1ELi0ELin1ELi1EEEESt14default_deleteIS4_EED2Ev
FNDA:0,_ZNSt10unique_ptrI26BVFVSinglePhaseSoluteDarcySt14default_deleteIS0_EED2Ev
FNDA:0,_ZSt11make_uniqueI18ADMaterialPropertyI18RankTwoTensorTemplIdEEJRKjEENSt8__detail9_MakeUniqIT_E15__single_objectEDpOT0_
FNDA:5,_ZNSt10unique_ptrI18BVSinglePhaseDarcySt14default_deleteIS0_EED2Ev
FNDA:5,_ZSt11make_uniqueI18BVSinglePhaseDarcyJRK15InputParametersEENSt8__detail9_MakeUniqIT_E15__single_objectEDpOT0_
FNDA:0,_ZNKSt14default_deleteIA_N7libMesh11VectorValueIN11MetaPhysicL10DualNumberIdNS2_28SemiDynamicSparseNumberArrayIdmNS2_8NWrapperILm64EEEEELb1EEEEEEclIS9_EENSt9enable_ifIXsrSt14is_convertibleIPA_T_PSA_E5valueEvE4typeEPSF_
FNDA:0,_ZNSt10unique_ptrI30BVRelativePermeabilityPowerLawSt14default_deleteIS0_EED2Ev
FNDA:0,_ZNSt15__uniq_ptr_implI13PropertyValueSt14default_deleteIS0_EEaSEOS3_
FNDA:0,_ZSt11make_uniqueI16MaterialPropertyIdEJjEENSt8__detail9_MakeUniqIT_E15__single_objectEDpOT0_
FNDA:0,_ZNSt10unique_ptrIA_N11MetaPhysicL10DualNumberIdNS0_28SemiDynamicSparseNumberArrayIdmNS0_8NWrapperILm64EEEEELb1EEESt14default_deleteIS7_EED2Ev
FNDA:0,_ZNSt10unique_ptrI17BVShearTractionBCSt14default_deleteIS0_EED2Ev
FNDA:3,_ZNSt10unique_ptrI27BVSinglePhaseTimeDerivativeSt14default_deleteIS0_EED2Ev
FNDA:0,_ZNSt10unique_ptrIN7libMesh10Parameters5ValueESt14default_deleteIS2_EEaSINS1_9ParameterIbEES3_IS8_EEENSt9enable_ifIXsrSt6__and_IJSB_IJSt14is_convertibleINS_IT_T0_E7pointerEPS2_ESt6__not_ISt8is_arrayISD_EEEESt13is_assignableIRS4_OSE_EEE5valueERS5_E4typeEOSF_
FNDA:0,_ZNKSt14default_deleteI10MooseArrayIN7libMesh11VectorValueIN11MetaPhysicL10DualNumberIdNS3_28SemiDynamicSparseNumberArrayIdmNS3_8NWrapperILm64EEEEELb1EEEEEEEclEPSB_
FNDA:3,_ZSt11make_uniqueI20BVFVSinglePhaseDarcyJRK15InputParametersEENSt8__detail9_MakeUniqIT_E15__single_objectEDpOT0_
FNDA:0,_ZNKSt14default_deleteI10MooseArrayIN5Eigen6MatrixIdLin1ELi1ELi0ELin1ELi1EEEEEclEPS4_
FNDA:1,_ZNSt10unique_ptrI13BVPressureAuxSt14default_deleteIS0_EED2Ev
FNDA:0,_ZNSt10unique_ptrIN7libMesh10Parameters9ParameterISt6vectorI12FunctionNameSaIS4_EEEESt14default_deleteIS7_EED2Ev
FNDA:0,_ZSt11make_uniqueI35BVFVSinglePhaseSoluteTimeDerivativeJRK15InputParametersEENSt8__detail9_MakeUniqIT_E15__single_objectEDpOT0_
FNDA:226,_ZNSt10unique_ptrIA_N5Eigen6MatrixIdLin1ELi1ELi0ELin1ELi1EEESt14default_deleteIS3_EED2Ev
FNDA:0,_ZNSt10unique_ptrIN7libMesh10Parameters9ParameterINSt7__cxx1112basic_stringIcSt11char_traitsIcESaIcEEEEESt14default_deleteIS9_EED2Ev
FNDA:0,_ZNSt10unique_ptrIN7libMesh10Parameters5ValueESt14default_deleteIS2_EEaSINS1_9ParameterINSt7__cxx1112basic_stringIcSt11char_traitsIcESaIcEEEEES3_ISE_EEENSt9enable_ifIXsrSt6__and_IJSH_IJSt14is_convertibleINS_IT_T0_E7pointerEPS2_ESt6__not_ISt8is_arrayISJ_EEEESt13is_assignableIRS4_OSK_EEE5valueERS5_E4typeEOSL_
FNDA:24,_ZSt11make_uniqueI25BVSinglePhaseFlowMaterialJRK15InputParametersEENSt8__detail9_MakeUniqIT_E15__single_objectEDpOT0_
FNDA:7,_ZSt11make_uniqueI20BVStressComponentAuxJRK15InputParametersEENSt8__detail9_MakeUniqIT_E15__single_objectEDpOT0_
FNDA:0,_ZNSt10unique_ptrIN7libMesh10Parameters5ValueESt14default_deleteIS2_EEaSINS1_9ParameterISt6vectorI12FunctionNameSaIS9_EEEES3_ISC_EEENSt9enable_ifIXsrSt6__and_IJSF_IJSt14is_convertibleINS_IT_T0_E7pointerEPS2_ESt6__not_ISt8is_arrayISH_EEEESt13is_assignableIRS4_OSI_EEE5valueERS5_E4typeEOSJ_
FNDA:0,_ZNSt10unique_ptrI36BVFVMultiPhasePressureTimeDerivativeSt14default_deleteIS0_EED2Ev
FNDA:2,_ZNSt10unique_ptrI14BVEqvStrainAuxSt14default_deleteIS0_EED2Ev
FNDA:3,_ZSt11make_uniqueI16BVMisesStressAuxJRK15InputParametersEENSt8__detail9_MakeUniqIT_E15__single_objectEDpOT0_
FNDA:0,_ZNKSt14default_deleteIA_N7libMesh11TensorValueIdEEEclIS2_EENSt9enable_ifIXsrSt14is_convertibleIPA_T_PS3_E5valueEvE4typeEPS8_
FNDA:0,_ZSt11make_uniqueI26BVFVSinglePhaseSoluteDarcyJRK15InputParametersEENSt8__detail9_MakeUniqIT_E15__single_objectEDpOT0_
FNDA:0,_ZSt11make_uniqueI24BVMultiPhaseFlowMaterialJRK15InputParametersEENSt8__detail9_MakeUniqIT_E15__single_objectEDpOT0_
FNDA:30,_ZSt11make_uniqueI22BVConstantPermeabilityJRK15InputParametersEENSt8__detail9_MakeUniqIT_E15__single_objectEDpOT0_
FNDA:0,_ZNSt10unique_ptrI23AppFactoryBuildInfoBaseSt14default_deleteIS0_EEaSI19AppFactoryBuildInfoI9BeaverAppES1_IS7_EEENSt9enable_ifIXsrSt6__and_IJSA_IJSt14is_convertibleINS_IT_T0_E7pointerEPS0_ESt6__not_ISt8is_arrayISC_EEEESt13is_assignableIRS2_OSD_EEE5valueERS3_E4typeEOSE_
FNDA:3,_ZSt11make_uniqueI19BVBurgerModelUpdateJRK15InputParametersEENSt8__detail9_MakeUniqIT_E15__single_objectEDpOT0_
FNDA:0,_ZSt11make_uniqueI16MaterialPropertyI18RankTwoTensorTemplIdEEJjEENSt8__detail9_MakeUniqIT_E15__single_objectEDpOT0_
FNDA:0,_ZSt11make_uniqueI19AppFactoryBuildInfoI9BeaverAppEJEENSt8__detail9_MakeUniqIT_E15__single_objectEDpOT0_
FNDA:0,_ZNSt10unique_ptrIN7libMesh10Parameters9ParameterI14UserObjectNameEESt14default_deleteIS4_EED2Ev
FNDA:0,_ZNKSt14default_deleteI10MooseArrayIdEEclEPS1_
FNDA:0,_ZNSt10unique_ptrI10MooseArrayIdESt14default_deleteIS1_EED2Ev
FNDA:0,_ZNSt10unique_ptrI31BVSinglePhaseFlowSoluteMaterialSt14default_deleteIS0_EED2Ev
FNDA:3,_ZNSt10unique_ptrI16BVMisesStressAuxSt14default_deleteIS0_EED2Ev
FNDA:3,_ZNSt10unique_ptrI26BVKelvinViscoelasticUpdateSt14default_deleteIS0_EED2Ev
FNDA:12,_ZSt11make_uniqueI18BVConstantPorosityJRK15InputParametersEENSt8__detail9_MakeUniqIT_E15__single_objectEDpOT0_
FNDA:0,_ZNKSt14default_deleteIA_N7libMesh11TensorValueIN11MetaPhysicL10DualNumberIdNS2_28SemiDynamicSparseNumberArrayIdmNS2_8NWrapperILm64EEEEELb1EEEEEEclIS9_EENSt9enable_ifIXsrSt14is_convertibleIPA_T_PSA_E5valueEvE4typeEPSF_
FNDA:0,_ZSt11make_uniqueIN7libMesh10Parameters9ParameterI21NonlinearVariableNameEEJEENSt8__detail9_MakeUniqIT_E15__single_objectEDpOT0_
FNDA:0,_ZNSt10unique_ptrI18ADMaterialPropertyIdESt14default_deleteIS1_EED2Ev
FNDA:0,_ZNSt10unique_ptrI10MooseArrayIN11MetaPhysicL10DualNumberIdNS1_28SemiDynamicSparseNumberArrayIdmNS1_8NWrapperILm64EEEEELb1EEEESt14default_deleteIS8_EED2Ev
FNDA:452,_ZNSt10unique_ptrIA_N7libMesh11TensorValueIdEESt14default_deleteIS3_EED2Ev
FNDA:0,_ZNSt10unique_ptrI19AppFactoryBuildInfoI9BeaverAppESt14default_deleteIS2_EED2Ev
FNDA:0,_ZNSt10unique_ptrIN7libMesh10Parameters9ParameterI12FunctionNameEESt14default_deleteIS4_EED2Ev
FNDA:3,_ZNSt10unique_ptrI27BVMaxwellViscoelasticUpdateSt14default_deleteIS0_EED2Ev
FNDA:0,_ZNSt10unique_ptrI10MooseArrayIN7libMesh11VectorValueIdEEESt14default_deleteIS4_EED2Ev
FNDA:740,_ZNSt10unique_ptrIN7libMesh10Parameters5ValueESt14default_deleteIS2_EED2Ev
FNDA:0,_ZSt11make_uniqueI36BVFVMultiPhasePressureTimeDerivativeJRK15InputParametersEENSt8__detail9_MakeUniqIT_E15__single_objectEDpOT0_
FNDA:0,_ZNSt10unique_ptrI29BVFVMultiPhaseSaturationDarcySt14default_deleteIS0_EED2Ev
FNDA:3,_ZNSt10unique_ptrI20BVFVSinglePhaseDarcySt14default_deleteIS0_EED2Ev
FNDA:452,_ZNSt10unique_ptrIA_N7libMesh11TensorValueIN11MetaPhysicL10DualNumberIdNS2_28SemiDynamicSparseNumberArrayIdmNS2_8NWrapperILm64EEEEELb1EEEEESt14default_deleteISA_EED2Ev
FNDA:3,_ZNSt10unique_ptrI19BVBurgerModelUpdateSt14default_deleteIS0_EED2Ev
FNDA:1,_ZSt11make_uniqueI29BVFVSinglePhaseTimeDerivativeJRK15InputParametersEENSt8__detail9_MakeUniqIT_E15__single_objectEDpOT0_
FNDA:0,_ZNSt10unique_ptrI35BVFVSinglePhaseSoluteTimeDerivativeSt14default_deleteIS0_EED2Ev
FNDA:0,_ZNSt10unique_ptrIN7libMesh10Parameters5ValueESt14default_deleteIS2_EEaSINS1_9ParameterISt6vectorI12MaterialNameSaIS9_EEEES3_ISC_EEENSt9enable_ifIXsrSt6__and_IJSF_IJSt14is_convertibleINS_IT_T0_E7pointerEPS2_ESt6__not_ISt8is_arrayISH_EEEESt13is_assignableIRS4_OSI_EEE5valueERS5_E4typeEOSJ_
FNDA:0,_ZNSt10unique_ptrI24BVMultiPhaseFlowMaterialSt14default_deleteIS0_EED2Ev
FNDA:24,_ZSt11make_uniqueI17BVFluidPropertiesJRK15InputParametersEENSt8__detail9_MakeUniqIT_E15__single_objectEDpOT0_
FNDA:226,_ZNSt10unique_ptrIA_N7libMesh11VectorValueIN11MetaPhysicL10DualNumberIdNS2_28SemiDynamicSparseNumberArrayIdmNS2_8NWrapperILm64EEEEELb1EEEEESt14default_deleteISA_EED2Ev
FNDA:0,_ZNKSt14default_deleteI10MooseArrayIN11MetaPhysicL10DualNumberIdNS1_28SemiDynamicSparseNumberArrayIdmNS1_8NWrapperILm64EEEEELb1EEEEEclEPS8_
FNDA:0,_ZNSt10unique_ptrIN7libMesh10Parameters5ValueESt14default_deleteIS2_EEaSINS1_9ParameterItEES3_IS8_EEENSt9enable_ifIXsrSt6__and_IJSB_IJSt14is_convertibleINS_IT_T0_E7pointerEPS2_ESt6__not_ISt8is_arrayISD_EEEESt13is_assignableIRS4_OSE_EEE5valueERS5_E4typeEOSF_
FNF:161
FNH:55
DA:89,0
DA:95,740
DA:96,740
DA:128,0
DA:132,0
DA:133,0
DA:168,244
DA:178,0
DA:181,0
DA:185,0
DA:191,0
DA:200,11
DA:201,11
DA:202,11
DA:203,0
DA:209,244
DA:210,233
DA:235,0
DA:390,984
DA:395,984
DA:396,0
DA:398,984
DA:422,11
DA:426,11
DA:665,1582
DA:668,1582
DA:669,0
DA:671,1582
DA:1064,244
DA:1065,244
LF:30
LH:18
end_of_record
TN:
SF:/usr/share/miniconda3/envs/moose/lib/gcc/x86_64-conda-linux-gnu/12.3.0/include/c++/bits/unordered_map.h
FNF:0
FNH:0
DA:102,40
DA:980,0
LF:2
LH:1
end_of_record
TN:
SF:/usr/share/miniconda3/envs/moose/lib/gcc/x86_64-conda-linux-gnu/12.3.0/include/c++/bits/unordered_set.h
FNF:0
FNH:0
DA:426,0
LF:1
LH:0
end_of_record
TN:
SF:/usr/share/miniconda3/envs/moose/lib/gcc/x86_64-conda-linux-gnu/12.3.0/include/c++/bits/vector.tcc
FN:111,_ZNSt6vectorISt10unique_ptrI13PropertyValueSt14default_deleteIS1_EESaIS4_EE12emplace_backIJS0_I16MaterialPropertyIdES2_IS9_EEEEERS4_DpOT_
FN:111,_ZNSt6vectorISt10unique_ptrI13PropertyValueSt14default_deleteIS1_EESaIS4_EE12emplace_backIJS0_I18ADMaterialPropertyIdES2_IS9_EEEEERS4_DpOT_
FN:111,_ZNSt6vectorISt10shared_ptrI17RegistryEntryBaseESaIS2_EE12emplace_backIJS2_EEERS2_DpOT_
FN:204,_ZNSt6vectorI12MaterialNameSaIS0_EEaSERKS2_
FN:204,_ZNSt6vectorI12BoundaryNameSaIS0_EEaSERKS2_
FN:204,_ZNSt6vectorI12FunctionNameSaIS0_EEaSERKS2_
FN:204,_ZNSt6vectorI21NonlinearVariableNameSaIS0_EEaSERKS2_
FN:439,_ZNSt6vectorISt10shared_ptrI17RegistryEntryBaseESaIS2_EE17_M_realloc_insertIJS2_EEEvN9__gnu_cxx17__normal_iteratorIPS2_S4_EEDpOT_
FN:439,_ZNSt6vectorIP21BVInelasticUpdateBaseSaIS1_EE17_M_realloc_insertIJRKS1_EEEvN9__gnu_cxx17__normal_iteratorIPS1_S3_EEDpOT_
FN:439,_ZNSt6vectorISt10unique_ptrI13PropertyValueSt14default_deleteIS1_EESaIS4_EE17_M_realloc_insertIJS0_I18ADMaterialPropertyIdES2_IS9_EEEEEvN9__gnu_cxx17__normal_iteratorIPS4_S6_EEDpOT_
FN:439,_ZNSt6vectorISt10unique_ptrI13PropertyValueSt14default_deleteIS1_EESaIS4_EE17_M_realloc_insertIJS0_I16MaterialPropertyIdES2_IS9_EEEEEvN9__gnu_cxx17__normal_iteratorIPS4_S6_EEDpOT_
FN:523,_ZNSt6vectorISt4pairIbN11MetaPhysicL10DualNumberIdNS1_28SemiDynamicSparseNumberArrayIdmNS1_8NWrapperILm64EEEEELb1EEEESaIS8_EE14_M_fill_insertEN9__gnu_cxx17__normal_iteratorIPS8_SA_EEmRKS8_
FN:523,_ZNSt6vectorISt4pairIbdESaIS1_EE14_M_fill_insertEN9__gnu_cxx17__normal_iteratorIPS1_S3_EEmRKS1_
FN:628,_ZNSt6vectorIS_ISt4pairIbN11MetaPhysicL10DualNumberIdNS1_28SemiDynamicSparseNumberArrayIdmNS1_8NWrapperILm64EEEEELb1EEEESaIS8_EESaISA_EE17_M_default_appendEm
FN:628,_ZNSt6vectorISt10unique_ptrI13PropertyValueSt14default_deleteIS1_EESaIS4_EE17_M_default_appendEm
FN:628,_ZNSt6vectorIS_ISt4pairIbdESaIS1_EESaIS3_EE17_M_default_appendEm
FN:628,_ZNSt6vectorIPK8FunctionSaIS2_EE17_M_default_appendEm
FNDA:172,_ZNSt6vectorI12FunctionNameSaIS0_EEaSERKS2_
FNDA:0,_ZNSt6vectorIPK8FunctionSaIS2_EE17_M_default_appendEm
FNDA:0,_ZNSt6vectorISt10unique_ptrI13PropertyValueSt14default_deleteIS1_EESaIS4_EE17_M_realloc_insertIJS0_I16MaterialPropertyIdES2_IS9_EEEEEvN9__gnu_cxx17__normal_iteratorIPS4_S6_EEDpOT_
FNDA:0,_ZNSt6vectorI21NonlinearVariableNameSaIS0_EEaSERKS2_
FNDA:0,_ZNSt6vectorISt4pairIbdESaIS1_EE14_M_fill_insertEN9__gnu_cxx17__normal_iteratorIPS1_S3_EEmRKS1_
FNDA:12,_ZNSt6vectorIP21BVInelasticUpdateBaseSaIS1_EE17_M_realloc_insertIJRKS1_EEEvN9__gnu_cxx17__normal_iteratorIPS1_S3_EEDpOT_
FNDA:0,_ZNSt6vectorISt10unique_ptrI13PropertyValueSt14default_deleteIS1_EESaIS4_EE17_M_realloc_insertIJS0_I18ADMaterialPropertyIdES2_IS9_EEEEEvN9__gnu_cxx17__normal_iteratorIPS4_S6_EEDpOT_
FNDA:740,_ZNSt6vectorISt10shared_ptrI17RegistryEntryBaseESaIS2_EE12emplace_backIJS2_EEERS2_DpOT_
FNDA:0,_ZNSt6vectorISt10shared_ptrI17RegistryEntryBaseESaIS2_EE17_M_realloc_insertIJS2_EEEvN9__gnu_cxx17__normal_iteratorIPS2_S4_EEDpOT_
FNDA:0,_ZNSt6vectorI12MaterialNameSaIS0_EEaSERKS2_
FNDA:0,_ZNSt6vectorI12BoundaryNameSaIS0_EEaSERKS2_
FNDA:0,_ZNSt6vectorISt10unique_ptrI13PropertyValueSt14default_deleteIS1_EESaIS4_EE12emplace_backIJS0_I16MaterialPropertyIdES2_IS9_EEEEERS4_DpOT_
FNDA:0,_ZNSt6vectorISt10unique_ptrI13PropertyValueSt14default_deleteIS1_EESaIS4_EE12emplace_backIJS0_I18ADMaterialPropertyIdES2_IS9_EEEEERS4_DpOT_
FNDA:0,_ZNSt6vectorIS_ISt4pairIbN11MetaPhysicL10DualNumberIdNS1_28SemiDynamicSparseNumberArrayIdmNS1_8NWrapperILm64EEEEELb1EEEESaIS8_EESaISA_EE17_M_default_appendEm
FNDA:0,_ZNSt6vectorISt10unique_ptrI13PropertyValueSt14default_deleteIS1_EESaIS4_EE17_M_default_appendEm
FNDA:0,_ZNSt6vectorISt4pairIbN11MetaPhysicL10DualNumberIdNS1_28SemiDynamicSparseNumberArrayIdmNS1_8NWrapperILm64EEEEELb1EEEESaIS8_EE14_M_fill_insertEN9__gnu_cxx17__normal_iteratorIPS8_SA_EEmRKS8_
FNDA:0,_ZNSt6vectorIS_ISt4pairIbdESaIS1_EESaIS3_EE17_M_default_appendEm
FNF:17
FNH:3
DA:111,740
DA:114,740
DA:119,560
DA:123,180
DA:125,740
DA:204,172
DA:207,172
DA:230,172
DA:232,0
DA:234,0
DA:237,0
DA:238,0
DA:239,0
DA:240,0
DA:242,172
DA:249,0
DA:251,0
DA:252,0
DA:256,172
DA:258,172
DA:439,12
DA:449,12
DA:450,12
DA:451,12
DA:462,12
DA:463,12
DA:477,12
DA:514,12
DA:515,12
DA:516,12
DA:517,12
DA:518,12
DA:523,0
DA:526,0
DA:528,0
DA:529,0
DA:537,0
DA:539,0
DA:542,0
DA:546,0
DA:548,0
DA:550,0
DA:556,0
DA:557,0
DA:565,0
DA:574,0
DA:579,0
DA:580,0
DA:586,0
DA:595,0
DA:616,0
DA:617,0
DA:618,0
DA:619,0
DA:622,0
DA:628,0
DA:631,0
DA:634,0
DA:635,0
DA:637,0
DA:638,0
DA:640,0
DA:643,0
DA:656,0
DA:662,0
DA:670,0
DA:698,0
DA:699,0
DA:700,0
DA:701,0
DA:704,0
LF:71
LH:23
end_of_record
TN:
SF:/usr/share/miniconda3/envs/moose/lib/gcc/x86_64-conda-linux-gnu/12.3.0/include/c++/ext/aligned_buffer.h
FNF:0
FNH:0
DA:65,945
DA:69,0
DA:104,754
LF:3
LH:2
end_of_record
TN:
SF:/usr/share/miniconda3/envs/moose/lib/gcc/x86_64-conda-linux-gnu/12.3.0/include/c++/ext/atomicity.h
FNF:0
FNH:0
DA:66,966
DA:71,740
DA:84,0
DA:85,0
DA:92,0
DA:98,966
DA:99,0
DA:101,966
DA:108,740
LF:9
LH:5
end_of_record
TN:
SF:/usr/share/miniconda3/envs/moose/lib/gcc/x86_64-conda-linux-gnu/12.3.0/include/c++/future
FN:342,_ZNSt13__future_base13_State_baseV2D0Ev
FN:342,_ZNSt13__future_base13_State_baseV2D2Ev
FN:596,_ZNSt13__future_base13_State_baseV217_M_complete_asyncEv
FN:599,_ZNKSt13__future_base13_State_baseV221_M_is_deferred_futureEv
FN:670,_ZNSt13__future_base7_ResultIvE10_M_destroyEv
FNDA:0,_ZNSt13__future_base13_State_baseV217_M_complete_asyncEv
FNDA:0,_ZNSt13__future_base7_ResultIvE10_M_destroyEv
FNDA:0,_ZNSt13__future_base13_State_baseV2D2Ev
FNDA:0,_ZNKSt13__future_base13_State_baseV221_M_is_deferred_futureEv
FNDA:0,_ZNSt13__future_base13_State_baseV2D0Ev
FNF:5
FNH:0
DA:227,0
DA:342,0
DA:596,0
DA:599,0
DA:670,0
LF:5
LH:0
end_of_record
TN:
SF:/usr/share/miniconda3/envs/moose/lib/gcc/x86_64-conda-linux-gnu/12.3.0/include/c++/initializer_list
FNF:0
FNH:0
DA:71,395
DA:79,395
LF:2
LH:2
end_of_record
TN:
SF:/usr/share/miniconda3/envs/moose/lib/gcc/x86_64-conda-linux-gnu/12.3.0/include/c++/istream
FNF:0
FNH:0
DA:219,0
LF:1
LH:0
end_of_record
TN:
SF:/usr/share/miniconda3/envs/moose/lib/gcc/x86_64-conda-linux-gnu/12.3.0/include/c++/ostream
FNF:0
FNH:0
DA:113,0
DA:175,0
DA:185,0
DA:196,0
DA:221,0
DA:246,0
LF:6
LH:0
end_of_record
TN:
SF:/usr/share/miniconda3/envs/moose/lib/gcc/x86_64-conda-linux-gnu/12.3.0/include/c++/sstream
FNF:0
FNH:0
DA:918,0
DA:1137,0
LF:2
LH:0
end_of_record
TN:
SF:/usr/share/miniconda3/envs/moose/lib/gcc/x86_64-conda-linux-gnu/12.3.0/include/c++/string_view
FN:317,_ZNKSt17basic_string_viewIcSt11char_traitsIcEE7compareES2_
FNDA:55,_ZNKSt17basic_string_viewIcSt11char_traitsIcEE7compareES2_
FNF:1
FNH:1
DA:133,0
DA:134,0
DA:135,0
DA:317,55
DA:319,55
DA:320,55
DA:321,55
DA:323,55
DA:508,0
DA:509,0
DA:511,0
DA:513,0
DA:603,11
DA:609,44
DA:674,0
LF:15
LH:7
end_of_record
TN:
SF:/usr/share/miniconda3/envs/moose/lib/gcc/x86_64-conda-linux-gnu/12.3.0/include/c++/tuple
FN:1476,_ZNSt15__tuple_compareISt5tupleIJPK8FaceInfoN5Moose2FV11LimiterTypeEbbPKN7libMesh4ElemEEESB_Lm2ELm5EE6__lessERKSB_SE_
FN:1476,_ZNSt15__tuple_compareISt5tupleIJPK8FaceInfoN5Moose2FV11LimiterTypeEbbPKN7libMesh4ElemEEESB_Lm1ELm5EE6__lessERKSB_SE_
FN:1476,_ZNSt15__tuple_compareISt5tupleIJPK8FaceInfoN5Moose2FV11LimiterTypeEbbPKN7libMesh4ElemEEESB_Lm0ELm5EE6__lessERKSB_SE_
FN:1814,_ZNSt4pairIKNSt7__cxx1112basic_stringIcSt11char_traitsIcESaIcEEEN15InputParameters8MetadataEEC2IJRS6_EJLm0EEJEJEEERSt5tupleIJDpT_EERSC_IJDpT1_EESt12_Index_tupleIJXspT0_EEESL_IJXspT2_EEE
FNDA:0,_ZNSt15__tuple_compareISt5tupleIJPK8FaceInfoN5Moose2FV11LimiterTypeEbbPKN7libMesh4ElemEEESB_Lm0ELm5EE6__lessERKSB_SE_
FNDA:11,_ZNSt4pairIKNSt7__cxx1112basic_stringIcSt11char_traitsIcESaIcEEEN15InputParameters8MetadataEEC2IJRS6_EJLm0EEJEJEEERSt5tupleIJDpT_EERSC_IJDpT1_EESt12_Index_tupleIJXspT0_EEESL_IJXspT2_EEE
FNDA:0,_ZNSt15__tuple_compareISt5tupleIJPK8FaceInfoN5Moose2FV11LimiterTypeEbbPKN7libMesh4ElemEEESB_Lm1ELm5EE6__lessERKSB_SE_
FNDA:0,_ZNSt15__tuple_compareISt5tupleIJPK8FaceInfoN5Moose2FV11LimiterTypeEbbPKN7libMesh4ElemEEESB_Lm2ELm5EE6__lessERKSB_SE_
FNF:4
FNH:1
DA:124,0
DA:187,0
DA:189,11
DA:190,11
DA:192,62
DA:193,62
DA:199,0
DA:200,973
DA:233,11
DA:301,0
DA:454,11
DA:456,802
DA:609,0
DA:1476,0
DA:1478,0
DA:1479,0
DA:1480,0
DA:1546,0
DA:1802,11
DA:1807,11
DA:1814,802
DA:1817,802
DA:1818,11
DA:1819,11
LF:24
LH:14
end_of_record
TN:
SF:/usr/share/miniconda3/envs/moose/lib/gcc/x86_64-conda-linux-gnu/12.3.0/include/c++/typeinfo
FN:193,_ZNKSt9type_infoeqERKS_
FNDA:0,_ZNKSt9type_infoeqERKS_
FNF:1
FNH:0
DA:104,0
DA:193,0
DA:198,0
DA:206,0
LF:4
LH:0
end_of_record
TN:
SF:/usr/share/miniconda3/envs/moose/lib/gcc/x86_64-conda-linux-gnu/12.3.0/include/c++/x86_64-conda-linux-gnu/bits/gthr-default.h
FNF:0
FNH:0
DA:748,0
DA:749,0
DA:778,0
DA:779,0
LF:4
LH:0
end_of_record
TN:
SF:/usr/share/miniconda3/envs/moose/libmesh/include/Eigen/src/Core/DenseStorage.h
FNF:0
FNH:0
DA:621,0
LF:1
LH:0
end_of_record
TN:
SF:/usr/share/miniconda3/envs/moose/libmesh/include/Eigen/src/Core/Matrix.h
FNF:0
FNH:0
DA:178,0
LF:1
LH:0
end_of_record
TN:
SF:/usr/share/miniconda3/envs/moose/libmesh/include/Eigen/src/Core/util/Memory.h
FNF:0
FNH:0
DA:203,0
LF:1
LH:0
end_of_record
TN:
SF:/usr/share/miniconda3/envs/moose/libmesh/include/libmesh/dense_matrix.h
FN:99,_ZN7libMesh11DenseMatrixIdED0Ev
FN:99,_ZN7libMesh11DenseMatrixIdED2Ev
FN:126,_ZNK7libMesh11DenseMatrixIdE2elEjj
FN:130,_ZN7libMesh11DenseMatrixIdE2elEjj
FN:911,_ZN7libMesh11DenseMatrixIdE4zeroEv
FNDA:0,_ZN7libMesh11DenseMatrixIdED0Ev
FNDA:28,_ZN7libMesh11DenseMatrixIdED2Ev
FNDA:0,_ZN7libMesh11DenseMatrixIdE4zeroEv
FNDA:0,_ZN7libMesh11DenseMatrixIdE2elEjj
FNDA:0,_ZNK7libMesh11DenseMatrixIdE2elEjj
FNF:5
FNH:1
DA:99,28
DA:126,0
DA:128,0
DA:130,0
DA:132,0
DA:911,0
DA:913,0
DA:916,0
DA:962,0
DA:977,0
LF:10
LH:1
end_of_record
TN:
SF:/usr/share/miniconda3/envs/moose/libmesh/include/libmesh/dense_vector.h
FN:102,_ZN7libMesh11DenseVectorIdED0Ev
FN:102,_ZN7libMesh11DenseVectorIdED2Ev
FN:104,_ZNK7libMesh11DenseVectorIdE4sizeEv
FN:109,_ZNK7libMesh11DenseVectorIdE5emptyEv
FN:124,_ZNK7libMesh11DenseVectorIdE2elEj
FN:127,_ZN7libMesh11DenseVectorIdE2elEj
FN:398,_ZN7libMesh11DenseVectorIdE4zeroEv
FNDA:0,_ZNK7libMesh11DenseVectorIdE4sizeEv
FNDA:0,_ZNK7libMesh11DenseVectorIdE5emptyEv
FNDA:0,_ZN7libMesh11DenseVectorIdED2Ev
FNDA:0,_ZN7libMesh11DenseVectorIdE2elEj
FNDA:0,_ZN7libMesh11DenseVectorIdE4zeroEv
FNDA:0,_ZNK7libMesh11DenseVectorIdE2elEj
FNDA:0,_ZN7libMesh11DenseVectorIdED0Ev
FNF:7
FNH:0
DA:102,0
DA:104,0
DA:106,0
DA:109,0
DA:110,0
DA:124,0
DA:125,0
DA:127,0
DA:128,0
DA:398,0
DA:403,0
DA:413,0
DA:424,0
LF:13
LH:0
end_of_record
TN:
SF:/usr/share/miniconda3/envs/moose/libmesh/include/libmesh/dof_object.h
FNF:0
FNH:0
DA:828,0
LF:1
LH:0
end_of_record
TN:
SF:/usr/share/miniconda3/envs/moose/libmesh/include/libmesh/elem.h
FN:576,_ZNK7libMesh4Elem9is_remoteEv
FN:634,_ZNK7libMesh4Elem16n_nodes_in_childEj
FN:720,_ZNK7libMesh4Elem18is_vertex_on_childEjj
FN:931,_ZNK7libMesh4Elem18default_side_orderEv
FN:975,_ZNK7libMesh4Elem17quasicircumcenterEv
FN:1035,_ZNK7libMesh4Elem11qual_boundsENS_11ElemQualityE
FN:1075,_ZNK7libMesh4Elem14has_affine_mapEv
FN:1091,_ZNK7libMesh4Elem9is_linearEv
FN:1709,_ZNK7libMesh4Elem19local_singular_nodeERKNS_5PointEd
FN:1716,_ZNK7libMesh4Elem16is_singular_nodeEj
FN:1917,_ZNK7libMesh4Elem24embedding_matrix_versionEv
FN:2076,_ZNK7libMesh4Elem26_get_bracketing_node_cacheEv
FN:2090,_ZNK7libMesh4Elem25_get_parent_indices_cacheEv
FN:2406,_ZN7libMesh4Elem8set_nodeEj
FNDA:0,_ZNK7libMesh4Elem14has_affine_mapEv
FNDA:0,_ZNK7libMesh4Elem25_get_parent_indices_cacheEv
FNDA:0,_ZNK7libMesh4Elem26_get_bracketing_node_cacheEv
FNDA:0,_ZNK7libMesh4Elem18is_vertex_on_childEjj
FNDA:0,_ZNK7libMesh4Elem24embedding_matrix_versionEv
FNDA:0,_ZNK7libMesh4Elem19local_singular_nodeERKNS_5PointEd
FNDA:0,_ZNK7libMesh4Elem17quasicircumcenterEv
FNDA:0,_ZNK7libMesh4Elem16is_singular_nodeEj
FNDA:0,_ZNK7libMesh4Elem11qual_boundsENS_11ElemQualityE
FNDA:0,_ZNK7libMesh4Elem18default_side_orderEv
FNDA:0,_ZNK7libMesh4Elem16n_nodes_in_childEj
FNDA:0,_ZNK7libMesh4Elem9is_linearEv
FNDA:0,_ZN7libMesh4Elem8set_nodeEj
FNDA:0,_ZNK7libMesh4Elem9is_remoteEv
FNF:14
FNH:0
DA:576,0
DA:577,0
DA:634,0
DA:635,0
DA:720,0
DA:722,0
DA:931,0
DA:975,0
DA:976,0
DA:1035,0
DA:1036,0
DA:1075,0
DA:1091,0
DA:1709,0
DA:1710,0
DA:1716,0
DA:1917,0
DA:2076,0
DA:2078,0
DA:2079,0
DA:2090,0
DA:2092,0
DA:2093,0
DA:2406,0
DA:2410,0
DA:2418,0
LF:26
LH:0
end_of_record
TN:
SF:/usr/share/miniconda3/envs/moose/libmesh/include/libmesh/int_range.h
FNF:0
FNH:0
DA:64,0
DA:65,0
LF:2
LH:0
end_of_record
TN:
SF:/usr/share/miniconda3/envs/moose/libmesh/include/libmesh/libmesh_common.h
FNF:0
FNH:0
DA:618,0
LF:1
LH:0
end_of_record
TN:
SF:/usr/share/miniconda3/envs/moose/libmesh/include/libmesh/libmesh_exceptions.h
FN:51,_ZN7libMesh14NotImplementedC2ENSt7__cxx1112basic_stringIcSt11char_traitsIcESaIcEEE
FNDA:0,_ZN7libMesh14NotImplementedC2ENSt7__cxx1112basic_stringIcSt11char_traitsIcESaIcEEE
FNF:1
FNH:0
DA:39,0
DA:51,0
LF:2
LH:0
end_of_record
TN:
SF:/usr/share/miniconda3/envs/moose/libmesh/include/libmesh/parallel_object.h
FNF:0
FNH:0
DA:91,233
LF:1
LH:1
end_of_record
TN:
SF:/usr/share/miniconda3/envs/moose/libmesh/include/libmesh/parameters.h
FN:85,_ZN7libMesh10ParametersD2Ev
FN:85,_ZN7libMesh10ParametersD0Ev
FN:138,_ZN7libMesh10Parameters14set_attributesERKNSt7__cxx1112basic_stringIcSt11char_traitsIcESaIcEEEb
FN:295,_ZNK7libMesh10Parameters9ParameterIbE4typeB5cxx11Ev
FN:295,_ZNK7libMesh10Parameters9ParameterIjE4typeB5cxx11Ev
FN:295,_ZNK7libMesh10Parameters9ParameterItE4typeB5cxx11Ev
FN:295,_ZNK7libMesh10Parameters9ParameterISt6vectorI12BoundaryNameSaIS3_EEE4typeB5cxx11Ev
FN:295,_ZNK7libMesh10Parameters9ParameterI12FunctionNameE4typeB5cxx11Ev
FN:295,_ZNK7libMesh10Parameters9ParameterIP13FEProblemBaseE4typeB5cxx11Ev
FN:295,_ZNK7libMesh10Parameters9ParameterISt6vectorI12MaterialNameSaIS3_EEE4typeB5cxx11Ev
FN:295,_ZNK7libMesh10Parameters9ParameterI9MooseEnumE4typeB5cxx11Ev
FN:295,_ZNK7libMesh10Parameters9ParameterI21NonlinearVariableNameE4typeB5cxx11Ev
FN:295,_ZNK7libMesh10Parameters9ParameterISt6vectorI21NonlinearVariableNameSaIS3_EEE4typeB5cxx11Ev
FN:295,_ZNK7libMesh10Parameters9ParameterIdE4typeB5cxx11Ev
FN:295,_ZNK7libMesh10Parameters9ParameterINSt7__cxx1112basic_stringIcSt11char_traitsIcESaIcEEEE4typeEv
FN:295,_ZNK7libMesh10Parameters9ParameterI14UserObjectNameE4typeB5cxx11Ev
FN:295,_ZNK7libMesh10Parameters9ParameterISt6vectorI12FunctionNameSaIS3_EEE4typeB5cxx11Ev
FN:303,_ZNK7libMesh10Parameters9ParameterI12FunctionNameE5printERSo
FN:303,_ZNK7libMesh10Parameters9ParameterINSt7__cxx1112basic_stringIcSt11char_traitsIcESaIcEEEE5printERSo
FN:303,_ZNK7libMesh10Parameters9ParameterIbE5printERSo
FN:303,_ZNK7libMesh10Parameters9ParameterISt6vectorI12FunctionNameSaIS3_EEE5printERSo
FN:303,_ZNK7libMesh10Parameters9ParameterISt6vectorI12BoundaryNameSaIS3_EEE5printERSo
FN:303,_ZNK7libMesh10Parameters9ParameterISt6vectorI21NonlinearVariableNameSaIS3_EEE5printERSo
FN:303,_ZNK7libMesh10Parameters9ParameterIdE5printERSo
FN:303,_ZNK7libMesh10Parameters9ParameterI14UserObjectNameE5printERSo
FN:303,_ZNK7libMesh10Parameters9ParameterI21NonlinearVariableNameE5printERSo
FN:303,_ZNK7libMesh10Parameters9ParameterIP13FEProblemBaseE5printERSo
FN:303,_ZNK7libMesh10Parameters9ParameterI9MooseEnumE5printERSo
FN:303,_ZNK7libMesh10Parameters9ParameterItE5printERSo
FN:303,_ZNK7libMesh10Parameters9ParameterISt6vectorI12MaterialNameSaIS3_EEE5printERSo
FN:303,_ZNK7libMesh10Parameters9ParameterIjE5printERSo
FN:311,_ZNK7libMesh10Parameters9ParameterIdE5cloneEv
FN:311,_ZNK7libMesh10Parameters9ParameterIjE5cloneEv
FN:311,_ZNK7libMesh10Parameters9ParameterItE5cloneEv
FN:311,_ZNK7libMesh10Parameters9ParameterI21NonlinearVariableNameE5cloneEv
FN:311,_ZNK7libMesh10Parameters9ParameterISt6vectorI12FunctionNameSaIS3_EEE5cloneEv
FN:311,_ZNK7libMesh10Parameters9ParameterI14UserObjectNameE5cloneEv
FN:311,_ZNK7libMesh10Parameters9ParameterISt6vectorI12MaterialNameSaIS3_EEE5cloneEv
FN:311,_ZNK7libMesh10Parameters9ParameterINSt7__cxx1112basic_stringIcSt11char_traitsIcESaIcEEEE5cloneEv
FN:311,_ZNK7libMesh10Parameters9ParameterIbE5cloneEv
FN:311,_ZNK7libMesh10Parameters9ParameterI9MooseEnumE5cloneEv
FN:311,_ZNK7libMesh10Parameters9ParameterI12FunctionNameE5cloneEv
FN:311,_ZNK7libMesh10Parameters9ParameterIP13FEProblemBaseE5cloneEv
FN:311,_ZNK7libMesh10Parameters9ParameterISt6vectorI21NonlinearVariableNameSaIS3_EEE5cloneEv
FN:311,_ZNK7libMesh10Parameters9ParameterISt6vectorI12BoundaryNameSaIS3_EEE5cloneEv
FN:324,_ZN7libMesh10Parameters5clearEv
FN:332,_ZN7libMesh10ParametersaSERKS0_
FN:341,_ZN7libMesh10ParameterspLERKS0_
FN:360,_ZNK7libMesh10Parameters5printERSo
FN:395,_ZNK7libMesh10Parameters14have_parameterINSt7__cxx1112basic_stringIcSt11char_traitsIcESaIcEEEEEbSt17basic_string_viewIcS5_E
FN:395,_ZNK7libMesh10Parameters14have_parameterISt6vectorI21NonlinearVariableNameSaIS3_EEEEbSt17basic_string_viewIcSt11char_traitsIcEE
FN:395,_ZNK7libMesh10Parameters14have_parameterISt6vectorI12BoundaryNameSaIS3_EEEEbSt17basic_string_viewIcSt11char_traitsIcEE
FN:395,_ZNK7libMesh10Parameters14have_parameterI20MaterialPropertyNameEEbSt17basic_string_viewIcSt11char_traitsIcEE
FN:395,_ZNK7libMesh10Parameters14have_parameterI21NonlinearVariableNameEEbSt17basic_string_viewIcSt11char_traitsIcEE
FN:395,_ZNK7libMesh10Parameters14have_parameterIbEEbSt17basic_string_viewIcSt11char_traitsIcEE
FN:395,_ZNK7libMesh10Parameters14have_parameterI12FunctionNameEEbSt17basic_string_viewIcSt11char_traitsIcEE
FN:395,_ZNK7libMesh10Parameters14have_parameterISt6vectorI12MaterialNameSaIS3_EEEEbSt17basic_string_viewIcSt11char_traitsIcEE
FN:395,_ZNK7libMesh10Parameters14have_parameterI9MooseEnumEEbSt17basic_string_viewIcSt11char_traitsIcEE
FN:395,_ZNK7libMesh10Parameters14have_parameterIjEEbSt17basic_string_viewIcSt11char_traitsIcEE
FN:395,_ZNK7libMesh10Parameters14have_parameterItEEbSt17basic_string_viewIcSt11char_traitsIcEE
FN:395,_ZNK7libMesh10Parameters14have_parameterIdEEbSt17basic_string_viewIcSt11char_traitsIcEE
FN:395,_ZNK7libMesh10Parameters14have_parameterISt6vectorI12FunctionNameSaIS3_EEEEbSt17basic_string_viewIcSt11char_traitsIcEE
FN:395,_ZNK7libMesh10Parameters14have_parameterI14UserObjectNameEEbSt17basic_string_viewIcSt11char_traitsIcEE
FN:426,_ZNK7libMesh10Parameters3getIbEERKT_St17basic_string_viewIcSt11char_traitsIcEE
FN:426,_ZNK7libMesh10Parameters3getISt6vectorI12FunctionNameSaIS3_EEEERKT_St17basic_string_viewIcSt11char_traitsIcEE
FN:426,_ZNK7libMesh10Parameters3getISt6vectorI21NonlinearVariableNameSaIS3_EEEERKT_St17basic_string_viewIcSt11char_traitsIcEE
FN:426,_ZNK7libMesh10Parameters3getISt6vectorI12MaterialNameSaIS3_EEEERKT_St17basic_string_viewIcSt11char_traitsIcEE
FN:426,_ZNK7libMesh10Parameters3getIjEERKT_St17basic_string_viewIcSt11char_traitsIcEE
FN:426,_ZNK7libMesh10Parameters3getI20MaterialPropertyNameEERKT_St17basic_string_viewIcSt11char_traitsIcEE
FN:426,_ZNK7libMesh10Parameters3getItEERKT_St17basic_string_viewIcSt11char_traitsIcEE
FN:426,_ZNK7libMesh10Parameters3getINSt7__cxx1112basic_stringIcSt11char_traitsIcESaIcEEEEERKT_St17basic_string_viewIcS5_E
FN:426,_ZNK7libMesh10Parameters3getIdEERKT_St17basic_string_viewIcSt11char_traitsIcEE
FN:458,_ZN7libMesh10Parameters6insertINSt7__cxx1112basic_stringIcSt11char_traitsIcESaIcEEEEEvRKS7_
FN:458,_ZN7libMesh10Parameters6insertI14UserObjectNameEEvRKNSt7__cxx1112basic_stringIcSt11char_traitsIcESaIcEEE
FN:458,_ZN7libMesh10Parameters6insertISt6vectorI12BoundaryNameSaIS3_EEEEvRKNSt7__cxx1112basic_stringIcSt11char_traitsIcESaIcEEE
FN:458,_ZN7libMesh10Parameters6insertI12FunctionNameEEvRKNSt7__cxx1112basic_stringIcSt11char_traitsIcESaIcEEE
FN:458,_ZN7libMesh10Parameters6insertISt6vectorI21NonlinearVariableNameSaIS3_EEEEvRKNSt7__cxx1112basic_stringIcSt11char_traitsIcESaIcEEE
FN:458,_ZN7libMesh10Parameters6insertIjEEvRKNSt7__cxx1112basic_stringIcSt11char_traitsIcESaIcEEE
FN:458,_ZN7libMesh10Parameters6insertIdEEvRKNSt7__cxx1112basic_stringIcSt11char_traitsIcESaIcEEE
FN:469,_ZN7libMesh10Parameters3setI21NonlinearVariableNameEERT_RKNSt7__cxx1112basic_stringIcSt11char_traitsIcESaIcEEE
FN:469,_ZN7libMesh10Parameters3setISt6vectorI12MaterialNameSaIS3_EEEERT_RKNSt7__cxx1112basic_stringIcSt11char_traitsIcESaIcEEE
FN:469,_ZN7libMesh10Parameters3setI9MooseEnumEERT_RKNSt7__cxx1112basic_stringIcSt11char_traitsIcESaIcEEE
FN:469,_ZN7libMesh10Parameters3setItEERT_RKNSt7__cxx1112basic_stringIcSt11char_traitsIcESaIcEEE
FN:469,_ZN7libMesh10Parameters3setIjEERT_RKNSt7__cxx1112basic_stringIcSt11char_traitsIcESaIcEEE
FN:469,_ZN7libMesh10Parameters3setIbEERT_RKNSt7__cxx1112basic_stringIcSt11char_traitsIcESaIcEEE
FN:469,_ZN7libMesh10Parameters3setIdEERT_RKNSt7__cxx1112basic_stringIcSt11char_traitsIcESaIcEEE
FN:469,_ZN7libMesh10Parameters3setISt6vectorI12FunctionNameSaIS3_EEEERT_RKNSt7__cxx1112basic_stringIcSt11char_traitsIcESaIcEEE
FN:558,_ZN7libMesh12print_helperI12BoundaryNameEEvRSoPKSt6vectorIT_SaIS4_EE
FN:558,_ZN7libMesh12print_helperI21NonlinearVariableNameEEvRSoPKSt6vectorIT_SaIS4_EE
FN:558,_ZN7libMesh12print_helperI12FunctionNameEEvRSoPKSt6vectorIT_SaIS4_EE
FN:558,_ZN7libMesh12print_helperI12MaterialNameEEvRSoPKSt6vectorIT_SaIS4_EE
FNDA:0,_ZNK7libMesh10Parameters9ParameterIbE5printERSo
FNDA:0,_ZN7libMesh10Parameters3setI21NonlinearVariableNameEERT_RKNSt7__cxx1112basic_stringIcSt11char_traitsIcESaIcEEE
FNDA:0,_ZNK7libMesh10Parameters9ParameterI21NonlinearVariableNameE5cloneEv
FNDA:0,_ZN7libMesh10Parameters6insertINSt7__cxx1112basic_stringIcSt11char_traitsIcESaIcEEEEEvRKS7_
FNDA:0,_ZNK7libMesh10Parameters9ParameterItE5cloneEv
FNDA:0,_ZNK7libMesh10Parameters9ParameterIjE5cloneEv
FNDA:442,_ZN7libMesh10Parameters14set_attributesERKNSt7__cxx1112basic_stringIcSt11char_traitsIcESaIcEEEb
FNDA:0,_ZNK7libMesh10Parameters9ParameterIdE5cloneEv
FNDA:0,_ZNK7libMesh10Parameters9ParameterINSt7__cxx1112basic_stringIcSt11char_traitsIcESaIcEEEE5printERSo
FNDA:0,_ZNK7libMesh10Parameters3getIbEERKT_St17basic_string_viewIcSt11char_traitsIcEE
FNDA:0,_ZNK7libMesh10Parameters9ParameterI12FunctionNameE5printERSo
FNDA:0,_ZNK7libMesh10Parameters9ParameterIbE4typeB5cxx11Ev
FNDA:0,_ZN7libMesh10Parameters3setI9MooseEnumEERT_RKNSt7__cxx1112basic_stringIcSt11char_traitsIcESaIcEEE
FNDA:0,_ZN7libMesh10Parameters3setISt6vectorI12MaterialNameSaIS3_EEEERT_RKNSt7__cxx1112basic_stringIcSt11char_traitsIcESaIcEEE
FNDA:0,_ZNK7libMesh10Parameters14have_parameterIbEEbSt17basic_string_viewIcSt11char_traitsIcEE
FNDA:0,_ZNK7libMesh10Parameters14have_parameterI21NonlinearVariableNameEEbSt17basic_string_viewIcSt11char_traitsIcEE
FNDA:0,_ZNK7libMesh10Parameters14have_parameterI20MaterialPropertyNameEEbSt17basic_string_viewIcSt11char_traitsIcEE
FNDA:0,_ZNK7libMesh10Parameters3getISt6vectorI12FunctionNameSaIS3_EEEERKT_St17basic_string_viewIcSt11char_traitsIcEE
FNDA:0,_ZNK7libMesh10Parameters9ParameterISt6vectorI12FunctionNameSaIS3_EEE5cloneEv
FNDA:11,_ZNK7libMesh10Parameters14have_parameterISt6vectorI21NonlinearVariableNameSaIS3_EEEEbSt17basic_string_viewIcSt11char_traitsIcEE
FNDA:0,_ZNK7libMesh10Parameters14have_parameterISt6vectorI12BoundaryNameSaIS3_EEEEbSt17basic_string_viewIcSt11char_traitsIcEE
FNDA:0,_ZN7libMesh12print_helperI12BoundaryNameEEvRSoPKSt6vectorIT_SaIS4_EE
FNDA:0,_ZNK7libMesh10Parameters14have_parameterINSt7__cxx1112basic_stringIcSt11char_traitsIcESaIcEEEEEbSt17basic_string_viewIcS5_E
FNDA:0,_ZNK7libMesh10Parameters9ParameterItE4typeB5cxx11Ev
FNDA:0,_ZNK7libMesh10Parameters9ParameterISt6vectorI12FunctionNameSaIS3_EEE5printERSo
FNDA:0,_ZNK7libMesh10Parameters9ParameterIjE4typeB5cxx11Ev
FNDA:0,_ZN7libMesh10ParametersaSERKS0_
FNDA:0,_ZNK7libMesh10Parameters9ParameterIP13FEProblemBaseE4typeB5cxx11Ev
FNDA:0,_ZNK7libMesh10Parameters9ParameterISt6vectorI12MaterialNameSaIS3_EEE5cloneEv
FNDA:0,_ZNK7libMesh10Parameters9ParameterIdE5printERSo
FNDA:0,_ZN7libMesh10Parameters6insertI12FunctionNameEEvRKNSt7__cxx1112basic_stringIcSt11char_traitsIcESaIcEEE
FNDA:0,_ZN7libMesh10Parameters3setItEERT_RKNSt7__cxx1112basic_stringIcSt11char_traitsIcESaIcEEE
FNDA:0,_ZNK7libMesh10Parameters9ParameterISt6vectorI21NonlinearVariableNameSaIS3_EEE5printERSo
FNDA:0,_ZNK7libMesh10Parameters14have_parameterISt6vectorI12MaterialNameSaIS3_EEEEbSt17basic_string_viewIcSt11char_traitsIcEE
FNDA:0,_ZNK7libMesh10Parameters9ParameterI12FunctionNameE4typeB5cxx11Ev
FNDA:0,_ZN7libMesh10Parameters6insertISt6vectorI12BoundaryNameSaIS3_EEEEvRKNSt7__cxx1112basic_stringIcSt11char_traitsIcESaIcEEE
FNDA:0,_ZN7libMesh10ParameterspLERKS0_
FNDA:0,_ZNK7libMesh10Parameters9ParameterISt6vectorI12BoundaryNameSaIS3_EEE4typeB5cxx11Ev
FNDA:0,_ZN7libMesh10Parameters5clearEv
FNDA:0,_ZNK7libMesh10Parameters9ParameterI14UserObjectNameE5cloneEv
FNDA:0,_ZNK7libMesh10Parameters14have_parameterI12FunctionNameEEbSt17basic_string_viewIcSt11char_traitsIcEE
FNDA:0,_ZNK7libMesh10Parameters9ParameterISt6vectorI12BoundaryNameSaIS3_EEE5printERSo
FNDA:0,_ZN7libMesh10Parameters6insertI14UserObjectNameEEvRKNSt7__cxx1112basic_stringIcSt11char_traitsIcESaIcEEE
FNDA:0,_ZNK7libMesh10Parameters9ParameterISt6vectorI12MaterialNameSaIS3_EEE4typeB5cxx11Ev
FNDA:0,_ZN7libMesh10Parameters3setIbEERT_RKNSt7__cxx1112basic_stringIcSt11char_traitsIcESaIcEEE
FNDA:0,_ZN7libMesh10Parameters3setIjEERT_RKNSt7__cxx1112basic_stringIcSt11char_traitsIcESaIcEEE
FNDA:0,_ZNK7libMesh10Parameters9ParameterIP13FEProblemBaseE5printERSo
FNDA:0,_ZN7libMesh12print_helperI21NonlinearVariableNameEEvRSoPKSt6vectorIT_SaIS4_EE
FNDA:0,_ZNK7libMesh10Parameters9ParameterI21NonlinearVariableNameE5printERSo
FNDA:0,_ZNK7libMesh10Parameters9ParameterIbE5cloneEv
FNDA:0,_ZNK7libMesh10Parameters9ParameterINSt7__cxx1112basic_stringIcSt11char_traitsIcESaIcEEEE5cloneEv
FNDA:0,_ZNK7libMesh10Parameters9ParameterI14UserObjectNameE5printERSo
FNDA:11,_ZN7libMesh10Parameters6insertISt6vectorI21NonlinearVariableNameSaIS3_EEEEvRKNSt7__cxx1112basic_stringIcSt11char_traitsIcESaIcEEE
FNDA:0,_ZNK7libMesh10Parameters3getISt6vectorI21NonlinearVariableNameSaIS3_EEEERKT_St17basic_string_viewIcSt11char_traitsIcEE
FNDA:0,_ZNK7libMesh10Parameters9ParameterISt6vectorI21NonlinearVariableNameSaIS3_EEE4typeB5cxx11Ev
FNDA:0,_ZNK7libMesh10Parameters9ParameterI12FunctionNameE5cloneEv
FNDA:0,_ZNK7libMesh10Parameters9ParameterI9MooseEnumE5cloneEv
FNDA:0,_ZNK7libMesh10Parameters9ParameterI9MooseEnumE5printERSo
FNDA:0,_ZNK7libMesh10Parameters5printERSo
FNDA:0,_ZNK7libMesh10Parameters9ParameterI21NonlinearVariableNameE4typeB5cxx11Ev
FNDA:0,_ZN7libMesh10ParametersD2Ev
FNDA:0,_ZNK7libMesh10Parameters14have_parameterI9MooseEnumEEbSt17basic_string_viewIcSt11char_traitsIcEE
FNDA:0,_ZNK7libMesh10Parameters9ParameterI9MooseEnumE4typeB5cxx11Ev
FNDA:0,_ZNK7libMesh10Parameters3getISt6vectorI12MaterialNameSaIS3_EEEERKT_St17basic_string_viewIcSt11char_traitsIcEE
FNDA:0,_ZN7libMesh12print_helperI12FunctionNameEEvRSoPKSt6vectorIT_SaIS4_EE
FNDA:0,_ZNK7libMesh10Parameters14have_parameterItEEbSt17basic_string_viewIcSt11char_traitsIcEE
FNDA:0,_ZNK7libMesh10Parameters9ParameterINSt7__cxx1112basic_stringIcSt11char_traitsIcESaIcEEEE4typeEv
FNDA:0,_ZNK7libMesh10Parameters3getIjEERKT_St17basic_string_viewIcSt11char_traitsIcEE
FNDA:0,_ZNK7libMesh10Parameters14have_parameterIjEEbSt17basic_string_viewIcSt11char_traitsIcEE
FNDA:0,_ZNK7libMesh10Parameters9ParameterIdE4typeB5cxx11Ev
FNDA:0,_ZN7libMesh10Parameters6insertIjEEvRKNSt7__cxx1112basic_stringIcSt11char_traitsIcESaIcEEE
FNDA:0,_ZNK7libMesh10Parameters3getItEERKT_St17basic_string_viewIcSt11char_traitsIcEE
FNDA:0,_ZNK7libMesh10Parameters3getINSt7__cxx1112basic_stringIcSt11char_traitsIcESaIcEEEEERKT_St17basic_string_viewIcS5_E
FNDA:0,_ZNK7libMesh10Parameters9ParameterISt6vectorI12MaterialNameSaIS3_EEE5printERSo
FNDA:0,_ZNK7libMesh10Parameters9ParameterISt6vectorI21NonlinearVariableNameSaIS3_EEE5cloneEv
FNDA:0,_ZNK7libMesh10Parameters9ParameterISt6vectorI12BoundaryNameSaIS3_EEE5cloneEv
FNDA:0,_ZNK7libMesh10Parameters9ParameterISt6vectorI12FunctionNameSaIS3_EEE4typeB5cxx11Ev
FNDA:0,_ZNK7libMesh10Parameters3getI20MaterialPropertyNameEERKT_St17basic_string_viewIcSt11char_traitsIcEE
FNDA:0,_ZNK7libMesh10Parameters9ParameterIP13FEProblemBaseE5cloneEv
FNDA:0,_ZNK7libMesh10Parameters9ParameterItE5printERSo
FNDA:0,_ZNK7libMesh10Parameters9ParameterI14UserObjectNameE4typeB5cxx11Ev
FNDA:0,_ZN7libMesh10Parameters6insertIdEEvRKNSt7__cxx1112basic_stringIcSt11char_traitsIcESaIcEEE
FNDA:0,_ZN7libMesh10Parameters3setISt6vectorI12FunctionNameSaIS3_EEEERT_RKNSt7__cxx1112basic_stringIcSt11char_traitsIcESaIcEEE
FNDA:0,_ZNK7libMesh10Parameters14have_parameterISt6vectorI12FunctionNameSaIS3_EEEEbSt17basic_string_viewIcSt11char_traitsIcEE
FNDA:0,_ZNK7libMesh10Parameters14have_parameterI14UserObjectNameEEbSt17basic_string_viewIcSt11char_traitsIcEE
FNDA:0,_ZNK7libMesh10Parameters3getIdEERKT_St17basic_string_viewIcSt11char_traitsIcEE
FNDA:0,_ZN7libMesh12print_helperI12MaterialNameEEvRSoPKSt6vectorIT_SaIS4_EE
FNDA:0,_ZN7libMesh10ParametersD0Ev
FNDA:0,_ZN7libMesh10Parameters3setIdEERT_RKNSt7__cxx1112basic_stringIcSt11char_traitsIcESaIcEEE
FNDA:0,_ZNK7libMesh10Parameters9ParameterIjE5printERSo
FNDA:0,_ZNK7libMesh10Parameters14have_parameterIdEEbSt17basic_string_viewIcSt11char_traitsIcEE
FNF:91
FNH:3
DA:85,20
DA:138,442
DA:206,11
DA:213,0
DA:218,0
DA:295,0
DA:297,0
DA:303,0
DA:306,0
DA:307,0
DA:311,0
DA:313,0
DA:315,0
DA:317,0
DA:318,0
DA:324,0
DA:327,0
DA:332,0
DA:335,0
DA:337,0
DA:341,0
DA:344,0
DA:345,0
DA:347,0
DA:360,0
DA:365,0
DA:366,0
DA:370,0
DA:372,0
DA:373,0
DA:377,0
DA:387,0
DA:388,0
DA:395,11
DA:399,11
DA:403,0
DA:404,0
DA:426,0
DA:428,0
DA:430,0
DA:432,0
DA:434,0
DA:438,0
DA:441,0
DA:442,0
DA:453,0
DA:458,11
DA:460,11
DA:461,11
DA:463,11
DA:464,11
DA:469,0
DA:471,0
DA:472,0
DA:474,0
DA:477,0
DA:480,0
DA:537,0
DA:558,0
DA:560,0
DA:561,0
DA:562,0
LF:62
LH:10
end_of_record
TN:
SF:/usr/share/miniconda3/envs/moose/libmesh/include/libmesh/reference_counter.h
FNF:0
FNH:0
DA:152,11
LF:1
LH:1
end_of_record
TN:
SF:/usr/share/miniconda3/envs/moose/libmesh/include/libmesh/remote_elem.h
FN:137,_ZNK7libMesh10RemoteElem7n_nodesEv
FN:140,_ZNK7libMesh10RemoteElem7n_sidesEv
FN:155,_ZNK7libMesh10RemoteElem9is_vertexEj
FN:216,_ZNK7libMesh10RemoteElem13default_orderEv
FNDA:0,_ZNK7libMesh10RemoteElem7n_sidesEv
FNDA:0,_ZNK7libMesh10RemoteElem9is_vertexEj
FNDA:0,_ZNK7libMesh10RemoteElem13default_orderEv
FNDA:0,_ZNK7libMesh10RemoteElem7n_nodesEv
FNF:4
FNH:0
DA:137,0
DA:138,0
DA:140,0
DA:141,0
DA:155,0
DA:156,0
DA:216,0
DA:217,0
LF:8
LH:0
end_of_record
TN:
SF:/usr/share/miniconda3/envs/moose/libmesh/include/libmesh/tensor_value.h
FNF:0
FNH:0
DA:44,0
DA:261,676024
DA:262,676024
DA:304,1655816
DA:305,4985336
LF:5
LH:4
end_of_record
TN:
SF:/usr/share/miniconda3/envs/moose/libmesh/include/libmesh/threads_pthread.h
FN:147,_ZN7libMesh7Threads10spin_mutexD2Ev
FN:502,_ZN7libMesh7Threads6atomicIjEppEv
FN:516,_ZN7libMesh7Threads6atomicIjEmmEv
FNDA:0,_ZN7libMesh7Threads6atomicIjEmmEv
FNDA:0,_ZN7libMesh7Threads10spin_mutexD2Ev
FNDA:11,_ZN7libMesh7Threads6atomicIjEppEv
FNF:3
FNH:1
DA:147,0
DA:149,11
DA:150,11
DA:502,11
DA:505,11
DA:506,11
DA:516,0
DA:519,0
DA:520,0
LF:9
LH:5
end_of_record
TN:
SF:/usr/share/miniconda3/envs/moose/libmesh/include/libmesh/type_tensor.h
FN:510,_ZN7libMesh10TypeTensorIN11MetaPhysicL10DualNumberIdNS1_28SemiDynamicSparseNumberArrayIdmNS1_8NWrapperILm64EEEEELb1EEEEC2Ev
FN:533,_ZN7libMesh10TypeTensorIN11MetaPhysicL10DualNumberIdNS1_28SemiDynamicSparseNumberArrayIdmNS1_8NWrapperILm64EEEEELb1EEEEC2ERKS7_SA_SA_SA_SA_SA_SA_SA_SA_
FN:628,_ZN7libMesh10TypeTensorIN11MetaPhysicL10DualNumberIdNS1_28SemiDynamicSparseNumberArrayIdmNS1_8NWrapperILm64EEEEELb1EEEEC2IdEERKNS0_IT_EE
FN:765,_ZNK7libMesh10TypeTensorIN11MetaPhysicL10DualNumberIdNS1_28SemiDynamicSparseNumberArrayIdmNS1_8NWrapperILm64EEEEELb1EEEE3rowEj
FN:794,_ZNK7libMesh10TypeTensorIN11MetaPhysicL10DualNumberIdNS1_28SemiDynamicSparseNumberArrayIdmNS1_8NWrapperILm64EEEEELb1EEEEplIS7_EENS0_INS_12CompareTypesIS7_T_E9supertypeEEERKNS0_ISB_EE
FN:864,_ZNK7libMesh10TypeTensorIN11MetaPhysicL10DualNumberIdNS1_28SemiDynamicSparseNumberArrayIdmNS1_8NWrapperILm64EEEEELb1EEEEmiIS7_EENS0_INS_12CompareTypesIS7_T_E9supertypeEEERKNS0_ISB_EE
FN:864,_ZNK7libMesh10TypeTensorIN11MetaPhysicL10DualNumberIdNS1_28SemiDynamicSparseNumberArrayIdmNS1_8NWrapperILm64EEEEELb1EEEEmiIdEENS0_INS_12CompareTypesIS7_T_E9supertypeEEERKNS0_ISB_EE
FN:965,_ZNK7libMesh10TypeTensorIN11MetaPhysicL10DualNumberIdNS1_28SemiDynamicSparseNumberArrayIdmNS1_8NWrapperILm64EEEEELb1EEEEmlIS7_EENS_9boostcopy11enable_if_cIXsrNS_12ScalarTraitsIT_EE5valueENS0_IDTmlcvS7__Efp_EEEE4typeERKSD_
FN:965,_ZNK7libMesh10TypeTensorIN11MetaPhysicL10DualNumberIdNS1_28SemiDynamicSparseNumberArrayIdmNS1_8NWrapperILm64EEEEELb1EEEEmlIdEENS_9boostcopy11enable_if_cIXsrNS_12ScalarTraitsIT_EE5valueENS0_IDTmlcvS7__Efp_EEEE4typeERKSD_
FN:1015,_ZNK7libMesh10TypeTensorIN11MetaPhysicL10DualNumberIdNS1_28SemiDynamicSparseNumberArrayIdmNS1_8NWrapperILm64EEEEELb1EEEEdvIdEENS_9boostcopy11enable_if_cIXsrNS_12ScalarTraitsIT_EE5valueENS0_INS_12CompareTypesIS7_SD_E9supertypeEEEE4typeERKSD_
FN:1015,_ZNK7libMesh10TypeTensorIN11MetaPhysicL10DualNumberIdNS1_28SemiDynamicSparseNumberArrayIdmNS1_8NWrapperILm64EEEEELb1EEEEdvIS7_EENS_9boostcopy11enable_if_cIXsrNS_12ScalarTraitsIT_EE5valueENS0_INS_12CompareTypesIS7_SD_E9supertypeEEEE4typeERKSD_
FN:1233,_ZNK7libMesh10TypeTensorIdEmlIN11MetaPhysicL10DualNumberIdNS3_28SemiDynamicSparseNumberArrayIdmNS3_8NWrapperILm64EEEEELb1EEEEENS0_INS_12CompareTypesIdT_E9supertypeEEERKNS0_ISB_EE
FN:1233,_ZNK7libMesh10TypeTensorIN11MetaPhysicL10DualNumberIdNS1_28SemiDynamicSparseNumberArrayIdmNS1_8NWrapperILm64EEEEELb1EEEEmlIS7_EENS0_INS_12CompareTypesIS7_T_E9supertypeEEERKNS0_ISB_EE
FN:1338,_ZN7libMesh10TypeTensorIN11MetaPhysicL10DualNumberIdNS1_28SemiDynamicSparseNumberArrayIdmNS1_8NWrapperILm64EEEEELb1EEEE4zeroEv
FNDA:0,_ZNK7libMesh10TypeTensorIN11MetaPhysicL10DualNumberIdNS1_28SemiDynamicSparseNumberArrayIdmNS1_8NWrapperILm64EEEEELb1EEEEmiIS7_EENS0_INS_12CompareTypesIS7_T_E9supertypeEEERKNS0_ISB_EE
FNDA:0,_ZNK7libMesh10TypeTensorIN11MetaPhysicL10DualNumberIdNS1_28SemiDynamicSparseNumberArrayIdmNS1_8NWrapperILm64EEEEELb1EEEEmlIS7_EENS0_INS_12CompareTypesIS7_T_E9supertypeEEERKNS0_ISB_EE
FNDA:1655816,_ZNK7libMesh10TypeTensorIN11MetaPhysicL10DualNumberIdNS1_28SemiDynamicSparseNumberArrayIdmNS1_8NWrapperILm64EEEEELb1EEEEmlIdEENS_9boostcopy11enable_if_cIXsrNS_12ScalarTraitsIT_EE5valueENS0_IDTmlcvS7__Efp_EEEE4typeERKSD_
FNDA:334848,_ZNK7libMesh10TypeTensorIN11MetaPhysicL10DualNumberIdNS1_28SemiDynamicSparseNumberArrayIdmNS1_8NWrapperILm64EEEEELb1EEEEmlIS7_EENS_9boostcopy11enable_if_cIXsrNS_12ScalarTraitsIT_EE5valueENS0_IDTmlcvS7__Efp_EEEE4typeERKSD_
FNDA:1981452,_ZNK7libMesh10TypeTensorIN11MetaPhysicL10DualNumberIdNS1_28SemiDynamicSparseNumberArrayIdmNS1_8NWrapperILm64EEEEELb1EEEEplIS7_EENS0_INS_12CompareTypesIS7_T_E9supertypeEEERKNS0_ISB_EE
FNDA:0,_ZNK7libMesh10TypeTensorIdEmlIN11MetaPhysicL10DualNumberIdNS3_28SemiDynamicSparseNumberArrayIdmNS3_8NWrapperILm64EEEEELb1EEEEENS0_INS_12CompareTypesIdT_E9supertypeEEERKNS0_ISB_EE
FNDA:4985336,_ZN7libMesh10TypeTensorIN11MetaPhysicL10DualNumberIdNS1_28SemiDynamicSparseNumberArrayIdmNS1_8NWrapperILm64EEEEELb1EEEEC2ERKS7_SA_SA_SA_SA_SA_SA_SA_SA_
FNDA:332256,_ZNK7libMesh10TypeTensorIN11MetaPhysicL10DualNumberIdNS1_28SemiDynamicSparseNumberArrayIdmNS1_8NWrapperILm64EEEEELb1EEEEdvIS7_EENS_9boostcopy11enable_if_cIXsrNS_12ScalarTraitsIT_EE5valueENS0_INS_12CompareTypesIS7_SD_E9supertypeEEEE4typeERKSD_
FNDA:660484,_ZNK7libMesh10TypeTensorIN11MetaPhysicL10DualNumberIdNS1_28SemiDynamicSparseNumberArrayIdmNS1_8NWrapperILm64EEEEELb1EEEEmiIdEENS0_INS_12CompareTypesIS7_T_E9supertypeEEERKNS0_ISB_EE
FNDA:676024,_ZN7libMesh10TypeTensorIN11MetaPhysicL10DualNumberIdNS1_28SemiDynamicSparseNumberArrayIdmNS1_8NWrapperILm64EEEEELb1EEEEC2IdEERKNS0_IT_EE
FNDA:350388,_ZN7libMesh10TypeTensorIN11MetaPhysicL10DualNumberIdNS1_28SemiDynamicSparseNumberArrayIdmNS1_8NWrapperILm64EEEEELb1EEEE4zeroEv
FNDA:20480,_ZNK7libMesh10TypeTensorIN11MetaPhysicL10DualNumberIdNS1_28SemiDynamicSparseNumberArrayIdmNS1_8NWrapperILm64EEEEELb1EEEEdvIdEENS_9boostcopy11enable_if_cIXsrNS_12ScalarTraitsIT_EE5valueENS0_INS_12CompareTypesIS7_SD_E9supertypeEEEE4typeERKSD_
FNDA:0,_ZN7libMesh10TypeTensorIN11MetaPhysicL10DualNumberIdNS1_28SemiDynamicSparseNumberArrayIdmNS1_8NWrapperILm64EEEEELb1EEEEC2Ev
FNDA:9240896,_ZNK7libMesh10TypeTensorIN11MetaPhysicL10DualNumberIdNS1_28SemiDynamicSparseNumberArrayIdmNS1_8NWrapperILm64EEEEELb1EEEE3rowEj
FNF:14
FNH:10
DA:510,0
DA:512,0
DA:515,0
DA:516,0
DA:517,0
DA:521,0
DA:522,0
DA:523,0
DA:524,0
DA:525,0
DA:527,0
DA:533,4985336
DA:541,49853360
DA:543,4985336
DA:557,4985336
DA:558,4985336
DA:559,4985336
DA:560,4985336
DA:561,4985336
DA:562,4985336
DA:563,4985336
DA:564,4985336
DA:573,4985336
DA:628,6760240
DA:631,6760240
DA:632,6084216
DA:633,676024
DA:689,2011144
DA:718,0
DA:738,0
DA:765,9240896
DA:767,9240896
DA:769,36963584
DA:770,27722688
DA:772,9240896
DA:794,1981452
DA:810,1981452
DA:811,1981452
DA:812,1981452
DA:813,1981452
DA:814,1981452
DA:815,1981452
DA:816,1981452
DA:817,1981452
DA:818,3962904
DA:864,660484
DA:880,660484
DA:881,660484
DA:882,660484
DA:883,660484
DA:884,660484
DA:885,660484
DA:886,660484
DA:887,660484
DA:888,1320968
DA:965,1990664
DA:984,1990664
DA:985,1990664
DA:986,1990664
DA:987,1990664
DA:988,1990664
DA:989,1990664
DA:990,1990664
DA:991,1990664
DA:992,3981328
DA:1006,1990664
DA:1015,352736
DA:1033,352736
DA:1034,352736
DA:1035,352736
DA:1036,352736
DA:1037,352736
DA:1038,352736
DA:1039,352736
DA:1040,352736
DA:1041,705472
DA:1233,0
DA:1235,0
DA:1236,0
DA:1237,0
DA:1238,0
DA:1239,0
DA:1241,0
DA:1338,350388
DA:1340,3503880
DA:1341,3153492
DA:1342,350388
LF:87
LH:67
end_of_record
TN:
SF:/usr/share/miniconda3/envs/moose/libmesh/include/libmesh/type_vector.h
FN:131,_ZN7libMesh10TypeVectorIN11MetaPhysicL10DualNumberIdNS1_28SemiDynamicSparseNumberArrayIdmNS1_8NWrapperILm64EEEEELb1EEEEC2ERKS8_
FN:427,_ZN7libMesh10TypeVectorIN11MetaPhysicL10DualNumberIdNS1_28SemiDynamicSparseNumberArrayIdmNS1_8NWrapperILm64EEEEELb1EEEEC2Ev
FN:444,_ZN7libMesh10TypeVectorIN11MetaPhysicL10DualNumberIdNS1_28SemiDynamicSparseNumberArrayIdmNS1_8NWrapperILm64EEEEELb1EEEEC2ERKS7_SA_SA_
FN:652,_ZNK7libMesh10TypeVectorIN11MetaPhysicL10DualNumberIdNS1_28SemiDynamicSparseNumberArrayIdmNS1_8NWrapperILm64EEEEELb1EEEEmiIS7_EENS0_INS_12CompareTypesIS7_T_E9supertypeEEERKNS0_ISB_EE
FN:739,_ZNK7libMesh10TypeVectorIN11MetaPhysicL10DualNumberIdNS1_28SemiDynamicSparseNumberArrayIdmNS1_8NWrapperILm64EEEEELb1EEEEmlIS7_EENS_9boostcopy11enable_if_cIXsrNS_12ScalarTraitsIT_EE5valueENS0_INS_12CompareTypesIS7_SD_E9supertypeEEEE4typeERKSD_
FN:850,_ZNK7libMesh10TypeVectorIN11MetaPhysicL10DualNumberIdNS1_28SemiDynamicSparseNumberArrayIdmNS1_8NWrapperILm64EEEEELb1EEEEmlIS7_EENS_12CompareTypesIS7_T_E9supertypeERKNS0_ISB_EE
FN:850,_ZNK7libMesh10TypeVectorIN11MetaPhysicL10DualNumberIdNS1_28SemiDynamicSparseNumberArrayIdmNS1_8NWrapperILm64EEEEELb1EEEEmlIdEENS_12CompareTypesIS7_T_E9supertypeERKNS0_ISB_EE
FNDA:9240896,_ZNK7libMesh10TypeVectorIN11MetaPhysicL10DualNumberIdNS1_28SemiDynamicSparseNumberArrayIdmNS1_8NWrapperILm64EEEEELb1EEEEmlIS7_EENS_12CompareTypesIS7_T_E9supertypeERKNS0_ISB_EE
FNDA:9240896,_ZN7libMesh10TypeVectorIN11MetaPhysicL10DualNumberIdNS1_28SemiDynamicSparseNumberArrayIdmNS1_8NWrapperILm64EEEEELb1EEEEC2Ev
FNDA:459095,_ZN7libMesh10TypeVectorIN11MetaPhysicL10DualNumberIdNS1_28SemiDynamicSparseNumberArrayIdmNS1_8NWrapperILm64EEEEELb1EEEEC2ERKS7_SA_SA_
FNDA:27135,_ZNK7libMesh10TypeVectorIN11MetaPhysicL10DualNumberIdNS1_28SemiDynamicSparseNumberArrayIdmNS1_8NWrapperILm64EEEEELb1EEEEmlIdEENS_12CompareTypesIS7_T_E9supertypeERKNS0_ISB_EE
FNDA:0,_ZNK7libMesh10TypeVectorIN11MetaPhysicL10DualNumberIdNS1_28SemiDynamicSparseNumberArrayIdmNS1_8NWrapperILm64EEEEELb1EEEEmiIS7_EENS0_INS_12CompareTypesIS7_T_E9supertypeEEERKNS0_ISB_EE
FNDA:459095,_ZNK7libMesh10TypeVectorIN11MetaPhysicL10DualNumberIdNS1_28SemiDynamicSparseNumberArrayIdmNS1_8NWrapperILm64EEEEELb1EEEEmlIS7_EENS_9boostcopy11enable_if_cIXsrNS_12ScalarTraitsIT_EE5valueENS0_INS_12CompareTypesIS7_SD_E9supertypeEEEE4typeERKSD_
FNDA:9699991,_ZN7libMesh10TypeVectorIN11MetaPhysicL10DualNumberIdNS1_28SemiDynamicSparseNumberArrayIdmNS1_8NWrapperILm64EEEEELb1EEEEC2ERKS8_
FNF:7
FNH:6
DA:131,38799964
DA:136,9240896
DA:427,36963584
DA:429,9240896
DA:432,9240896
DA:436,9240896
DA:438,9240896
DA:444,459095
DA:446,1836380
DA:448,459095
DA:451,459095
DA:458,459095
DA:463,459095
DA:546,27764278
DA:557,2110400
DA:652,0
DA:666,0
DA:667,0
DA:668,0
DA:739,459095
DA:753,459095
DA:754,459095
DA:755,918190
DA:769,459095
DA:850,9268031
DA:862,9268031
DA:863,9268031
DA:864,9295166
LF:28
LH:24
end_of_record
TN:
SF:/usr/share/miniconda3/envs/moose/libmesh/include/libmesh/vector_value.h
FNF:0
FNH:0
DA:47,9240896
DA:150,0
DA:151,0
DA:208,9240896
DA:209,9699991
LF:5
LH:3
end_of_record
TN:
SF:/usr/share/miniconda3/envs/moose/libmesh/include/metaphysicl/dualnumber.h
FN:75,_ZNK11MetaPhysicL10DualNumberIdNS_28SemiDynamicSparseNumberArrayIdmNS_8NWrapperILm64EEEEELb1EEngEv
FN:99,_ZN11MetaPhysicL10DualNumberIdNS_28SemiDynamicSparseNumberArrayIdmNS_8NWrapperILm64EEEEELb1EEaSERKS5_
FN:113,_ZN11MetaPhysicL10DualNumberIdNS_28SemiDynamicSparseNumberArrayIdmNS_8NWrapperILm64EEEEELb1EEaSEOS5_
FN:140,_ZN11MetaPhysicL10DualNumberIdNS_28SemiDynamicSparseNumberArrayIdmNS_8NWrapperILm64EEEEELb1EEC2ERKS5_
FN:150,_ZN11MetaPhysicL10DualNumberIdNS_28SemiDynamicSparseNumberArrayIdmNS_8NWrapperILm64EEEEELb1EEC2EOS5_
FN:193,_ZN11MetaPhysicL10DualNumberIdNS_28SemiDynamicSparseNumberArrayIdmNS_8NWrapperILm64EEEEELb1EEaSIdEERS5_RKT_
FN:220,_ZN11MetaPhysicL10DualNumberIdNS_28SemiDynamicSparseNumberArrayIdmNS_8NWrapperILm64EEEEELb1EEC2IdEERKT_NSt9enable_ifIXsrSt14is_convertibleIS7_dE5valueEPvE4typeE
FN:220,_ZN11MetaPhysicL10DualNumberIdNS_28SemiDynamicSparseNumberArrayIdmNS_8NWrapperILm64EEEEELb1EEC2IiEERKT_NSt9enable_ifIXsrSt14is_convertibleIS7_dE5valueEPvE4typeE
FN:230,_ZN11MetaPhysicL10DualNumberIdNS_28SemiDynamicSparseNumberArrayIdmNS_8NWrapperILm64EEEEELb1EEC2IdS4_EERKT_RKT0_
FN:230,_ZN11MetaPhysicL10DualNumberIdNS_28SemiDynamicSparseNumberArrayIdmNS_8NWrapperILm64EEEEELb1EEC2IdiEERKT_RKT0_
FN:265,_ZN11MetaPhysicL26derivative_multiply_helperIdNS_28SemiDynamicSparseNumberArrayIdmNS_8NWrapperILm64EEEEELb1EEEvRNS_10DualNumberIT_T0_XT1_EEERKS8_
FN:316,_ZN11MetaPhysicL26derivative_division_helperIdNS_28SemiDynamicSparseNumberArrayIdmNS_8NWrapperILm64EEEEELb1EEEvRNS_10DualNumberIT_T0_XT1_EEERKS8_
FN:470,_ZN11MetaPhysicL10DualNumberIdNS_28SemiDynamicSparseNumberArrayIdmNS_8NWrapperILm64EEEEELb1EEpLIdS4_EERS5_RKNS0_IT_T0_Lb1EEE
FN:472,_ZN11MetaPhysicL10DualNumberIdNS_28SemiDynamicSparseNumberArrayIdmNS_8NWrapperILm64EEEEELb1EEmIIdS4_EERS5_RKNS0_IT_T0_Lb1EEE
FN:474,_ZN11MetaPhysicL10DualNumberIdNS_28SemiDynamicSparseNumberArrayIdmNS_8NWrapperILm64EEEEELb1EEmLIdEERS5_RKT_
FN:474,_ZN11MetaPhysicL10DualNumberIdNS_28SemiDynamicSparseNumberArrayIdmNS_8NWrapperILm64EEEEELb1EEmLIdS4_EERS5_RKNS0_IT_T0_Lb1EEE
FN:479,_ZN11MetaPhysicL10DualNumberIdNS_28SemiDynamicSparseNumberArrayIdmNS_8NWrapperILm64EEEEELb1EEdVIdEERS5_RKT_
FN:479,_ZN11MetaPhysicL10DualNumberIdNS_28SemiDynamicSparseNumberArrayIdmNS_8NWrapperILm64EEEEELb1EEdVIdS4_EERS5_RKNS0_IT_T0_Lb1EEE
FN:641,_ZSt3expIdN11MetaPhysicL28SemiDynamicSparseNumberArrayIdmNS0_8NWrapperILm64EEEEELb1EENS0_10DualNumberIT_T0_XT1_EEEOS8_
FN:653,_ZSt3absIdN11MetaPhysicL28SemiDynamicSparseNumberArrayIdmNS0_8NWrapperILm64EEEEELb1EENS0_10DualNumberIT_T0_XT1_EEEOS8_
FN:653,_ZSt3absIdN11MetaPhysicL28SemiDynamicSparseNumberArrayIdmNS0_8NWrapperILm64EEEEELb1EENS0_10DualNumberIT_T0_XT1_EEERKS8_
FN:886,_ZSt3powIddN11MetaPhysicL28SemiDynamicSparseNumberArrayIdmNS0_8NWrapperILm64EEEEELb1EENS0_12CompareTypesINS0_10DualNumberIT_T1_XT2_EEET0_Lb0EvE9supertypeERKS9_RKSA_
FNDA:32699433,_ZN11MetaPhysicL10DualNumberIdNS_28SemiDynamicSparseNumberArrayIdmNS_8NWrapperILm64EEEEELb1EEaSEOS5_
FNDA:10073044,_ZN11MetaPhysicL26derivative_division_helperIdNS_28SemiDynamicSparseNumberArrayIdmNS_8NWrapperILm64EEEEELb1EEEvRNS_10DualNumberIT_T0_XT1_EEERKS8_
FNDA:0,_ZSt3powIddN11MetaPhysicL28SemiDynamicSparseNumberArrayIdmNS0_8NWrapperILm64EEEEELb1EENS0_12CompareTypesINS0_10DualNumberIT_T1_XT2_EEET0_Lb0EvE9supertypeERKS9_RKSA_
FNDA:19558400,_ZSt3expIdN11MetaPhysicL28SemiDynamicSparseNumberArrayIdmNS0_8NWrapperILm64EEEEELb1EENS0_10DualNumberIT_T0_XT1_EEEOS8_
FNDA:11538876,_ZN11MetaPhysicL10DualNumberIdNS_28SemiDynamicSparseNumberArrayIdmNS_8NWrapperILm64EEEEELb1EEmIIdS4_EERS5_RKNS0_IT_T0_Lb1EEE
FNDA:23144030,_ZN11MetaPhysicL10DualNumberIdNS_28SemiDynamicSparseNumberArrayIdmNS_8NWrapperILm64EEEEELb1EEdVIdS4_EERS5_RKNS0_IT_T0_Lb1EEE
FNDA:1051648,_ZSt3absIdN11MetaPhysicL28SemiDynamicSparseNumberArrayIdmNS0_8NWrapperILm64EEEEELb1EENS0_10DualNumberIT_T0_XT1_EEERKS8_
FNDA:73968587,_ZN11MetaPhysicL10DualNumberIdNS_28SemiDynamicSparseNumberArrayIdmNS_8NWrapperILm64EEEEELb1EEaSERKS5_
FNDA:716800,_ZSt3absIdN11MetaPhysicL28SemiDynamicSparseNumberArrayIdmNS0_8NWrapperILm64EEEEELb1EENS0_10DualNumberIT_T0_XT1_EEEOS8_
FNDA:90517487,_ZN11MetaPhysicL10DualNumberIdNS_28SemiDynamicSparseNumberArrayIdmNS_8NWrapperILm64EEEEELb1EEmLIdS4_EERS5_RKNS0_IT_T0_Lb1EEE
FNDA:37989992,_ZN11MetaPhysicL26derivative_multiply_helperIdNS_28SemiDynamicSparseNumberArrayIdmNS_8NWrapperILm64EEEEELb1EEEvRNS_10DualNumberIT_T0_XT1_EEERKS8_
FNDA:27135,_ZNK11MetaPhysicL10DualNumberIdNS_28SemiDynamicSparseNumberArrayIdmNS_8NWrapperILm64EEEEELb1EEngEv
FNDA:68945404,_ZN11MetaPhysicL10DualNumberIdNS_28SemiDynamicSparseNumberArrayIdmNS_8NWrapperILm64EEEEELb1EEC2IdEERKT_NSt9enable_ifIXsrSt14is_convertibleIS7_dE5valueEPvE4typeE
FNDA:28941829,_ZN11MetaPhysicL10DualNumberIdNS_28SemiDynamicSparseNumberArrayIdmNS_8NWrapperILm64EEEEELb1EEmLIdEERS5_RKT_
FNDA:162832995,_ZN11MetaPhysicL10DualNumberIdNS_28SemiDynamicSparseNumberArrayIdmNS_8NWrapperILm64EEEEELb1EEC2ERKS5_
FNDA:27135,_ZN11MetaPhysicL10DualNumberIdNS_28SemiDynamicSparseNumberArrayIdmNS_8NWrapperILm64EEEEELb1EEC2IdS4_EERKT_RKT0_
FNDA:0,_ZN11MetaPhysicL10DualNumberIdNS_28SemiDynamicSparseNumberArrayIdmNS_8NWrapperILm64EEEEELb1EEC2IdiEERKT_RKT0_
FNDA:20390326,_ZN11MetaPhysicL10DualNumberIdNS_28SemiDynamicSparseNumberArrayIdmNS_8NWrapperILm64EEEEELb1EEdVIdEERS5_RKT_
FNDA:47751642,_ZN11MetaPhysicL10DualNumberIdNS_28SemiDynamicSparseNumberArrayIdmNS_8NWrapperILm64EEEEELb1EEpLIdS4_EERS5_RKNS0_IT_T0_Lb1EEE
FNDA:11421522,_ZN11MetaPhysicL10DualNumberIdNS_28SemiDynamicSparseNumberArrayIdmNS_8NWrapperILm64EEEEELb1EEaSIdEERS5_RKT_
FNDA:0,_ZN11MetaPhysicL10DualNumberIdNS_28SemiDynamicSparseNumberArrayIdmNS_8NWrapperILm64EEEEELb1EEC2IiEERKT_NSt9enable_ifIXsrSt14is_convertibleIS7_dE5valueEPvE4typeE
FNDA:97423457,_ZN11MetaPhysicL10DualNumberIdNS_28SemiDynamicSparseNumberArrayIdmNS_8NWrapperILm64EEEEELb1EEC2EOS5_
FNF:22
FNH:19
DA:50,37989992
DA:55,0
DA:65,25239508
DA:75,27135
DA:99,73968587
DA:101,73968587
DA:103,73968587
DA:106,73968587
DA:113,32699433
DA:115,32699433
DA:117,32699433
DA:120,32699433
DA:140,162832995
DA:141,162832995
DA:143,162832995
DA:145,162832995
DA:150,97423457
DA:151,97423457
DA:153,97423457
DA:155,97423457
DA:193,11421522
DA:195,11421522
DA:196,11421522
DA:197,5314272
DA:198,11421522
DA:220,68945404
DA:221,68945404
DA:223,68945404
DA:224,29945532
DA:225,68945404
DA:230,27135
DA:232,27135
DA:234,27135
DA:235,21614
DA:236,27135
DA:265,37989992
DA:268,37989992
DA:271,37989992
DA:272,0
DA:275,37989992
DA:276,37989992
DA:316,10073044
DA:319,10073044
DA:322,10073044
DA:323,0
DA:324,0
DA:327,10073044
DA:328,10073044
DA:470,70119837
DA:472,20939638
DA:474,200431228
DA:479,84246824
DA:516,0
DA:517,0
DA:519,1768448
DA:521,334848
DA:641,28115200
DA:653,2082048
DA:880,0
DA:886,0
LF:60
LH:52
end_of_record
TN:
SF:/usr/share/miniconda3/envs/moose/libmesh/include/metaphysicl/dualnumber_decl.h
FNF:0
FNH:0
DA:59,22885465
DA:178,68945404
DA:181,27135
LF:3
LH:3
end_of_record
TN:
SF:/usr/share/miniconda3/envs/moose/libmesh/include/metaphysicl/dynamic_std_array_wrapper.h
FN:54,_ZN11MetaPhysicL22DynamicStdArrayWrapperIdNS_8NWrapperILm64EEEEC2ERKS3_
FN:54,_ZN11MetaPhysicL22DynamicStdArrayWrapperImNS_8NWrapperILm64EEEEC2ERKS3_
FN:71,_ZN11MetaPhysicL22DynamicStdArrayWrapperImNS_8NWrapperILm64EEEEaSERKS3_
FN:71,_ZN11MetaPhysicL22DynamicStdArrayWrapperIdNS_8NWrapperILm64EEEEaSERKS3_
FN:122,_ZN11MetaPhysicL22DynamicStdArrayWrapperImNS_8NWrapperILm64EEEE6resizeEm
FN:122,_ZN11MetaPhysicL22DynamicStdArrayWrapperIdNS_8NWrapperILm64EEEE6resizeEm
FNDA:100926698,_ZN11MetaPhysicL22DynamicStdArrayWrapperIdNS_8NWrapperILm64EEEEaSERKS3_
FNDA:78716875,_ZN11MetaPhysicL22DynamicStdArrayWrapperIdNS_8NWrapperILm64EEEE6resizeEm
FNDA:21614,_ZN11MetaPhysicL22DynamicStdArrayWrapperImNS_8NWrapperILm64EEEEC2ERKS3_
FNDA:78716875,_ZN11MetaPhysicL22DynamicStdArrayWrapperImNS_8NWrapperILm64EEEE6resizeEm
FNDA:100926698,_ZN11MetaPhysicL22DynamicStdArrayWrapperImNS_8NWrapperILm64EEEEaSERKS3_
FNDA:21614,_ZN11MetaPhysicL22DynamicStdArrayWrapperIdNS_8NWrapperILm64EEEEC2ERKS3_
FNF:6
FNH:6
DA:54,43228
DA:56,43228
DA:58,43228
DA:59,43228
DA:62,0
DA:64,0
DA:67,0
DA:68,0
DA:71,201853396
DA:73,201853396
DA:75,201853396
DA:76,201853396
DA:82,179230304
DA:85,2010074980
DA:86,1830844676
DA:90,471926555
DA:99,244155832
DA:105,1623788746
DA:120,158045371
DA:122,157433750
DA:124,157433750
DA:125,0
DA:126,157433750
DA:127,157433750
DA:132,30626704
DA:138,30626704
DA:143,30626704
LF:27
LH:22
end_of_record
TN:
SF:/usr/share/miniconda3/envs/moose/libmesh/include/metaphysicl/dynamicsparsenumberbase.h
FN:48,_ZN11MetaPhysicL23DynamicSparseNumberBaseINS_22DynamicStdArrayWrapperIdNS_8NWrapperILm64EEEEENS1_ImS3_EENS_28SemiDynamicSparseNumberArrayEJdmS3_EE6resizeEm
FN:264,_ZNK11MetaPhysicL23DynamicSparseNumberBaseINS_22DynamicStdArrayWrapperIdNS_8NWrapperILm64EEEEENS1_ImS3_EENS_28SemiDynamicSparseNumberArrayEJdmS3_EEngEv
FN:282,_ZN11MetaPhysicL23DynamicSparseNumberBaseINS_22DynamicStdArrayWrapperIdNS_8NWrapperILm64EEEEENS1_ImS3_EENS_28SemiDynamicSparseNumberArrayEJdmS3_EE14sparsity_unionIS5_EEvRKT_
FN:553,_ZN11MetaPhysicL23DynamicSparseNumberBaseINS_22DynamicStdArrayWrapperIdNS_8NWrapperILm64EEEEENS1_ImS3_EENS_28SemiDynamicSparseNumberArrayEJdmS3_EEpLIJdmS3_EEERNS6_IdmS3_EERKNS6_IDpT_EE
FN:588,_ZN11MetaPhysicL23DynamicSparseNumberBaseINS_22DynamicStdArrayWrapperIdNS_8NWrapperILm64EEEEENS1_ImS3_EENS_28SemiDynamicSparseNumberArrayEJdmS3_EEmIIJdmS3_EEERNS6_IdmS3_EERKNS6_IDpT_EE
FN:950,_ZN11MetaPhysicLmlINS_28SemiDynamicSparseNumberArrayENS_22DynamicStdArrayWrapperIdNS_8NWrapperILm64EEEEENS2_ImS4_EEJdmS4_EdEENS_14MultipliesTypeIT_IJDpT2_EET3_Lb1EvE9supertypeERKSC_RKNS_23DynamicSparseNumberBaseIT0_T1_T_JSA_EEE
FN:972,_ZN11MetaPhysicLmlINS_28SemiDynamicSparseNumberArrayENS_22DynamicStdArrayWrapperIdNS_8NWrapperILm64EEEEENS2_ImS4_EEJdmS4_EdEENS_14MultipliesTypeIT_IJDpT2_EET3_Lb0EvE9supertypeERKNS_23DynamicSparseNumberBaseIT0_T1_T_JSA_EEERKSC_
FN:993,_ZN11MetaPhysicLdvINS_28SemiDynamicSparseNumberArrayENS_22DynamicStdArrayWrapperIdNS_8NWrapperILm64EEEEENS2_ImS4_EEJdmS4_EdEENS_11DividesTypeIT_IJDpT2_EET3_Lb0EvE9supertypeERKNS_23DynamicSparseNumberBaseIT0_T1_T_JSA_EEERKSC_
FNDA:15197520,_ZN11MetaPhysicL23DynamicSparseNumberBaseINS_22DynamicStdArrayWrapperIdNS_8NWrapperILm64EEEEENS1_ImS3_EENS_28SemiDynamicSparseNumberArrayEJdmS3_EEmIIJdmS3_EEERNS6_IdmS3_EERKNS6_IDpT_EE
FNDA:0,_ZN11MetaPhysicLmlINS_28SemiDynamicSparseNumberArrayENS_22DynamicStdArrayWrapperIdNS_8NWrapperILm64EEEEENS2_ImS4_EEJdmS4_EdEENS_14MultipliesTypeIT_IJDpT2_EET3_Lb0EvE9supertypeERKNS_23DynamicSparseNumberBaseIT0_T1_T_JSA_EEERKSC_
FNDA:48063036,_ZN11MetaPhysicLmlINS_28SemiDynamicSparseNumberArrayENS_22DynamicStdArrayWrapperIdNS_8NWrapperILm64EEEEENS2_ImS4_EEJdmS4_EdEENS_14MultipliesTypeIT_IJDpT2_EET3_Lb1EvE9supertypeERKSC_RKNS_23DynamicSparseNumberBaseIT0_T1_T_JSA_EEE
FNDA:78716875,_ZN11MetaPhysicL23DynamicSparseNumberBaseINS_22DynamicStdArrayWrapperIdNS_8NWrapperILm64EEEEENS1_ImS3_EENS_28SemiDynamicSparseNumberArrayEJdmS3_EE6resizeEm
FNDA:27135,_ZNK11MetaPhysicL23DynamicSparseNumberBaseINS_22DynamicStdArrayWrapperIdNS_8NWrapperILm64EEEEENS1_ImS3_EENS_28SemiDynamicSparseNumberArrayEJdmS3_EEngEv
FNDA:0,_ZN11MetaPhysicLdvINS_28SemiDynamicSparseNumberArrayENS_22DynamicStdArrayWrapperIdNS_8NWrapperILm64EEEEENS2_ImS4_EEJdmS4_EdEENS_11DividesTypeIT_IJDpT2_EET3_Lb0EvE9supertypeERKNS_23DynamicSparseNumberBaseIT0_T1_T_JSA_EEERKSC_
FNDA:58105024,_ZN11MetaPhysicL23DynamicSparseNumberBaseINS_22DynamicStdArrayWrapperIdNS_8NWrapperILm64EEEEENS1_ImS3_EENS_28SemiDynamicSparseNumberArrayEJdmS3_EEpLIJdmS3_EEERNS6_IdmS3_EERKNS6_IDpT_EE
FNDA:73302544,_ZN11MetaPhysicL23DynamicSparseNumberBaseINS_22DynamicStdArrayWrapperIdNS_8NWrapperILm64EEEEENS1_ImS3_EENS_28SemiDynamicSparseNumberArrayEJdmS3_EE14sparsity_unionIS5_EEvRKT_
FNF:8
FNH:6
DA:48,78716875
DA:50,78716875
DA:51,78716875
DA:55,423863519
DA:99,784858570
DA:129,73302544
DA:264,27135
DA:267,27135
DA:268,69895
DA:270,42760
DA:271,42760
DA:273,27135
DA:282,73302544
DA:304,138228072
DA:305,64925528
DA:306,64925528
DA:308,74196902
DA:309,9271374
DA:310,9271374
DA:313,604630454
DA:314,604630454
DA:315,539704926
DA:316,539704926
DA:317,539704926
DA:318,539704926
DA:321,704955404
DA:322,670656580
DA:323,670656580
DA:324,670656580
DA:326,640029876
DA:331,73302544
DA:336,30626704
DA:357,711165428
DA:358,680538724
DA:359,19418880
DA:360,19418880
DA:361,670656580
DA:362,670656580
DA:365,9882144
DA:366,9131028
DA:370,9882144
DA:371,9882144
DA:553,58105024
DA:556,58105024
DA:564,1009384254
DA:566,951279230
DA:567,951279230
DA:569,1866483082
DA:570,915203852
DA:571,915203852
DA:573,915203852
DA:577,951279230
DA:580,58105024
DA:588,15197520
DA:591,15197520
DA:599,274279796
DA:601,259082276
DA:602,259082276
DA:604,506995088
DA:605,247912812
DA:606,247912812
DA:608,247912812
DA:612,259082276
DA:615,15197520
DA:693,765947024
DA:694,705734806
DA:705,422021316
DA:706,402905038
DA:950,48063036
DA:952,48063036
DA:956,48063036
DA:958,832921606
DA:959,784858570
DA:960,784858570
DA:963,48063036
DA:972,0
DA:974,0
DA:978,0
DA:980,0
DA:981,0
DA:982,0
DA:984,0
DA:993,0
DA:995,0
DA:998,0
DA:1000,0
DA:1001,0
DA:1002,0
DA:1005,0
LF:89
LH:75
end_of_record
TN:
SF:/usr/share/miniconda3/envs/moose/libmesh/include/metaphysicl/dynamicsparsenumberbase_decl.h
FN:72,_ZN11MetaPhysicL23DynamicSparseNumberBaseINS_22DynamicStdArrayWrapperIdNS_8NWrapperILm64EEEEENS1_ImS3_EENS_28SemiDynamicSparseNumberArrayEJdmS3_EEC2EOS7_
FN:75,_ZN11MetaPhysicL23DynamicSparseNumberBaseINS_22DynamicStdArrayWrapperIdNS_8NWrapperILm64EEEEENS1_ImS3_EENS_28SemiDynamicSparseNumberArrayEJdmS3_EEaSEOS7_
FN:79,_ZN11MetaPhysicL23DynamicSparseNumberBaseINS_22DynamicStdArrayWrapperIdNS_8NWrapperILm64EEEEENS1_ImS3_EENS_28SemiDynamicSparseNumberArrayEJdmS3_EEC2ERKS7_
FN:81,_ZN11MetaPhysicL23DynamicSparseNumberBaseINS_22DynamicStdArrayWrapperIdNS_8NWrapperILm64EEEEENS1_ImS3_EENS_28SemiDynamicSparseNumberArrayEJdmS3_EEaSERKS7_
FNDA:100926698,_ZN11MetaPhysicL23DynamicSparseNumberBaseINS_22DynamicStdArrayWrapperIdNS_8NWrapperILm64EEEEENS1_ImS3_EENS_28SemiDynamicSparseNumberArrayEJdmS3_EEaSERKS7_
FNDA:21614,_ZN11MetaPhysicL23DynamicSparseNumberBaseINS_22DynamicStdArrayWrapperIdNS_8NWrapperILm64EEEEENS1_ImS3_EENS_28SemiDynamicSparseNumberArrayEJdmS3_EEC2ERKS7_
FNDA:89615152,_ZN11MetaPhysicL23DynamicSparseNumberBaseINS_22DynamicStdArrayWrapperIdNS_8NWrapperILm64EEEEENS1_ImS3_EENS_28SemiDynamicSparseNumberArrayEJdmS3_EEaSEOS7_
FNDA:0,_ZN11MetaPhysicL23DynamicSparseNumberBaseINS_22DynamicStdArrayWrapperIdNS_8NWrapperILm64EEEEENS1_ImS3_EENS_28SemiDynamicSparseNumberArrayEJdmS3_EEC2EOS7_
FNF:4
FNH:3
DA:72,0
DA:75,89615152
DA:79,21614
DA:81,100926698
LF:4
LH:3
end_of_record
TN:
SF:/usr/share/miniconda3/envs/moose/libmesh/include/metaphysicl/metaphysicl_exceptions.h
FNF:0
FNH:0
DA:45,0
LF:1
LH:0
end_of_record
TN:
SF:/usr/share/miniconda3/envs/moose/libmesh/include/metaphysicl/raw_type.h
FNF:0
FNH:0
DA:73,41590
DA:88,0
LF:2
LH:1
end_of_record
TN:
SF:/usr/share/miniconda3/envs/moose/libmesh/include/metaphysicl/semidynamicsparsenumberarray.h
FNF:0
FNH:0
DA:84,0
DA:85,0
LF:2
LH:0
end_of_record
TN:
SF:/usr/share/miniconda3/envs/moose/libmesh/include/metaphysicl/semidynamicsparsenumberarray_decl.h
FNF:0
FNH:0
DA:34,83344454
DA:56,0
DA:58,89615152
DA:60,21614
DA:62,100926698
LF:5
LH:4
end_of_record
